	.file	"main_amiga_scroller_hdmi.c"
	.option nopic
	.attribute arch, "rv32i2p0_m2p0"
	.attribute unaligned_access, 0
	.attribute stack_align, 16
# GNU C17 (GCC) version 11.1.0 (riscv32-unknown-elf)
#	compiled by GNU C version 9.3.0, GMP version 6.2.0, MPFR version 4.0.2, MPC version 1.1.0, isl version none
# warning: GMP header version 6.2.0 differs from library version 6.3.0.
# warning: MPFR header version 4.0.2 differs from library version 4.2.1.
# warning: MPC header version 1.1.0 differs from library version 1.3.1.
# GGC heuristics: --param ggc-min-expand=100 --param ggc-min-heapsize=131072
# options passed: -march=rv32im -mabi=ilp32 -mtune=rocket -march=rv32im -O3 -fno-pic -fno-stack-protector -ffreestanding
	.text
	.align	2
	.globl	dma_action
	.type	dma_action, @function
dma_action:
# kianv_stdlib.h:51:   *( (volatile uint32_t*) DMA_SRC  ) = src;
	li	a5,805306368		# tmp77,
	sw	a0,44(a5)	# src, MEM[(volatile uint32_t *)805306412B]
# kianv_stdlib.h:52:   *( (volatile uint32_t*) DMA_DST  ) = dst;
	sw	a1,48(a5)	# dst, MEM[(volatile uint32_t *)805306416B]
# kianv_stdlib.h:53:   *( (volatile uint32_t*) DMA_LEN  ) = len;
	sw	a2,52(a5)	# len, MEM[(volatile uint32_t *)805306420B]
# kianv_stdlib.h:54:   *( (volatile uint32_t*) DMA_CTRL ) = ctrl;
	sw	a3,56(a5)	# ctrl, MEM[(volatile uint32_t *)805306424B]
# kianv_stdlib.h:55: }
	ret	
	.size	dma_action, .-dma_action
	.align	2
	.globl	_sendCmd
	.type	_sendCmd, @function
_sendCmd:
# kianv_stdlib.h:62:     *((volatile uint32_t *) VIDEO_RAW) = ((0x00) << 8) | c;
	li	a5,805306368		# tmp75,
	sw	a0,12(a5)	# c, MEM[(volatile uint32_t *)805306380B]
# kianv_stdlib.h:64: }
	ret	
	.size	_sendCmd, .-_sendCmd
	.align	2
	.globl	_sendData
	.type	_sendData, @function
_sendData:
# kianv_stdlib.h:71:     *((volatile uint32_t *) VIDEO_RAW) = ((0x01) << 8) | c;
	ori	a0,a0,256	#, _3, tmp78
# kianv_stdlib.h:71:     *((volatile uint32_t *) VIDEO_RAW) = ((0x01) << 8) | c;
	li	a5,805306368		# tmp77,
	sw	a0,12(a5)	# _3, MEM[(volatile uint32_t *)805306380B]
# kianv_stdlib.h:73: }
	ret	
	.size	_sendData, .-_sendData
	.align	2
	.globl	init_oled1331
	.type	init_oled1331, @function
init_oled1331:
# kianv_stdlib.h:62:     *((volatile uint32_t *) VIDEO_RAW) = ((0x00) << 8) | c;
	li	a5,805306368		# tmp73,
	li	a4,174		# tmp74,
	sw	a4,12(a5)	# tmp74, MEM[(volatile uint32_t *)805306380B]
	li	a4,129		# tmp77,
	sw	a4,12(a5)	# tmp77, MEM[(volatile uint32_t *)805306380B]
	li	a4,145		# tmp80,
	sw	a4,12(a5)	# tmp80, MEM[(volatile uint32_t *)805306380B]
	li	a4,130		# tmp83,
	sw	a4,12(a5)	# tmp83, MEM[(volatile uint32_t *)805306380B]
	li	a4,128		# tmp86,
	sw	a4,12(a5)	# tmp86, MEM[(volatile uint32_t *)805306380B]
	li	a4,131		# tmp89,
	sw	a4,12(a5)	# tmp89, MEM[(volatile uint32_t *)805306380B]
	li	a4,125		# tmp92,
	sw	a4,12(a5)	# tmp92, MEM[(volatile uint32_t *)805306380B]
	li	a4,135		# tmp95,
	sw	a4,12(a5)	# tmp95, MEM[(volatile uint32_t *)805306380B]
	li	a4,6		# tmp98,
	sw	a4,12(a5)	# tmp98, MEM[(volatile uint32_t *)805306380B]
	li	a4,138		# tmp101,
	sw	a4,12(a5)	# tmp101, MEM[(volatile uint32_t *)805306380B]
	li	a4,100		# tmp104,
	sw	a4,12(a5)	# tmp104, MEM[(volatile uint32_t *)805306380B]
	li	a3,139		# tmp107,
	sw	a3,12(a5)	# tmp107, MEM[(volatile uint32_t *)805306380B]
	li	a3,120		# tmp110,
	sw	a3,12(a5)	# tmp110, MEM[(volatile uint32_t *)805306380B]
	li	a3,140		# tmp113,
	sw	a3,12(a5)	# tmp113, MEM[(volatile uint32_t *)805306380B]
	sw	a4,12(a5)	# tmp104, MEM[(volatile uint32_t *)805306380B]
	li	a4,160		# tmp119,
	sw	a4,12(a5)	# tmp119, MEM[(volatile uint32_t *)805306380B]
	li	a4,114		# tmp122,
	sw	a4,12(a5)	# tmp122, MEM[(volatile uint32_t *)805306380B]
	li	a4,161		# tmp125,
	sw	a4,12(a5)	# tmp125, MEM[(volatile uint32_t *)805306380B]
	sw	zero,12(a5)	#, MEM[(volatile uint32_t *)805306380B]
	li	a4,162		# tmp130,
	sw	a4,12(a5)	# tmp130, MEM[(volatile uint32_t *)805306380B]
	sw	zero,12(a5)	#, MEM[(volatile uint32_t *)805306380B]
	li	a4,164		# tmp135,
	sw	a4,12(a5)	# tmp135, MEM[(volatile uint32_t *)805306380B]
	li	a4,168		# tmp138,
	sw	a4,12(a5)	# tmp138, MEM[(volatile uint32_t *)805306380B]
	li	a4,63		# tmp141,
	sw	a4,12(a5)	# tmp141, MEM[(volatile uint32_t *)805306380B]
	li	a4,173		# tmp144,
	sw	a4,12(a5)	# tmp144, MEM[(volatile uint32_t *)805306380B]
	li	a4,142		# tmp147,
	sw	a4,12(a5)	# tmp147, MEM[(volatile uint32_t *)805306380B]
	li	a4,176		# tmp150,
	sw	a4,12(a5)	# tmp150, MEM[(volatile uint32_t *)805306380B]
	sw	zero,12(a5)	#, MEM[(volatile uint32_t *)805306380B]
	li	a4,177		# tmp155,
	sw	a4,12(a5)	# tmp155, MEM[(volatile uint32_t *)805306380B]
	li	a4,49		# tmp158,
	sw	a4,12(a5)	# tmp158, MEM[(volatile uint32_t *)805306380B]
	li	a4,179		# tmp161,
	sw	a4,12(a5)	# tmp161, MEM[(volatile uint32_t *)805306380B]
	li	a4,240		# tmp164,
	sw	a4,12(a5)	# tmp164, MEM[(volatile uint32_t *)805306380B]
	li	a4,187		# tmp167,
	sw	a4,12(a5)	# tmp167, MEM[(volatile uint32_t *)805306380B]
	li	a4,58		# tmp170,
	sw	a4,12(a5)	# tmp170, MEM[(volatile uint32_t *)805306380B]
	li	a4,190		# tmp173,
	sw	a4,12(a5)	# tmp173, MEM[(volatile uint32_t *)805306380B]
	li	a4,62		# tmp176,
	sw	a4,12(a5)	# tmp176, MEM[(volatile uint32_t *)805306380B]
	li	a4,46		# tmp179,
	sw	a4,12(a5)	# tmp179, MEM[(volatile uint32_t *)805306380B]
	li	a4,175		# tmp182,
	sw	a4,12(a5)	# tmp182, MEM[(volatile uint32_t *)805306380B]
# kianv_stdlib.h:120: }
	ret	
	.size	init_oled1331, .-init_oled1331
	.align	2
	.globl	set_reg
	.type	set_reg, @function
set_reg:
# kianv_stdlib.h:125:       *p |=  (0x01 << (gpio & 0x1f));
	lw	a4,0(a0)		# _1,* p
# kianv_stdlib.h:125:       *p |=  (0x01 << (gpio & 0x1f));
	li	a5,1		# tmp85,
	sll	a5,a5,a1	# tmp88, _12, tmp85
# kianv_stdlib.h:124:     if (bit) {
	beq	a2,zero,.L7	#, tmp89,,
# kianv_stdlib.h:125:       *p |=  (0x01 << (gpio & 0x1f));
	or	a5,a5,a4	# _1, _5, _12
	sw	a5,0(a0)	# _5,* p
	ret	
.L7:
# kianv_stdlib.h:127:       *p &= ~( 0x01 << (gpio & 0x1f));
	not	a5,a5	# tmp86, _12
# kianv_stdlib.h:127:       *p &= ~( 0x01 << (gpio & 0x1f));
	and	a5,a5,a4	# _13, _18, tmp86
	sw	a5,0(a0)	# _18,* p
# kianv_stdlib.h:129: }
	ret	
	.size	set_reg, .-set_reg
	.align	2
	.globl	gpio_set_value
	.type	gpio_set_value, @function
gpio_set_value:
# kianv_stdlib.h:125:       *p |=  (0x01 << (gpio & 0x1f));
	li	a4,805306368		# tmp86,
	lw	a3,28(a4)		# _4,
# kianv_stdlib.h:125:       *p |=  (0x01 << (gpio & 0x1f));
	li	a5,1		# tmp84,
	sll	a5,a5,a0	# tmp94, _19, tmp84
# kianv_stdlib.h:124:     if (bit) {
	beq	a1,zero,.L10	#, tmp95,,
# kianv_stdlib.h:125:       *p |=  (0x01 << (gpio & 0x1f));
	or	a5,a5,a3	# _4, _8, _19
	sw	a5,28(a4)	# _8,
	ret	
.L10:
# kianv_stdlib.h:127:       *p &= ~( 0x01 << (gpio & 0x1f));
	not	a5,a5	# tmp91, _19
# kianv_stdlib.h:127:       *p &= ~( 0x01 << (gpio & 0x1f));
	and	a5,a5,a3	# _12, _17, tmp91
	sw	a5,28(a4)	# _17,
# kianv_stdlib.h:133: }
	ret	
	.size	gpio_set_value, .-gpio_set_value
	.align	2
	.globl	gpio_get_input_value
	.type	gpio_get_input_value, @function
gpio_get_input_value:
# kianv_stdlib.h:136:   uint32_t read = IO_IN(GPIO_INPUT);
	li	a5,805306368		# tmp77,
	lw	a5,32(a5)		# read, MEM[(volatile uint32_t *)805306400B]
# kianv_stdlib.h:139:   return ((read >> gpio) & 0x01);
	srl	a0,a5,a0	# tmp80, tmp79, read
# kianv_stdlib.h:140: }
	andi	a0,a0,1	#,, tmp79
	ret	
	.size	gpio_get_input_value, .-gpio_get_input_value
	.align	2
	.globl	gpio_set_direction
	.type	gpio_set_direction, @function
gpio_set_direction:
# kianv_stdlib.h:125:       *p |=  (0x01 << (gpio & 0x1f));
	li	a4,805306368		# tmp86,
	lw	a3,20(a4)		# _4,
# kianv_stdlib.h:125:       *p |=  (0x01 << (gpio & 0x1f));
	li	a5,1		# tmp84,
	sll	a5,a5,a0	# tmp94, _19, tmp84
# kianv_stdlib.h:124:     if (bit) {
	beq	a1,zero,.L14	#, tmp95,,
# kianv_stdlib.h:125:       *p |=  (0x01 << (gpio & 0x1f));
	or	a5,a5,a3	# _4, _8, _19
	sw	a5,20(a4)	# _8,
	ret	
.L14:
# kianv_stdlib.h:127:       *p &= ~( 0x01 << (gpio & 0x1f));
	not	a5,a5	# tmp91, _19
# kianv_stdlib.h:127:       *p &= ~( 0x01 << (gpio & 0x1f));
	and	a5,a5,a3	# _12, _17, tmp91
	sw	a5,20(a4)	# _17,
# kianv_stdlib.h:144: }
	ret	
	.size	gpio_set_direction, .-gpio_set_direction
	.align	2
	.globl	get_cycles
	.type	get_cycles, @function
get_cycles:
	addi	sp,sp,-16	#,,
# kianv_stdlib.h:150:   asm volatile ("rdcycleh %0" : "=r"(tmph0));
 #APP
# 150 "kianv_stdlib.h" 1
	rdcycleh a5	# tmp78
# 0 "" 2
 #NO_APP
	sw	a5,8(sp)	# tmp78, tmph0
# kianv_stdlib.h:151:   asm volatile ("rdcycle  %0" : "=r"(tmpl0));
 #APP
# 151 "kianv_stdlib.h" 1
	rdcycle  a5	# tmp79
# 0 "" 2
 #NO_APP
	sw	a5,12(sp)	# tmp79, tmpl0
# kianv_stdlib.h:153:   return ((uint64_t)(tmph0)<<32) + tmpl0;
	lw	a1,8(sp)		# tmph0.0_1, tmph0
# kianv_stdlib.h:153:   return ((uint64_t)(tmph0)<<32) + tmpl0;
	lw	a0,12(sp)		# tmpl0.1_4, tmpl0
# kianv_stdlib.h:155: }
	addi	sp,sp,16	#,,
	jr	ra		#
	.size	get_cycles, .-get_cycles
	.align	2
	.globl	wait_cycles
	.type	wait_cycles, @function
wait_cycles:
	addi	sp,sp,-16	#,,
# kianv_stdlib.h:150:   asm volatile ("rdcycleh %0" : "=r"(tmph0));
 #APP
# 150 "kianv_stdlib.h" 1
	rdcycleh a5	# tmp86
# 0 "" 2
 #NO_APP
	sw	a5,0(sp)	# tmp86, tmph0
# kianv_stdlib.h:151:   asm volatile ("rdcycle  %0" : "=r"(tmpl0));
 #APP
# 151 "kianv_stdlib.h" 1
	rdcycle  a5	# tmp87
# 0 "" 2
 #NO_APP
	sw	a5,4(sp)	# tmp87, tmpl0
# kianv_stdlib.h:153:   return ((uint64_t)(tmph0)<<32) + tmpl0;
	lw	a5,0(sp)		# tmph0.0_5, tmph0
# kianv_stdlib.h:153:   return ((uint64_t)(tmph0)<<32) + tmpl0;
	lw	a2,4(sp)		# tmpl0.1_8, tmpl0
# kianv_stdlib.h:162:   uint64_t lim = get_cycles() + wait;
	add	a5,a5,a1	# wait, tmp126, tmph0.0_5
	add	a2,a0,a2	# tmpl0.1_8, tmp129, wait
	sltu	a0,a2,a0	# wait, tmp98, tmp129
	add	a4,a0,a5	# tmp126, tmp100, tmp98
.L21:
# kianv_stdlib.h:150:   asm volatile ("rdcycleh %0" : "=r"(tmph0));
 #APP
# 150 "kianv_stdlib.h" 1
	rdcycleh a5	# tmp101
# 0 "" 2
 #NO_APP
	sw	a5,8(sp)	# tmp101, tmph0
# kianv_stdlib.h:151:   asm volatile ("rdcycle  %0" : "=r"(tmpl0));
 #APP
# 151 "kianv_stdlib.h" 1
	rdcycle  a5	# tmp102
# 0 "" 2
 #NO_APP
	sw	a5,12(sp)	# tmp102, tmpl0
# kianv_stdlib.h:153:   return ((uint64_t)(tmph0)<<32) + tmpl0;
	lw	a5,8(sp)		# tmph0.0_11, tmph0
# kianv_stdlib.h:153:   return ((uint64_t)(tmph0)<<32) + tmpl0;
	lw	a3,12(sp)		# tmpl0.1_14, tmpl0
# kianv_stdlib.h:163:   while (get_cycles() < lim)
	bgtu	a4,a5,.L21	#, tmp100, tmph0.0_11,
	bne	a4,a5,.L18	#, tmp100, tmph0.0_11,
	bgtu	a2,a3,.L21	#, tmp129, tmpl0.1_14,
.L18:
# kianv_stdlib.h:165: }
	addi	sp,sp,16	#,,
	jr	ra		#
	.size	wait_cycles, .-wait_cycles
	.align	2
	.globl	usleep
	.type	usleep, @function
usleep:
# kianv_stdlib.h:168:   if (us) wait_cycles(us * (get_cpu_freq() / 1000000));
	beq	a0,zero,.L32	#, us,,
# kianv_stdlib.h:158:   return *((volatile uint32_t*) CPU_FREQ);
	li	a5,805306368		# tmp91,
# kianv_stdlib.h:167: void usleep(uint32_t us) {
	addi	sp,sp,-16	#,,
# kianv_stdlib.h:158:   return *((volatile uint32_t*) CPU_FREQ);
	lw	a5,16(a5)		# _20, MEM[(volatile uint32_t *)805306384B]
# kianv_stdlib.h:150:   asm volatile ("rdcycleh %0" : "=r"(tmph0));
 #APP
# 150 "kianv_stdlib.h" 1
	rdcycleh a4	# tmp92
# 0 "" 2
 #NO_APP
	sw	a4,8(sp)	# tmp92, tmph0
# kianv_stdlib.h:151:   asm volatile ("rdcycle  %0" : "=r"(tmpl0));
 #APP
# 151 "kianv_stdlib.h" 1
	rdcycle  a3	# tmp93
# 0 "" 2
# kianv_stdlib.h:168:   if (us) wait_cycles(us * (get_cpu_freq() / 1000000));
 #NO_APP
	li	a4,999424		# tmp97,
	addi	a4,a4,576	#, tmp96, tmp97
	divu	a5,a5,a4	# tmp96, tmp95, _20
# kianv_stdlib.h:151:   asm volatile ("rdcycle  %0" : "=r"(tmpl0));
	sw	a3,12(sp)	# tmp93, tmpl0
# kianv_stdlib.h:153:   return ((uint64_t)(tmph0)<<32) + tmpl0;
	lw	a4,8(sp)		# tmph0.0_7, tmph0
# kianv_stdlib.h:153:   return ((uint64_t)(tmph0)<<32) + tmpl0;
	lw	a2,12(sp)		# tmpl0.1_10, tmpl0
# kianv_stdlib.h:168:   if (us) wait_cycles(us * (get_cpu_freq() / 1000000));
	mul	a5,a5,a0	# tmp98, tmp95, us
# kianv_stdlib.h:162:   uint64_t lim = get_cycles() + wait;
	add	a2,a5,a2	# tmpl0.1_10, tmp141, tmp98
	sltu	a5,a2,a5	# tmp98, tmp110, tmp141
	add	a5,a5,a4	# tmph0.0_7, tmp112, tmp110
.L29:
# kianv_stdlib.h:150:   asm volatile ("rdcycleh %0" : "=r"(tmph0));
 #APP
# 150 "kianv_stdlib.h" 1
	rdcycleh a4	# tmp113
# 0 "" 2
 #NO_APP
	sw	a4,0(sp)	# tmp113, tmph0
# kianv_stdlib.h:151:   asm volatile ("rdcycle  %0" : "=r"(tmpl0));
 #APP
# 151 "kianv_stdlib.h" 1
	rdcycle  a4	# tmp114
# 0 "" 2
 #NO_APP
	sw	a4,4(sp)	# tmp114, tmpl0
# kianv_stdlib.h:153:   return ((uint64_t)(tmph0)<<32) + tmpl0;
	lw	a4,0(sp)		# tmph0.0_14, tmph0
# kianv_stdlib.h:153:   return ((uint64_t)(tmph0)<<32) + tmpl0;
	lw	a3,4(sp)		# tmpl0.1_17, tmpl0
# kianv_stdlib.h:163:   while (get_cycles() < lim)
	bgtu	a5,a4,.L29	#, tmp112, tmph0.0_14,
	bne	a5,a4,.L23	#, tmp112, tmph0.0_14,
	bgtu	a2,a3,.L29	#, tmp141, tmpl0.1_17,
.L23:
# kianv_stdlib.h:169: }
	addi	sp,sp,16	#,,
	jr	ra		#
.L32:
	ret	
	.size	usleep, .-usleep
	.align	2
	.globl	msleep
	.type	msleep, @function
msleep:
# kianv_stdlib.h:172:   if (ms) wait_cycles(ms * (get_cpu_freq() / 1000));
	beq	a0,zero,.L44	#, ms,,
# kianv_stdlib.h:158:   return *((volatile uint32_t*) CPU_FREQ);
	li	a5,805306368		# tmp91,
# kianv_stdlib.h:171: void msleep(uint32_t ms) {
	addi	sp,sp,-16	#,,
# kianv_stdlib.h:158:   return *((volatile uint32_t*) CPU_FREQ);
	lw	a5,16(a5)		# _5, MEM[(volatile uint32_t *)805306384B]
# kianv_stdlib.h:150:   asm volatile ("rdcycleh %0" : "=r"(tmph0));
 #APP
# 150 "kianv_stdlib.h" 1
	rdcycleh a4	# tmp92
# 0 "" 2
 #NO_APP
	sw	a4,8(sp)	# tmp92, tmph0
# kianv_stdlib.h:151:   asm volatile ("rdcycle  %0" : "=r"(tmpl0));
 #APP
# 151 "kianv_stdlib.h" 1
	rdcycle  a4	# tmp93
# 0 "" 2
# kianv_stdlib.h:172:   if (ms) wait_cycles(ms * (get_cpu_freq() / 1000));
 #NO_APP
	li	a3,1000		# tmp95,
	divu	a5,a5,a3	# tmp95, tmp96, _5
# kianv_stdlib.h:151:   asm volatile ("rdcycle  %0" : "=r"(tmpl0));
	sw	a4,12(sp)	# tmp93, tmpl0
# kianv_stdlib.h:153:   return ((uint64_t)(tmph0)<<32) + tmpl0;
	lw	a4,8(sp)		# tmph0.0_9, tmph0
# kianv_stdlib.h:153:   return ((uint64_t)(tmph0)<<32) + tmpl0;
	lw	a2,12(sp)		# tmpl0.1_12, tmpl0
# kianv_stdlib.h:172:   if (ms) wait_cycles(ms * (get_cpu_freq() / 1000));
	mul	a5,a5,a0	# tmp97, tmp96, ms
# kianv_stdlib.h:162:   uint64_t lim = get_cycles() + wait;
	add	a2,a5,a2	# tmpl0.1_12, tmp140, tmp97
	sltu	a5,a2,a5	# tmp97, tmp109, tmp140
	add	a5,a5,a4	# tmph0.0_9, tmp111, tmp109
.L41:
# kianv_stdlib.h:150:   asm volatile ("rdcycleh %0" : "=r"(tmph0));
 #APP
# 150 "kianv_stdlib.h" 1
	rdcycleh a4	# tmp112
# 0 "" 2
 #NO_APP
	sw	a4,0(sp)	# tmp112, tmph0
# kianv_stdlib.h:151:   asm volatile ("rdcycle  %0" : "=r"(tmpl0));
 #APP
# 151 "kianv_stdlib.h" 1
	rdcycle  a4	# tmp113
# 0 "" 2
 #NO_APP
	sw	a4,4(sp)	# tmp113, tmpl0
# kianv_stdlib.h:153:   return ((uint64_t)(tmph0)<<32) + tmpl0;
	lw	a4,0(sp)		# tmph0.0_16, tmph0
# kianv_stdlib.h:153:   return ((uint64_t)(tmph0)<<32) + tmpl0;
	lw	a3,4(sp)		# tmpl0.1_19, tmpl0
# kianv_stdlib.h:163:   while (get_cycles() < lim)
	bgtu	a5,a4,.L41	#, tmp111, tmph0.0_16,
	bne	a5,a4,.L35	#, tmp111, tmph0.0_16,
	bgtu	a2,a3,.L41	#, tmp140, tmpl0.1_19,
.L35:
# kianv_stdlib.h:173: }
	addi	sp,sp,16	#,,
	jr	ra		#
.L44:
	ret	
	.size	msleep, .-msleep
	.align	2
	.globl	sleep
	.type	sleep, @function
sleep:
# kianv_stdlib.h:176:   if (sec) wait_cycles(sec * get_cpu_freq());
	beq	a0,zero,.L56	#, sec,,
# kianv_stdlib.h:158:   return *((volatile uint32_t*) CPU_FREQ);
	li	a5,805306368		# tmp90,
# kianv_stdlib.h:175: void sleep(uint32_t sec) {
	addi	sp,sp,-16	#,,
# kianv_stdlib.h:158:   return *((volatile uint32_t*) CPU_FREQ);
	lw	a4,16(a5)		# _19, MEM[(volatile uint32_t *)805306384B]
# kianv_stdlib.h:150:   asm volatile ("rdcycleh %0" : "=r"(tmph0));
 #APP
# 150 "kianv_stdlib.h" 1
	rdcycleh a5	# tmp91
# 0 "" 2
 #NO_APP
	sw	a5,8(sp)	# tmp91, tmph0
# kianv_stdlib.h:151:   asm volatile ("rdcycle  %0" : "=r"(tmpl0));
 #APP
# 151 "kianv_stdlib.h" 1
	rdcycle  a5	# tmp92
# 0 "" 2
# kianv_stdlib.h:176:   if (sec) wait_cycles(sec * get_cpu_freq());
 #NO_APP
	mul	a0,a0,a4	# tmp101, sec, _19
# kianv_stdlib.h:151:   asm volatile ("rdcycle  %0" : "=r"(tmpl0));
	sw	a5,12(sp)	# tmp92, tmpl0
# kianv_stdlib.h:153:   return ((uint64_t)(tmph0)<<32) + tmpl0;
	lw	a5,8(sp)		# tmph0.0_6, tmph0
# kianv_stdlib.h:153:   return ((uint64_t)(tmph0)<<32) + tmpl0;
	lw	a4,12(sp)		# tmpl0.1_9, tmpl0
# kianv_stdlib.h:162:   uint64_t lim = get_cycles() + wait;
	add	a0,a4,a0	# tmp101, tmp136, tmpl0.1_9
	sltu	a4,a0,a4	# tmpl0.1_9, tmp105, tmp136
	add	a4,a4,a5	# tmph0.0_6, tmp107, tmp105
.L53:
# kianv_stdlib.h:150:   asm volatile ("rdcycleh %0" : "=r"(tmph0));
 #APP
# 150 "kianv_stdlib.h" 1
	rdcycleh a5	# tmp108
# 0 "" 2
 #NO_APP
	sw	a5,0(sp)	# tmp108, tmph0
# kianv_stdlib.h:151:   asm volatile ("rdcycle  %0" : "=r"(tmpl0));
 #APP
# 151 "kianv_stdlib.h" 1
	rdcycle  a5	# tmp109
# 0 "" 2
 #NO_APP
	sw	a5,4(sp)	# tmp109, tmpl0
# kianv_stdlib.h:153:   return ((uint64_t)(tmph0)<<32) + tmpl0;
	lw	a5,0(sp)		# tmph0.0_13, tmph0
# kianv_stdlib.h:153:   return ((uint64_t)(tmph0)<<32) + tmpl0;
	lw	a3,4(sp)		# tmpl0.1_16, tmpl0
# kianv_stdlib.h:163:   while (get_cycles() < lim)
	bgtu	a4,a5,.L53	#, tmp107, tmph0.0_13,
	bne	a4,a5,.L47	#, tmp107, tmph0.0_13,
	bgtu	a0,a3,.L53	#, tmp136, tmpl0.1_16,
.L47:
# kianv_stdlib.h:177: }
	addi	sp,sp,16	#,,
	jr	ra		#
.L56:
	ret	
	.size	sleep, .-sleep
	.globl	__udivdi3
	.align	2
	.globl	nanoseconds
	.type	nanoseconds, @function
nanoseconds:
	addi	sp,sp,-32	#,,
	sw	ra,28(sp)	#,
# kianv_stdlib.h:150:   asm volatile ("rdcycleh %0" : "=r"(tmph0));
 #APP
# 150 "kianv_stdlib.h" 1
	rdcycleh a5	# tmp82
# 0 "" 2
 #NO_APP
	sw	a5,8(sp)	# tmp82, tmph0
# kianv_stdlib.h:151:   asm volatile ("rdcycle  %0" : "=r"(tmpl0));
 #APP
# 151 "kianv_stdlib.h" 1
	rdcycle  a5	# tmp83
# 0 "" 2
 #NO_APP
	sw	a5,12(sp)	# tmp83, tmpl0
# kianv_stdlib.h:158:   return *((volatile uint32_t*) CPU_FREQ);
	li	a5,805306368		# tmp85,
# kianv_stdlib.h:153:   return ((uint64_t)(tmph0)<<32) + tmpl0;
	lw	a1,8(sp)		# tmph0.0_6, tmph0
# kianv_stdlib.h:153:   return ((uint64_t)(tmph0)<<32) + tmpl0;
	lw	a0,12(sp)		# tmpl0.1_9, tmpl0
# kianv_stdlib.h:158:   return *((volatile uint32_t*) CPU_FREQ);
	lw	a2,16(a5)		# _5, MEM[(volatile uint32_t *)805306384B]
# kianv_stdlib.h:180:   return get_cycles() / (uint64_t) (get_cpu_freq() / 1000000);
	li	a5,999424		# tmp98,
	addi	a5,a5,576	#, tmp97, tmp98
# kianv_stdlib.h:180:   return get_cycles() / (uint64_t) (get_cpu_freq() / 1000000);
	divu	a2,a2,a5	# tmp97,, _5
	li	a3,0		#,
	call	__udivdi3		#
# kianv_stdlib.h:181: }
	lw	ra,28(sp)		#,
	addi	sp,sp,32	#,,
	jr	ra		#
	.size	nanoseconds, .-nanoseconds
	.align	2
	.globl	milliseconds
	.type	milliseconds, @function
milliseconds:
	addi	sp,sp,-32	#,,
	sw	ra,28(sp)	#,
# kianv_stdlib.h:150:   asm volatile ("rdcycleh %0" : "=r"(tmph0));
 #APP
# 150 "kianv_stdlib.h" 1
	rdcycleh a5	# tmp82
# 0 "" 2
 #NO_APP
	sw	a5,8(sp)	# tmp82, tmph0
# kianv_stdlib.h:151:   asm volatile ("rdcycle  %0" : "=r"(tmpl0));
 #APP
# 151 "kianv_stdlib.h" 1
	rdcycle  a5	# tmp83
# 0 "" 2
 #NO_APP
	sw	a5,12(sp)	# tmp83, tmpl0
# kianv_stdlib.h:158:   return *((volatile uint32_t*) CPU_FREQ);
	li	a5,805306368		# tmp85,
# kianv_stdlib.h:153:   return ((uint64_t)(tmph0)<<32) + tmpl0;
	lw	a1,8(sp)		# tmph0.0_6, tmph0
# kianv_stdlib.h:153:   return ((uint64_t)(tmph0)<<32) + tmpl0;
	lw	a0,12(sp)		# tmpl0.1_9, tmpl0
# kianv_stdlib.h:158:   return *((volatile uint32_t*) CPU_FREQ);
	lw	a2,16(a5)		# _5, MEM[(volatile uint32_t *)805306384B]
# kianv_stdlib.h:184:   return get_cycles() / (uint64_t) (get_cpu_freq() / 1000);
	li	a5,1000		# tmp96,
	li	a3,0		#,
	divu	a2,a2,a5	# tmp96,, _5
	call	__udivdi3		#
# kianv_stdlib.h:185: }
	lw	ra,28(sp)		#,
	addi	sp,sp,32	#,,
	jr	ra		#
	.size	milliseconds, .-milliseconds
	.align	2
	.globl	seconds
	.type	seconds, @function
seconds:
	addi	sp,sp,-32	#,,
	sw	ra,28(sp)	#,
# kianv_stdlib.h:150:   asm volatile ("rdcycleh %0" : "=r"(tmph0));
 #APP
# 150 "kianv_stdlib.h" 1
	rdcycleh a5	# tmp81
# 0 "" 2
 #NO_APP
	sw	a5,8(sp)	# tmp81, tmph0
# kianv_stdlib.h:151:   asm volatile ("rdcycle  %0" : "=r"(tmpl0));
 #APP
# 151 "kianv_stdlib.h" 1
	rdcycle  a5	# tmp82
# 0 "" 2
 #NO_APP
	sw	a5,12(sp)	# tmp82, tmpl0
# kianv_stdlib.h:158:   return *((volatile uint32_t*) CPU_FREQ);
	li	a5,805306368		# tmp84,
# kianv_stdlib.h:153:   return ((uint64_t)(tmph0)<<32) + tmpl0;
	lw	a1,8(sp)		# tmph0.0_5, tmph0
# kianv_stdlib.h:153:   return ((uint64_t)(tmph0)<<32) + tmpl0;
	lw	a0,12(sp)		# tmpl0.1_8, tmpl0
# kianv_stdlib.h:158:   return *((volatile uint32_t*) CPU_FREQ);
	lw	a2,16(a5)		# _4, MEM[(volatile uint32_t *)805306384B]
# kianv_stdlib.h:188:   return get_cycles() / (uint64_t) (get_cpu_freq());
	li	a3,0		#,
	call	__udivdi3		#
# kianv_stdlib.h:189: }
	lw	ra,28(sp)		#,
	addi	sp,sp,32	#,,
	jr	ra		#
	.size	seconds, .-seconds
	.align	2
	.globl	putchar
	.type	putchar, @function
putchar:
# kianv_stdlib.h:192:   while (!*((volatile uint32_t*) UART_READY))
	li	a4,805306368		# tmp75,
.L66:
# kianv_stdlib.h:192:   while (!*((volatile uint32_t*) UART_READY))
	lw	a5,0(a4)		# _1, MEM[(volatile uint32_t *)805306368B]
# kianv_stdlib.h:192:   while (!*((volatile uint32_t*) UART_READY))
	beq	a5,zero,.L66	#, _1,,
# kianv_stdlib.h:194:   *((volatile uint32_t*) UART_TX) = c;
	sw	a0,0(a4)	# c, MEM[(volatile uint32_t *)805306368B]
# kianv_stdlib.h:195:    if (c == 13) {
	li	a5,13		# tmp77,
	beq	a0,a5,.L70	#, c, tmp77,
# kianv_stdlib.h:198: }
	ret	
.L70:
# kianv_stdlib.h:196:     *((volatile uint32_t*) UART_TX) = 10;
	li	a5,10		# tmp79,
	sw	a5,0(a4)	# tmp79, MEM[(volatile uint32_t *)805306368B]
# kianv_stdlib.h:198: }
	ret	
	.size	putchar, .-putchar
	.align	2
	.globl	print_chr
	.type	print_chr, @function
print_chr:
	li	a4,805306368		# tmp75,
.L72:
	lw	a5,0(a4)		# _4, MEM[(volatile uint32_t *)805306368B]
	beq	a5,zero,.L72	#, _4,,
	sw	a0,0(a4)	# ch, MEM[(volatile uint32_t *)805306368B]
	li	a5,13		# tmp77,
	beq	a0,a5,.L76	#, ch, tmp77,
	ret	
.L76:
	li	a5,10		# tmp79,
	sw	a5,0(a4)	# tmp79, MEM[(volatile uint32_t *)805306368B]
	ret	
	.size	print_chr, .-print_chr
	.align	2
	.globl	print_char
	.type	print_char, @function
print_char:
	li	a4,805306368		# tmp75,
.L78:
	lw	a5,0(a4)		# _4, MEM[(volatile uint32_t *)805306368B]
	beq	a5,zero,.L78	#, _4,,
	sw	a0,0(a4)	# ch, MEM[(volatile uint32_t *)805306368B]
	li	a5,13		# tmp77,
	beq	a0,a5,.L82	#, ch, tmp77,
	ret	
.L82:
	li	a5,10		# tmp79,
	sw	a5,0(a4)	# tmp79, MEM[(volatile uint32_t *)805306368B]
	ret	
	.size	print_char, .-print_char
	.align	2
	.globl	print_str
	.type	print_str, @function
print_str:
# kianv_stdlib.h:209:   while (*p != 0) {
	lbu	a3,0(a0)	# _3, *p_6(D)
# kianv_stdlib.h:209:   while (*p != 0) {
	beq	a3,zero,.L83	#, _3,,
# kianv_stdlib.h:210:     while (!*((volatile uint32_t*) UART_READY))
	li	a5,805306368		# tmp77,
# kianv_stdlib.h:195:    if (c == 13) {
	li	a2,13		# tmp80,
# kianv_stdlib.h:196:     *((volatile uint32_t*) UART_TX) = 10;
	li	a1,10		# tmp83,
.L85:
# kianv_stdlib.h:210:     while (!*((volatile uint32_t*) UART_READY))
	lw	a4,0(a5)		# _1, MEM[(volatile uint32_t *)805306368B]
# kianv_stdlib.h:210:     while (!*((volatile uint32_t*) UART_READY))
	beq	a4,zero,.L85	#, _1,,
# kianv_stdlib.h:212:     putchar(*(p++));
	addi	a0,a0,1	#, p, p
.L86:
# kianv_stdlib.h:192:   while (!*((volatile uint32_t*) UART_READY))
	lw	a4,0(a5)		# _9, MEM[(volatile uint32_t *)805306368B]
# kianv_stdlib.h:192:   while (!*((volatile uint32_t*) UART_READY))
	beq	a4,zero,.L86	#, _9,,
# kianv_stdlib.h:194:   *((volatile uint32_t*) UART_TX) = c;
	sw	a3,0(a5)	# _3, MEM[(volatile uint32_t *)805306368B]
# kianv_stdlib.h:195:    if (c == 13) {
	beq	a3,a2,.L100	#, _3, tmp80,
# kianv_stdlib.h:209:   while (*p != 0) {
	lbu	a3,0(a0)	# _3, MEM[(char *)p_8]
# kianv_stdlib.h:209:   while (*p != 0) {
	bne	a3,zero,.L85	#, _3,,
.L83:
# kianv_stdlib.h:214: }
	ret	
.L100:
# kianv_stdlib.h:196:     *((volatile uint32_t*) UART_TX) = 10;
	sw	a1,0(a5)	# tmp83, MEM[(volatile uint32_t *)805306368B]
# kianv_stdlib.h:209:   while (*p != 0) {
	lbu	a3,0(a0)	# _3, MEM[(char *)p_8]
# kianv_stdlib.h:209:   while (*p != 0) {
	bne	a3,zero,.L85	#, _3,,
	ret	
	.size	print_str, .-print_str
	.align	2
	.globl	print_str_ln
	.type	print_str_ln, @function
print_str_ln:
# kianv_stdlib.h:209:   while (*p != 0) {
	lbu	a3,0(a0)	# _9, *p_2(D)
# kianv_stdlib.h:209:   while (*p != 0) {
	beq	a3,zero,.L102	#, _9,,
# kianv_stdlib.h:210:     while (!*((volatile uint32_t*) UART_READY))
	li	a5,805306368		# tmp78,
# kianv_stdlib.h:195:    if (c == 13) {
	li	a2,13		# tmp81,
# kianv_stdlib.h:196:     *((volatile uint32_t*) UART_TX) = 10;
	li	a1,10		# tmp89,
.L103:
# kianv_stdlib.h:210:     while (!*((volatile uint32_t*) UART_READY))
	lw	a4,0(a5)		# _5, MEM[(volatile uint32_t *)805306368B]
# kianv_stdlib.h:210:     while (!*((volatile uint32_t*) UART_READY))
	beq	a4,zero,.L103	#, _5,,
# kianv_stdlib.h:212:     putchar(*(p++));
	addi	a0,a0,1	#, p, p
.L104:
# kianv_stdlib.h:192:   while (!*((volatile uint32_t*) UART_READY))
	lw	a4,0(a5)		# _8, MEM[(volatile uint32_t *)805306368B]
# kianv_stdlib.h:192:   while (!*((volatile uint32_t*) UART_READY))
	beq	a4,zero,.L104	#, _8,,
# kianv_stdlib.h:194:   *((volatile uint32_t*) UART_TX) = c;
	sw	a3,0(a5)	# _9, MEM[(volatile uint32_t *)805306368B]
# kianv_stdlib.h:195:    if (c == 13) {
	beq	a3,a2,.L121	#, _9, tmp81,
# kianv_stdlib.h:209:   while (*p != 0) {
	lbu	a3,0(a0)	# _9, MEM[(char *)p_7]
# kianv_stdlib.h:209:   while (*p != 0) {
	bne	a3,zero,.L103	#, _9,,
.L102:
# kianv_stdlib.h:192:   while (!*((volatile uint32_t*) UART_READY))
	li	a4,805306368		# tmp84,
.L108:
	lw	a5,0(a4)		# _3, MEM[(volatile uint32_t *)805306368B]
# kianv_stdlib.h:192:   while (!*((volatile uint32_t*) UART_READY))
	beq	a5,zero,.L108	#, _3,,
# kianv_stdlib.h:194:   *((volatile uint32_t*) UART_TX) = c;
	li	a5,13		# tmp86,
	sw	a5,0(a4)	# tmp86, MEM[(volatile uint32_t *)805306368B]
# kianv_stdlib.h:196:     *((volatile uint32_t*) UART_TX) = 10;
	li	a5,10		# tmp88,
	sw	a5,0(a4)	# tmp88, MEM[(volatile uint32_t *)805306368B]
# kianv_stdlib.h:219: }
	ret	
.L121:
# kianv_stdlib.h:196:     *((volatile uint32_t*) UART_TX) = 10;
	sw	a1,0(a5)	# tmp89, MEM[(volatile uint32_t *)805306368B]
# kianv_stdlib.h:209:   while (*p != 0) {
	lbu	a3,0(a0)	# _9, MEM[(char *)p_7]
# kianv_stdlib.h:209:   while (*p != 0) {
	bne	a3,zero,.L103	#, _9,,
	j	.L102		#
	.size	print_str_ln, .-print_str_ln
	.align	2
	.globl	print_dec
	.type	print_dec, @function
print_dec:
	addi	sp,sp,-16	#,,
# kianv_stdlib.h:223:   char *p = buffer;
	addi	a2,sp,4	#, tmp92,
	mv	a4,a2	# p, tmp92
# kianv_stdlib.h:225:     *(p++) = val % 10;
	li	a5,10		# tmp93,
.L123:
# kianv_stdlib.h:224:   while (val || p == buffer) {
	bne	a0,zero,.L124	#, val,,
# kianv_stdlib.h:224:   while (val || p == buffer) {
	bne	a4,a2,.L131	#, p, tmp92,
.L124:
# kianv_stdlib.h:225:     *(p++) = val % 10;
	remu	a3,a0,a5	# tmp93, tmp83, val
# kianv_stdlib.h:225:     *(p++) = val % 10;
	addi	a4,a4,1	#, p, p
# kianv_stdlib.h:226:     val = val / 10;
	divu	a0,a0,a5	# tmp93, val, val
# kianv_stdlib.h:225:     *(p++) = val % 10;
	sb	a3,-1(a4)	# tmp83, MEM[(char *)p_18 + 4294967295B]
	j	.L123		#
.L131:
# kianv_stdlib.h:230:     while (!*((volatile uint32_t*) UART_READY))
	li	a3,805306368		# tmp88,
.L125:
# kianv_stdlib.h:230:     while (!*((volatile uint32_t*) UART_READY))
	lw	a5,0(a3)		# _3, MEM[(volatile uint32_t *)805306368B]
# kianv_stdlib.h:230:     while (!*((volatile uint32_t*) UART_READY))
	beq	a5,zero,.L125	#, _3,,
# kianv_stdlib.h:232:     *((volatile uint32_t*) UART_TX) = '0' + *(--p);
	lbu	a5,-1(a4)	# MEM[(char *)p_16], MEM[(char *)p_16]
# kianv_stdlib.h:232:     *((volatile uint32_t*) UART_TX) = '0' + *(--p);
	addi	a4,a4,-1	#, p, p
# kianv_stdlib.h:232:     *((volatile uint32_t*) UART_TX) = '0' + *(--p);
	addi	a5,a5,48	#, _7, MEM[(char *)p_16]
# kianv_stdlib.h:232:     *((volatile uint32_t*) UART_TX) = '0' + *(--p);
	sw	a5,0(a3)	# _7, MEM[(volatile uint32_t *)805306368B]
# kianv_stdlib.h:229:   while (p != buffer) {
	bne	a4,a2,.L125	#, p, tmp92,
# kianv_stdlib.h:234: }
	addi	sp,sp,16	#,,
	jr	ra		#
	.size	print_dec, .-print_dec
	.align	2
	.globl	print_dec64
	.type	print_dec64, @function
print_dec64:
	addi	sp,sp,-32	#,,
# kianv_stdlib.h:240:     *(p++) = val % 10;
	li	t4,-858992640		# tmp258,
# kianv_stdlib.h:238:   char *p = buffer;
	addi	t3,sp,12	#, tmp254,
# kianv_stdlib.h:240:     *(p++) = val % 10;
	li	t1,268435456		# tmp255,
	addi	a7,t4,-819	#, tmp259, tmp258
# kianv_stdlib.h:236: void print_dec64(uint64_t val) {
	mv	a4,a0	# val, tmp261
	mv	a6,a1	# val, tmp262
# kianv_stdlib.h:238:   char *p = buffer;
	mv	a2,t3	# p, tmp254
# kianv_stdlib.h:240:     *(p++) = val % 10;
	addi	t1,t1,-1	#, tmp256, tmp255
	li	t5,5		# tmp257,
	addi	t4,t4,-820	#, tmp260, tmp258
# kianv_stdlib.h:239:   while (val || p == buffer) {
	j	.L133		#
.L134:
# kianv_stdlib.h:240:     *(p++) = val % 10;
	remu	a5,a5,t5	# tmp257, tmp97, tmp94
# kianv_stdlib.h:240:     *(p++) = val % 10;
	addi	a2,a2,1	#, p, p
# kianv_stdlib.h:240:     *(p++) = val % 10;
	sub	a5,a4,a5	# tmp214, val, tmp97
	sgtu	a1,a5,a4	# tmp101, tmp214, val
	sub	a1,a6,a1	# tmp103, val, tmp101
	mul	a0,a5,t4	# tmp107, tmp214, tmp260
	mul	a1,a1,a7	# tmp104, tmp103, tmp259
	mulhu	a3,a5,a7	# tmp217, tmp214, tmp259
	add	a1,a1,a0	# tmp107, tmp110, tmp104
	mul	a5,a5,a7	# tmp114, tmp214, tmp259
	add	a1,a1,a3	# tmp217, tmp115, tmp110
	slli	a3,a1,31	#, tmp133, tmp115
# kianv_stdlib.h:241:     val = val / 10;
	srli	a6,a1,1	#, val, tmp115
# kianv_stdlib.h:240:     *(p++) = val % 10;
	srli	a5,a5,1	#, tmp224, tmp114
	or	a5,a3,a5	# tmp224, tmp224, tmp133
	slli	a0,a5,2	#, tmp228, tmp224
	add	a0,a0,a5	# tmp224, tmp230, tmp228
	slli	a0,a0,1	#, tmp232, tmp230
	sub	a0,a4,a0	# tmp234, val, tmp232
# kianv_stdlib.h:240:     *(p++) = val % 10;
	sb	a0,-1(a2)	# tmp234, MEM[(char *)p_18 + 4294967295B]
# kianv_stdlib.h:241:     val = val / 10;
	mv	a4,a5	# val, tmp224
.L133:
# kianv_stdlib.h:240:     *(p++) = val % 10;
	slli	a5,a6,4	#, tmp88, val
	srli	a3,a4,28	#, tmp208, val
	or	a3,a5,a3	# tmp208, tmp208, tmp88
	and	a3,a3,t1	# tmp256, tmp89, tmp208
	and	a5,a4,t1	# tmp256, tmp84, val
	add	a5,a5,a3	# tmp89, tmp92, tmp84
	srli	a1,a6,24	#, tmp210, val
# kianv_stdlib.h:239:   while (val || p == buffer) {
	or	a3,a4,a6	# val, val, val
# kianv_stdlib.h:240:     *(p++) = val % 10;
	add	a5,a5,a1	# tmp210, tmp94, tmp92
# kianv_stdlib.h:239:   while (val || p == buffer) {
	bne	a3,zero,.L134	#, val,,
# kianv_stdlib.h:239:   while (val || p == buffer) {
	beq	a2,t3,.L134	#, p, tmp254,
# kianv_stdlib.h:245:     while (!*((volatile uint32_t*) UART_READY))
	li	a4,805306368		# tmp202,
.L135:
# kianv_stdlib.h:245:     while (!*((volatile uint32_t*) UART_READY))
	lw	a5,0(a4)		# _3, MEM[(volatile uint32_t *)805306368B]
# kianv_stdlib.h:245:     while (!*((volatile uint32_t*) UART_READY))
	beq	a5,zero,.L135	#, _3,,
# kianv_stdlib.h:247:     *((volatile uint32_t*) UART_TX) = '0' + *(--p);
	lbu	a5,-1(a2)	# MEM[(char *)p_16], MEM[(char *)p_16]
# kianv_stdlib.h:247:     *((volatile uint32_t*) UART_TX) = '0' + *(--p);
	addi	a2,a2,-1	#, p, p
# kianv_stdlib.h:247:     *((volatile uint32_t*) UART_TX) = '0' + *(--p);
	addi	a5,a5,48	#, _7, MEM[(char *)p_16]
# kianv_stdlib.h:247:     *((volatile uint32_t*) UART_TX) = '0' + *(--p);
	sw	a5,0(a4)	# _7, MEM[(volatile uint32_t *)805306368B]
# kianv_stdlib.h:244:   while (p != buffer) {
	bne	a2,t3,.L135	#, p, tmp254,
# kianv_stdlib.h:249: }
	addi	sp,sp,32	#,,
	jr	ra		#
	.size	print_dec64, .-print_dec64
	.section	.rodata.str1.4,"aMS",@progbits,1
	.align	2
.LC0:
	.string	"0123456789ABCDEF"
	.text
	.align	2
	.globl	print_hex
	.type	print_hex, @function
print_hex:
# kianv_stdlib.h:252:   for (int i = (4*digits)-4; i >= 0; i -= 4) {
	addi	a3,a1,-1	#, tmp85, tmp98
# kianv_stdlib.h:252:   for (int i = (4*digits)-4; i >= 0; i -= 4) {
	slli	a3,a3,2	#, i, tmp85
# kianv_stdlib.h:252:   for (int i = (4*digits)-4; i >= 0; i -= 4) {
	blt	a3,zero,.L141	#, i,,
	lui	a2,%hi(.LC0)	# tmp95,
	li	a1,-4		# _8,
	addi	a2,a2,%lo(.LC0)	# tmp94, tmp95,
# kianv_stdlib.h:253:     while (!*((volatile uint32_t*) UART_READY))
	li	a4,805306368		# tmp87,
.L143:
# kianv_stdlib.h:253:     while (!*((volatile uint32_t*) UART_READY))
	lw	a5,0(a4)		# _2, MEM[(volatile uint32_t *)805306368B]
# kianv_stdlib.h:253:     while (!*((volatile uint32_t*) UART_READY))
	beq	a5,zero,.L143	#, _2,,
# kianv_stdlib.h:255:     *((volatile uint32_t*) UART_TX) = "0123456789ABCDEF"[(val >> i) % 16];
	srl	a5,a0,a3	# i, tmp90, val
# kianv_stdlib.h:255:     *((volatile uint32_t*) UART_TX) = "0123456789ABCDEF"[(val >> i) % 16];
	andi	a5,a5,15	#, tmp91, tmp90
# kianv_stdlib.h:255:     *((volatile uint32_t*) UART_TX) = "0123456789ABCDEF"[(val >> i) % 16];
	add	a5,a2,a5	# tmp91, tmp92, tmp94
	lbu	a5,0(a5)	# _6, "0123456789ABCDEF"[_4]
# kianv_stdlib.h:252:   for (int i = (4*digits)-4; i >= 0; i -= 4) {
	addi	a3,a3,-4	#, i, i
# kianv_stdlib.h:255:     *((volatile uint32_t*) UART_TX) = "0123456789ABCDEF"[(val >> i) % 16];
	sw	a5,0(a4)	# _6, MEM[(volatile uint32_t *)805306368B]
# kianv_stdlib.h:252:   for (int i = (4*digits)-4; i >= 0; i -= 4) {
	bne	a1,a3,.L143	#, _8, i,
.L141:
# kianv_stdlib.h:257: }
	ret	
	.size	print_hex, .-print_hex
	.align	2
	.globl	setpixel
	.type	setpixel, @function
setpixel:
# kianv_stdlib.h:271: *((volatile uint32_t*) VIDEO) = (((uint32_t) color & 0xffff) << 16Ul) | ((x & 0xff) << 8) | (y & 0xff);
	li	a5,65536		# tmp88,
	addi	a5,a5,-1	#, tmp87, tmp88
	slli	a1,a1,8	#, tmp85, tmp94
	and	a1,a1,a5	# tmp87, tmp86, tmp85
# kianv_stdlib.h:271: *((volatile uint32_t*) VIDEO) = (((uint32_t) color & 0xffff) << 16Ul) | ((x & 0xff) << 8) | (y & 0xff);
	slli	a3,a3,16	#, tmp89, tmp96
# kianv_stdlib.h:271: *((volatile uint32_t*) VIDEO) = (((uint32_t) color & 0xffff) << 16Ul) | ((x & 0xff) << 8) | (y & 0xff);
	or	a1,a1,a3	# tmp89, tmp90, tmp86
# kianv_stdlib.h:271: *((volatile uint32_t*) VIDEO) = (((uint32_t) color & 0xffff) << 16Ul) | ((x & 0xff) << 8) | (y & 0xff);
	andi	a2,a2,0xff	# tmp91, tmp95
# kianv_stdlib.h:271: *((volatile uint32_t*) VIDEO) = (((uint32_t) color & 0xffff) << 16Ul) | ((x & 0xff) << 8) | (y & 0xff);
	or	a1,a1,a2	# tmp91, _9, tmp90
# kianv_stdlib.h:271: *((volatile uint32_t*) VIDEO) = (((uint32_t) color & 0xffff) << 16Ul) | ((x & 0xff) << 8) | (y & 0xff);
	li	a5,805306368		# tmp93,
	sw	a1,8(a5)	# _9, MEM[(volatile uint32_t *)805306376B]
# kianv_stdlib.h:272: }
	ret	
	.size	setpixel, .-setpixel
	.align	2
	.globl	draw_bresenham
	.type	draw_bresenham, @function
draw_bresenham:
	addi	sp,sp,-32	#,,
# kianv_stdlib.h:277:   int dx =  abs(x1 - x0);
	sub	a0,a3,a1	#, x1, x0
# kianv_stdlib.h:275: {
	sw	ra,28(sp)	#,
	sw	s0,24(sp)	#,
	sw	s1,20(sp)	#,
	mv	s0,a1	# x0, tmp114
	mv	s1,a2	# y0, tmp115
	sw	s2,16(sp)	#,
	sw	s3,12(sp)	#,
	sw	s4,8(sp)	#,
	mv	s3,a5	# color, tmp118
	mv	s4,a3	# x1, tmp116
	sw	s5,4(sp)	#,
	sw	s6,0(sp)	#,
# kianv_stdlib.h:275: {
	mv	s6,a4	# y1, tmp117
# kianv_stdlib.h:277:   int dx =  abs(x1 - x0);
	call	abs		#
	mv	s2,a0	# tmp119,
# kianv_stdlib.h:279:   int dy = -abs(y1 - y0);
	sub	a0,s6,s1	#, y1, y0
	call	abs		#
# kianv_stdlib.h:278:   int sx = x0 < x1 ? 1 : -1;
	sgt	s5,s4,s0	# tmp109, x1, x0
# kianv_stdlib.h:280:   int sy = y0 < y1 ? 1 : -1;
	sgt	t5,s6,s1	# tmp112, y1, y0
# kianv_stdlib.h:278:   int sx = x0 < x1 ? 1 : -1;
	slli	s5,s5,1	#, iftmp.6_9, tmp109
# kianv_stdlib.h:280:   int sy = y0 < y1 ? 1 : -1;
	slli	t5,t5,1	#, iftmp.7_10, tmp112
# kianv_stdlib.h:271: *((volatile uint32_t*) VIDEO) = (((uint32_t) color & 0xffff) << 16Ul) | ((x & 0xff) << 8) | (y & 0xff);
	li	a3,65536		# tmp103,
# kianv_stdlib.h:278:   int sx = x0 < x1 ? 1 : -1;
	addi	s5,s5,-1	#, iftmp.6_9, iftmp.6_9
# kianv_stdlib.h:279:   int dy = -abs(y1 - y0);
	neg	t4,a0	# dy, _3
# kianv_stdlib.h:280:   int sy = y0 < y1 ? 1 : -1;
	addi	t5,t5,-1	#, iftmp.7_10, iftmp.7_10
	sub	a6,s2,a0	# err, dx, _3
# kianv_stdlib.h:271: *((volatile uint32_t*) VIDEO) = (((uint32_t) color & 0xffff) << 16Ul) | ((x & 0xff) << 8) | (y & 0xff);
	slli	t1,s3,16	#, _33, color
	andi	a7,s1,255	#, tmp106, y0
	slli	a1,s0,8	#, tmp107, x0
# kianv_stdlib.h:271: *((volatile uint32_t*) VIDEO) = (((uint32_t) color & 0xffff) << 16Ul) | ((x & 0xff) << 8) | (y & 0xff);
	addi	a3,a3,-1	#, tmp102, tmp103
# kianv_stdlib.h:271: *((volatile uint32_t*) VIDEO) = (((uint32_t) color & 0xffff) << 16Ul) | ((x & 0xff) << 8) | (y & 0xff);
	li	t3,805306368		# tmp105,
.L152:
# kianv_stdlib.h:271: *((volatile uint32_t*) VIDEO) = (((uint32_t) color & 0xffff) << 16Ul) | ((x & 0xff) << 8) | (y & 0xff);
	or	a5,a7,t1	# _33, tmp99, tmp106
# kianv_stdlib.h:271: *((volatile uint32_t*) VIDEO) = (((uint32_t) color & 0xffff) << 16Ul) | ((x & 0xff) << 8) | (y & 0xff);
	and	a2,a1,a3	# tmp102, tmp101, tmp107
# kianv_stdlib.h:271: *((volatile uint32_t*) VIDEO) = (((uint32_t) color & 0xffff) << 16Ul) | ((x & 0xff) << 8) | (y & 0xff);
	or	a5,a5,a2	# tmp101, _40, tmp99
# kianv_stdlib.h:271: *((volatile uint32_t*) VIDEO) = (((uint32_t) color & 0xffff) << 16Ul) | ((x & 0xff) << 8) | (y & 0xff);
	sw	a5,8(t3)	# _40, MEM[(volatile uint32_t *)805306376B]
# kianv_stdlib.h:286:     e2 = 2*err;
	slli	a5,a6,1	#, e2, err
# kianv_stdlib.h:285:     if (x0 == x1 && y0 == y1) break;
	beq	s0,s4,.L160	#, x0, x1,
.L153:
# kianv_stdlib.h:287:     if (e2 >= dy) { err += dy; x0 += sx; } /* e_xy+e_x > 0 */
	bgt	t4,a5,.L155	#, dy, e2,
# kianv_stdlib.h:287:     if (e2 >= dy) { err += dy; x0 += sx; } /* e_xy+e_x > 0 */
	add	s0,s0,s5	# iftmp.6_9, x0, x0
	sub	a6,a6,a0	# err, err, _3
	slli	a1,s0,8	#, tmp107, x0
.L155:
# kianv_stdlib.h:288:     if (e2 <= dx) { err += dx; y0 += sy; } /* e_xy+e_y < 0 */
	blt	s2,a5,.L152	#, dx, e2,
# kianv_stdlib.h:288:     if (e2 <= dx) { err += dx; y0 += sy; } /* e_xy+e_y < 0 */
	add	s1,s1,t5	# iftmp.7_10, y0, y0
	andi	a7,s1,255	#, tmp106, y0
# kianv_stdlib.h:271: *((volatile uint32_t*) VIDEO) = (((uint32_t) color & 0xffff) << 16Ul) | ((x & 0xff) << 8) | (y & 0xff);
	or	a5,a7,t1	# _33, tmp99, tmp106
# kianv_stdlib.h:271: *((volatile uint32_t*) VIDEO) = (((uint32_t) color & 0xffff) << 16Ul) | ((x & 0xff) << 8) | (y & 0xff);
	and	a2,a1,a3	# tmp102, tmp101, tmp107
# kianv_stdlib.h:271: *((volatile uint32_t*) VIDEO) = (((uint32_t) color & 0xffff) << 16Ul) | ((x & 0xff) << 8) | (y & 0xff);
	or	a5,a5,a2	# tmp101, _40, tmp99
# kianv_stdlib.h:288:     if (e2 <= dx) { err += dx; y0 += sy; } /* e_xy+e_y < 0 */
	add	a6,a6,s2	# dx, err, err
# kianv_stdlib.h:271: *((volatile uint32_t*) VIDEO) = (((uint32_t) color & 0xffff) << 16Ul) | ((x & 0xff) << 8) | (y & 0xff);
	sw	a5,8(t3)	# _40, MEM[(volatile uint32_t *)805306376B]
# kianv_stdlib.h:286:     e2 = 2*err;
	slli	a5,a6,1	#, e2, err
# kianv_stdlib.h:285:     if (x0 == x1 && y0 == y1) break;
	bne	s0,s4,.L153	#, x0, x1,
.L160:
# kianv_stdlib.h:285:     if (x0 == x1 && y0 == y1) break;
	bne	s1,s6,.L153	#, y0, y1,
# kianv_stdlib.h:290: }
	lw	ra,28(sp)		#,
	lw	s0,24(sp)		#,
	lw	s1,20(sp)		#,
	lw	s2,16(sp)		#,
	lw	s3,12(sp)		#,
	lw	s4,8(sp)		#,
	lw	s5,4(sp)		#,
	lw	s6,0(sp)		#,
	addi	sp,sp,32	#,,
	jr	ra		#
	.size	draw_bresenham, .-draw_bresenham
	.align	2
	.globl	time
	.type	time, @function
time:
# stdlib.c:33: 	asm volatile ("rdcycle %0" : "=r"(cycles));
 #APP
# 33 "stdlib.c" 1
	rdcycle a0	# cycles
# 0 "" 2
# stdlib.c:36: }
 #NO_APP
	ret	
	.size	time, .-time
	.align	2
	.globl	insn
	.type	insn, @function
insn:
# stdlib.c:41: 	asm volatile ("rdinstret %0" : "=r"(insns));
 #APP
# 41 "stdlib.c" 1
	rdinstret a0	# insns
# 0 "" 2
# stdlib.c:44: }
 #NO_APP
	ret	
	.size	insn, .-insn
	.align	2
	.globl	printf
	.type	printf, @function
printf:
	addi	sp,sp,-96	#,,
	sw	s0,60(sp)	#,
# stdlib.c:96: 	for (i = 0; format[i]; i++)
	lbu	t1,0(a0)	# _14, *format_22(D)
# stdlib.c:90: {
	sw	a5,84(sp)	#,
# stdlib.c:94: 	va_start(ap, format);
	addi	a5,sp,68	#, tmp119,
# stdlib.c:90: {
	sw	a1,68(sp)	#,
	sw	a2,72(sp)	#,
	sw	a3,76(sp)	#,
	sw	a4,80(sp)	#,
	sw	a6,88(sp)	#,
	sw	a7,92(sp)	#,
# stdlib.c:94: 	va_start(ap, format);
	sw	a5,12(sp)	# tmp119, MEM[(void * *)&ap]
# stdlib.c:96: 	for (i = 0; format[i]; i++)
	beq	t1,zero,.L164	#, _14,,
# stdlib.c:96: 	for (i = 0; format[i]; i++)
	li	a3,0		# i,
# stdlib.c:97: 		if (format[i] == '%') {
	li	t2,37		# tmp120,
# stdlib.c:99: 				if (format[i] == 'c') {
	li	a7,99		# tmp205,
# stdlib.c:103: 				if (format[i] == 's') {
	li	t3,115		# tmp206,
# stdlib.c:107: 				if (format[i] == 'd') {
	li	t4,100		# tmp207,
# stdlib.c:111: 				if (format[i] == 'u') {
	li	t5,117		# tmp208,
# stdlib.c:78: 	char *p = buffer;
	addi	t6,sp,16	#, tmp213,
# stdlib.c:82: 		*(p++) = '0' + val % 10;
	li	a1,10		# tmp214,
# kianv_stdlib.h:192:   while (!*((volatile uint32_t*) UART_READY))
	li	a5,805306368		# tmp215,
# kianv_stdlib.h:195:    if (c == 13) {
	li	t0,13		# tmp216,
# kianv_stdlib.h:194:   *((volatile uint32_t*) UART_TX) = c;
	li	s0,45		# tmp218,
.L189:
# stdlib.c:97: 		if (format[i] == '%') {
	beq	t1,t2,.L165	#, _14, tmp120,
.L166:
# kianv_stdlib.h:192:   while (!*((volatile uint32_t*) UART_READY))
	lw	a4,0(a5)		# _42, MEM[(volatile uint32_t *)805306368B]
# kianv_stdlib.h:192:   while (!*((volatile uint32_t*) UART_READY))
	beq	a4,zero,.L166	#, _42,,
# kianv_stdlib.h:194:   *((volatile uint32_t*) UART_TX) = c;
	sw	t1,0(a5)	# _14, MEM[(volatile uint32_t *)805306368B]
# kianv_stdlib.h:195:    if (c == 13) {
	beq	t1,t0,.L218	#, _14, tmp216,
.L169:
# stdlib.c:96: 	for (i = 0; format[i]; i++)
	addi	a3,a3,1	#, i, i
# stdlib.c:96: 	for (i = 0; format[i]; i++)
	add	a4,a0,a3	# i, tmp193, format
	lbu	t1,0(a4)	# _14, *_13
# stdlib.c:96: 	for (i = 0; format[i]; i++)
	bne	t1,zero,.L189	#, _14,,
.L164:
# stdlib.c:121: }
	lw	s0,60(sp)		#,
	li	a0,0		#,
	addi	sp,sp,96	#,,
	jr	ra		#
.L188:
# stdlib.c:99: 				if (format[i] == 'c') {
	beq	a4,a7,.L219	#, _10, tmp205,
# stdlib.c:103: 				if (format[i] == 's') {
	beq	a4,t3,.L220	#, _10, tmp206,
# stdlib.c:107: 				if (format[i] == 'd') {
	beq	a4,t4,.L221	#, _10, tmp207,
# stdlib.c:111: 				if (format[i] == 'u') {
	beq	a4,t5,.L222	#, _10, tmp208,
.L165:
# stdlib.c:98: 			while (format[++i]) {
	addi	a3,a3,1	#, i, i
# stdlib.c:98: 			while (format[++i]) {
	add	a4,a0,a3	# i, tmp187, format
	lbu	a4,0(a4)	# _10, MEM[(const char *)_131]
# stdlib.c:98: 			while (format[++i]) {
	bne	a4,zero,.L188	#, _10,,
	j	.L169		#
.L219:
# stdlib.c:100: 					printf_c(va_arg(ap,int));
	lw	a4,12(sp)		# D.2434, ap
	lw	a2,0(a4)		# _4, MEM[(int *)_121]
	addi	a4,a4,4	#, D.2435, D.2434
	sw	a4,12(sp)	# D.2435, ap
# stdlib.c:49:     print_chr(c);
	andi	a6,a2,0xff	# _33, _4
.L168:
# kianv_stdlib.h:192:   while (!*((volatile uint32_t*) UART_READY))
	lw	a4,0(a5)		# _34, MEM[(volatile uint32_t *)805306368B]
# kianv_stdlib.h:192:   while (!*((volatile uint32_t*) UART_READY))
	beq	a4,zero,.L168	#, _34,,
# kianv_stdlib.h:194:   *((volatile uint32_t*) UART_TX) = c;
	andi	a2,a2,255	#, _36, _4
	sw	a2,0(a5)	# _36, MEM[(volatile uint32_t *)805306368B]
# kianv_stdlib.h:195:    if (c == 13) {
	bne	a6,t0,.L169	#, _33, tmp216,
.L218:
# kianv_stdlib.h:196:     *((volatile uint32_t*) UART_TX) = 10;
	sw	a1,0(a5)	# tmp214,
	j	.L169		#
.L220:
# stdlib.c:104: 					printf_s(va_arg(ap,char*));
	lw	a4,12(sp)		# D.2436, ap
	lw	a6,0(a4)		# p, MEM[(char * *)_87]
	addi	a4,a4,4	#, D.2437, D.2436
	sw	a4,12(sp)	# D.2437, ap
.L217:
# stdlib.c:54: 	while (*p)
	lbu	a2,0(a6)	# _40,* p
	beq	a2,zero,.L169	#, _40,,
.L174:
# stdlib.c:56:     print_chr(*(p++));
	addi	a6,a6,1	#, p, p
.L171:
# kianv_stdlib.h:192:   while (!*((volatile uint32_t*) UART_READY))
	lw	a4,0(a5)		# _39, MEM[(volatile uint32_t *)805306368B]
# kianv_stdlib.h:192:   while (!*((volatile uint32_t*) UART_READY))
	beq	a4,zero,.L171	#, _39,,
# kianv_stdlib.h:194:   *((volatile uint32_t*) UART_TX) = c;
	sw	a2,0(a5)	# _40, MEM[(volatile uint32_t *)805306368B]
# kianv_stdlib.h:195:    if (c == 13) {
	bne	a2,t0,.L217	#, _40, tmp216,
# kianv_stdlib.h:196:     *((volatile uint32_t*) UART_TX) = 10;
	sw	a1,0(a5)	# tmp214, MEM[(volatile uint32_t *)805306368B]
# stdlib.c:54: 	while (*p)
	lbu	a2,0(a6)	# _40,* p
	bne	a2,zero,.L174	#, _40,,
	j	.L169		#
.L221:
# stdlib.c:108: 					printf_d(va_arg(ap,int));
	lw	a2,12(sp)		# D.2438, ap
	lw	a4,0(a2)		# val, MEM[(int *)_122]
	addi	a2,a2,4	#, D.2439, D.2438
	sw	a2,12(sp)	# D.2439, ap
# stdlib.c:63: 	if (val < 0) {
	blt	a4,zero,.L177	#, val,,
# stdlib.c:96: 	for (i = 0; format[i]; i++)
	mv	a2,t6	# p, tmp213
.L178:
# stdlib.c:67: 	while (val || p == buffer) {
	bne	a4,zero,.L179	#, val,,
	bne	a2,t6,.L182	#, p, tmp213,
.L179:
# stdlib.c:68: 		*(p++) = '0' + val % 10;
	rem	a6,a4,a1	# tmp214, tmp145, val
# stdlib.c:68: 		*(p++) = '0' + val % 10;
	addi	a2,a2,1	#, p, p
# stdlib.c:68: 		*(p++) = '0' + val % 10;
	addi	a6,a6,48	#, tmp147, tmp145
# stdlib.c:69: 		val = val / 10;
	div	a4,a4,a1	# tmp214, val, val
# stdlib.c:68: 		*(p++) = '0' + val % 10;
	sb	a6,-1(a2)	# tmp147, MEM[(char *)p_59 + 4294967295B]
	j	.L178		#
.L177:
# kianv_stdlib.h:192:   while (!*((volatile uint32_t*) UART_READY))
	lw	a2,0(a5)		# _53, MEM[(volatile uint32_t *)805306368B]
# kianv_stdlib.h:192:   while (!*((volatile uint32_t*) UART_READY))
	beq	a2,zero,.L177	#, _53,,
# kianv_stdlib.h:194:   *((volatile uint32_t*) UART_TX) = c;
	sw	s0,0(a5)	# tmp218, MEM[(volatile uint32_t *)805306368B]
# stdlib.c:65: 		val = -val;
	neg	a4,a4	# val, val
# stdlib.c:96: 	for (i = 0; format[i]; i++)
	mv	a2,t6	# p, tmp213
	j	.L178		#
.L224:
# kianv_stdlib.h:194:   *((volatile uint32_t*) UART_TX) = c;
	sw	a6,0(a5)	# _64, MEM[(volatile uint32_t *)805306368B]
# kianv_stdlib.h:195:    if (c == 13) {
	beq	a6,t0,.L223	#, _64, tmp216,
# stdlib.c:71: 	while (p != buffer)
	beq	a2,t6,.L169	#, p, tmp213,
.L182:
# stdlib.c:72: 		printf_c(*(--p));
	lbu	a6,-1(a2)	# _64, MEM[(char *)p_63]
# stdlib.c:72: 		printf_c(*(--p));
	addi	a2,a2,-1	#, p, p
.L180:
# kianv_stdlib.h:192:   while (!*((volatile uint32_t*) UART_READY))
	lw	a4,0(a5)		# _65, MEM[(volatile uint32_t *)805306368B]
# kianv_stdlib.h:192:   while (!*((volatile uint32_t*) UART_READY))
	beq	a4,zero,.L180	#, _65,,
	j	.L224		#
.L223:
# kianv_stdlib.h:196:     *((volatile uint32_t*) UART_TX) = 10;
	sw	a1,0(a5)	# tmp214, MEM[(volatile uint32_t *)805306368B]
# stdlib.c:71: 	while (p != buffer)
	bne	a2,t6,.L182	#, p, tmp213,
	j	.L169		#
.L222:
# stdlib.c:112: 					printf_u(va_arg(ap,int));
	lw	a6,12(sp)		# D.2440, ap
# stdlib.c:78: 	char *p = buffer;
	mv	a2,t6	# p, tmp213
# stdlib.c:80:   val = val >= 0 ? val : -val;
	lw	a4,0(a6)		# MEM[(int *)_125], MEM[(int *)_125]
# stdlib.c:112: 					printf_u(va_arg(ap,int));
	addi	a6,a6,4	#, D.2441, D.2440
	sw	a6,12(sp)	# D.2441, ap
# stdlib.c:80:   val = val >= 0 ? val : -val;
	srai	a6,a4,31	#, tmp163, MEM[(int *)_125]
	xor	a4,a6,a4	# MEM[(int *)_125], val, tmp163
	sub	a4,a4,a6	# val, val, tmp163
.L183:
# stdlib.c:81: 	while (val || p == buffer) {
	bne	a4,zero,.L184	#, val,,
	bne	a2,t6,.L187	#, p, tmp213,
.L184:
# stdlib.c:82: 		*(p++) = '0' + val % 10;
	rem	a6,a4,a1	# tmp214, tmp171, val
# stdlib.c:82: 		*(p++) = '0' + val % 10;
	addi	a2,a2,1	#, p, p
# stdlib.c:82: 		*(p++) = '0' + val % 10;
	addi	a6,a6,48	#, tmp173, tmp171
# stdlib.c:83: 		val = val / 10;
	div	a4,a4,a1	# tmp214, val, val
# stdlib.c:82: 		*(p++) = '0' + val % 10;
	sb	a6,-1(a2)	# tmp173, MEM[(char *)p_75 + 4294967295B]
	j	.L183		#
.L226:
# kianv_stdlib.h:194:   *((volatile uint32_t*) UART_TX) = c;
	sw	a6,0(a5)	# _80, MEM[(volatile uint32_t *)805306368B]
# kianv_stdlib.h:195:    if (c == 13) {
	beq	a6,t0,.L225	#, _80, tmp216,
# stdlib.c:85: 	while (p != buffer)
	beq	a2,t6,.L169	#, p, tmp213,
.L187:
# stdlib.c:86: 		printf_c(*(--p));
	lbu	a6,-1(a2)	# _80, MEM[(char *)p_79]
# stdlib.c:86: 		printf_c(*(--p));
	addi	a2,a2,-1	#, p, p
.L185:
# kianv_stdlib.h:192:   while (!*((volatile uint32_t*) UART_READY))
	lw	a4,0(a5)		# _81, MEM[(volatile uint32_t *)805306368B]
# kianv_stdlib.h:192:   while (!*((volatile uint32_t*) UART_READY))
	beq	a4,zero,.L185	#, _81,,
	j	.L226		#
.L225:
# kianv_stdlib.h:196:     *((volatile uint32_t*) UART_TX) = 10;
	sw	a1,0(a5)	# tmp214, MEM[(volatile uint32_t *)805306368B]
# stdlib.c:85: 	while (p != buffer)
	bne	a2,t6,.L187	#, p, tmp213,
	j	.L169		#
	.size	printf, .-printf
	.align	2
	.globl	malloc
	.type	malloc, @function
malloc:
# stdlib.c:126: 	char *p = heap_memory + heap_memory_used;
	lui	a3,%hi(heap_memory_used)	# tmp77,
	lw	a4,%lo(heap_memory_used)(a3)		# heap_memory_used.19_1, heap_memory_used
# stdlib.c:128: 	heap_memory_used += size;
	add	a5,a4,a0	# tmp83, _3, heap_memory_used.19_1
# stdlib.c:126: 	char *p = heap_memory + heap_memory_used;
	lui	a0,%hi(.LANCHOR0)	# tmp79,
# stdlib.c:128: 	heap_memory_used += size;
	sw	a5,%lo(heap_memory_used)(a3)	# _3, heap_memory_used
# stdlib.c:126: 	char *p = heap_memory + heap_memory_used;
	addi	a0,a0,%lo(.LANCHOR0)	# tmp78, tmp79,
# stdlib.c:129: 	if (heap_memory_used > 1024)
	li	a3,1024		# tmp81,
# stdlib.c:126: 	char *p = heap_memory + heap_memory_used;
	add	a0,a0,a4	# heap_memory_used.19_1, <retval>, tmp78
# stdlib.c:129: 	if (heap_memory_used > 1024)
	ble	a5,a3,.L227	#, _3, tmp81,
# stdlib.c:130: 		asm volatile ("ebreak");
 #APP
# 130 "stdlib.c" 1
	ebreak
# 0 "" 2
 #NO_APP
.L227:
# stdlib.c:132: }
	ret	
	.size	malloc, .-malloc
	.align	2
	.globl	memcpy
	.type	memcpy, @function
memcpy:
# stdlib.c:140: 	while (n--) *(a++) = *(b++);
	addi	a7,a2,-1	#, n, n
# stdlib.c:140: 	while (n--) *(a++) = *(b++);
	beq	a2,zero,.L230	#, n,,
	addi	a4,a1,1	#, bb, bb
	sub	a5,a0,a4	# tmp111, aa, bb
	sltiu	a5,a5,3	#, tmp114, tmp111
	sltiu	a3,a7,7	#, tmp117, n
	xori	a5,a5,1	#, tmp113, tmp114
	xori	a3,a3,1	#, tmp116, tmp117
	and	a5,a5,a3	# tmp116, tmp120, tmp113
	beq	a5,zero,.L231	#, tmp120,,
	or	a5,a0,a1	# bb, tmp121, aa
	andi	a5,a5,3	#, tmp122, tmp121
	bne	a5,zero,.L231	#, tmp122,,
	andi	a6,a2,-4	#, tmp127, n
	mv	a5,a1	# ivtmp.273, bb
	mv	a4,a0	# ivtmp.276, aa
	add	a6,a6,a1	# bb, _77, tmp127
.L232:
# stdlib.c:140: 	while (n--) *(a++) = *(b++);
	lw	a3,0(a5)		# vect__1.259, MEM <const vector(4) char> [(const char *)_43]
	addi	a5,a5,4	#, ivtmp.273, ivtmp.273
	addi	a4,a4,4	#, ivtmp.276, ivtmp.276
# stdlib.c:140: 	while (n--) *(a++) = *(b++);
	sw	a3,-4(a4)	# vect__1.259, MEM <vector(4) char> [(char *)_45]
	bne	a5,a6,.L232	#, ivtmp.273, _77,
	andi	a5,a2,-4	#, niters_vector_mult_vf.253, n
	add	a4,a0,a5	# niters_vector_mult_vf.253, tmp.254, aa
	add	a1,a1,a5	# niters_vector_mult_vf.253, tmp.255, bb
	sub	a7,a7,a5	# tmp.256, n, niters_vector_mult_vf.253
	beq	a2,a5,.L230	#, n, niters_vector_mult_vf.253,
# stdlib.c:140: 	while (n--) *(a++) = *(b++);
	lbu	a5,0(a1)	# _10, *tmp.255_55
# stdlib.c:140: 	while (n--) *(a++) = *(b++);
	sb	a5,0(a4)	# _10, *tmp.254_54
# stdlib.c:140: 	while (n--) *(a++) = *(b++);
	beq	a7,zero,.L230	#, tmp.256,,
# stdlib.c:140: 	while (n--) *(a++) = *(b++);
	lbu	a3,1(a1)	# _72, MEM[(const char *)tmp.255_55 + 1B]
# stdlib.c:140: 	while (n--) *(a++) = *(b++);
	li	a5,1		# tmp128,
# stdlib.c:140: 	while (n--) *(a++) = *(b++);
	sb	a3,1(a4)	# _72, MEM[(char *)tmp.254_54 + 1B]
# stdlib.c:140: 	while (n--) *(a++) = *(b++);
	beq	a7,a5,.L230	#, tmp.256, tmp128,
# stdlib.c:140: 	while (n--) *(a++) = *(b++);
	lbu	a5,2(a1)	# _48, MEM[(const char *)tmp.255_55 + 2B]
# stdlib.c:140: 	while (n--) *(a++) = *(b++);
	sb	a5,2(a4)	# _48, MEM[(char *)tmp.254_54 + 2B]
	ret	
.L231:
	add	a2,a0,a2	# n, _23, aa
# stdlib.c:138: 	char *a = (char *) aa;
	mv	a5,a0	# a, aa
.L234:
# stdlib.c:140: 	while (n--) *(a++) = *(b++);
	lbu	a3,-1(a4)	# _37, MEM[(const char *)b_35 + 4294967295B]
# stdlib.c:140: 	while (n--) *(a++) = *(b++);
	addi	a5,a5,1	#, a, a
	addi	a4,a4,1	#, bb, bb
# stdlib.c:140: 	while (n--) *(a++) = *(b++);
	sb	a3,-1(a5)	# _37, MEM[(char *)a_36 + 4294967295B]
# stdlib.c:140: 	while (n--) *(a++) = *(b++);
	bne	a2,a5,.L234	#, _23, a,
.L230:
# stdlib.c:142: }
	ret	
	.size	memcpy, .-memcpy
	.align	2
	.globl	strcpy
	.type	strcpy, @function
strcpy:
# stdlib.c:148: 	while ((((uint32_t)dst | (uint32_t)src) & 3) != 0)
	mv	a5,a0	# dst, dst
	j	.L251		#
.L253:
# stdlib.c:150: 		char c = *(src++);
	lbu	a4,0(a1)	# c, MEM[(const char *)src_40 + 4294967295B]
# stdlib.c:151: 		*(dst++) = c;
	addi	a5,a5,1	#, dst, dst
# stdlib.c:150: 		char c = *(src++);
	addi	a1,a1,1	#, src, src
# stdlib.c:151: 		*(dst++) = c;
	sb	a4,-1(a5)	# c, MEM[(char *)dst_42 + 4294967295B]
# stdlib.c:152: 		if (!c) return r;
	beq	a4,zero,.L255	#, c,,
.L251:
# stdlib.c:148: 	while ((((uint32_t)dst | (uint32_t)src) & 3) != 0)
	or	a4,a5,a1	# src, tmp101, dst
# stdlib.c:148: 	while ((((uint32_t)dst | (uint32_t)src) & 3) != 0)
	andi	a4,a4,3	#, tmp102, tmp101
# stdlib.c:148: 	while ((((uint32_t)dst | (uint32_t)src) & 3) != 0)
	bne	a4,zero,.L253	#, tmp102,,
# stdlib.c:157: 		uint32_t v = *(uint32_t*)src;
	lw	a3,0(a1)		# v, MEM[(uint32_t *)src_20]
# stdlib.c:159: 		if (__builtin_expect((((v) - 0x01010101UL) & ~(v) & 0x80808080UL), 0))
	li	a7,-16842752		# tmp105,
	addi	a7,a7,-257	#, tmp104, tmp105
	add	a4,a3,a7	# tmp104, tmp103, v
# stdlib.c:159: 		if (__builtin_expect((((v) - 0x01010101UL) & ~(v) & 0x80808080UL), 0))
	not	a2,a3	# tmp106, v
# stdlib.c:159: 		if (__builtin_expect((((v) - 0x01010101UL) & ~(v) & 0x80808080UL), 0))
	li	a6,-2139062272		# tmp110,
# stdlib.c:159: 		if (__builtin_expect((((v) - 0x01010101UL) & ~(v) & 0x80808080UL), 0))
	and	a4,a4,a2	# tmp106, tmp107, tmp103
# stdlib.c:159: 		if (__builtin_expect((((v) - 0x01010101UL) & ~(v) & 0x80808080UL), 0))
	addi	a6,a6,128	#, tmp109, tmp110
	and	a4,a4,a6	# tmp109, tmp108, tmp107
# stdlib.c:159: 		if (__builtin_expect((((v) - 0x01010101UL) & ~(v) & 0x80808080UL), 0))
	bne	a4,zero,.L256	#, tmp108,,
.L254:
# stdlib.c:180: 		*(uint32_t*)dst = v;
	sw	a3,0(a5)	# v, MEM[(uint32_t *)dst_51]
# stdlib.c:157: 		uint32_t v = *(uint32_t*)src;
	lw	a3,4(a1)		# v, MEM[(uint32_t *)src_31]
# stdlib.c:182: 		dst += 4;
	addi	a5,a5,4	#, dst, dst
# stdlib.c:181: 		src += 4;
	addi	a1,a1,4	#, src, src
# stdlib.c:159: 		if (__builtin_expect((((v) - 0x01010101UL) & ~(v) & 0x80808080UL), 0))
	add	a4,a3,a7	# tmp104, tmp115, v
# stdlib.c:159: 		if (__builtin_expect((((v) - 0x01010101UL) & ~(v) & 0x80808080UL), 0))
	not	a2,a3	# tmp118, v
# stdlib.c:159: 		if (__builtin_expect((((v) - 0x01010101UL) & ~(v) & 0x80808080UL), 0))
	and	a4,a4,a2	# tmp118, tmp119, tmp115
# stdlib.c:159: 		if (__builtin_expect((((v) - 0x01010101UL) & ~(v) & 0x80808080UL), 0))
	and	a4,a4,a6	# tmp109, tmp120, tmp119
# stdlib.c:159: 		if (__builtin_expect((((v) - 0x01010101UL) & ~(v) & 0x80808080UL), 0))
	beq	a4,zero,.L254	#, tmp120,,
.L256:
# stdlib.c:161: 			dst[0] = v & 0xff;
	sb	a3,0(a5)	# v, *dst_50
# stdlib.c:162: 			if ((v & 0xff) == 0)
	andi	a4,a3,255	#, tmp111, v
# stdlib.c:162: 			if ((v & 0xff) == 0)
	beq	a4,zero,.L255	#, tmp111,,
# stdlib.c:164: 			v = v >> 8;
	srli	a4,a3,8	#, v, v
# stdlib.c:166: 			dst[1] = v & 0xff;
	sb	a4,1(a5)	# v, MEM[(char *)dst_50 + 1B]
# stdlib.c:167: 			if ((v & 0xff) == 0)
	andi	a4,a4,255	#, tmp112, v
# stdlib.c:167: 			if ((v & 0xff) == 0)
	beq	a4,zero,.L255	#, tmp112,,
# stdlib.c:169: 			v = v >> 8;
	srli	a4,a3,16	#, v, v
# stdlib.c:171: 			dst[2] = v & 0xff;
	sb	a4,2(a5)	# v, MEM[(char *)dst_50 + 2B]
# stdlib.c:172: 			if ((v & 0xff) == 0)
	andi	a4,a4,255	#, tmp113, v
# stdlib.c:172: 			if ((v & 0xff) == 0)
	bne	a4,zero,.L271	#, tmp113,,
.L255:
# stdlib.c:184: }
	ret	
.L271:
# stdlib.c:174: 			v = v >> 8;
	srli	a3,a3,24	#, v, v
# stdlib.c:176: 			dst[3] = v & 0xff;
	sb	a3,3(a5)	# v, MEM[(char *)dst_50 + 3B]
# stdlib.c:177: 			return r;
	ret	
	.size	strcpy, .-strcpy
	.align	2
	.globl	strcmp
	.type	strcmp, @function
strcmp:
# stdlib.c:188: 	while ((((uint32_t)s1 | (uint32_t)s2) & 3) != 0)
	j	.L273		#
.L277:
# stdlib.c:190: 		char c1 = *(s1++);
	lbu	a5,0(a0)	# c1, MEM[(const char *)s1_48 + 4294967295B]
# stdlib.c:191: 		char c2 = *(s2++);
	lbu	a4,0(a1)	# c2, MEM[(const char *)s2_50 + 4294967295B]
# stdlib.c:190: 		char c1 = *(s1++);
	addi	a0,a0,1	#, s1, s1
# stdlib.c:191: 		char c2 = *(s2++);
	addi	a1,a1,1	#, s2, s2
# stdlib.c:193: 		if (c1 != c2)
	bne	a5,a4,.L302	#, c1, c2,
# stdlib.c:195: 		else if (!c1)
	beq	a5,zero,.L292	#, c1,,
.L273:
# stdlib.c:188: 	while ((((uint32_t)s1 | (uint32_t)s2) & 3) != 0)
	or	a5,a0,a1	# s2, tmp101, s1
# stdlib.c:188: 	while ((((uint32_t)s1 | (uint32_t)s2) & 3) != 0)
	andi	a5,a5,3	#, tmp102, tmp101
# stdlib.c:188: 	while ((((uint32_t)s1 | (uint32_t)s2) & 3) != 0)
	bne	a5,zero,.L277	#, tmp102,,
# stdlib.c:201: 		uint32_t v1 = *(uint32_t*)s1;
	lw	a5,0(a0)		# v1, MEM[(uint32_t *)s1_14]
# stdlib.c:202: 		uint32_t v2 = *(uint32_t*)s2;
	lw	a4,0(a1)		# v2, MEM[(uint32_t *)s2_16]
# stdlib.c:204: 		if (__builtin_expect(v1 != v2, 0))
	bne	a5,a4,.L282	#, v1, v2,
# stdlib.c:228: 		if (__builtin_expect((((v1) - 0x01010101UL) & ~(v1) & 0x80808080UL), 0))
	li	a2,-16842752		# tmp111,
# stdlib.c:228: 		if (__builtin_expect((((v1) - 0x01010101UL) & ~(v1) & 0x80808080UL), 0))
	li	a3,-2139062272		# tmp116,
# stdlib.c:228: 		if (__builtin_expect((((v1) - 0x01010101UL) & ~(v1) & 0x80808080UL), 0))
	addi	a2,a2,-257	#, tmp110, tmp111
# stdlib.c:228: 		if (__builtin_expect((((v1) - 0x01010101UL) & ~(v1) & 0x80808080UL), 0))
	addi	a3,a3,128	#, tmp115, tmp116
	j	.L278		#
.L303:
# stdlib.c:201: 		uint32_t v1 = *(uint32_t*)s1;
	lw	a5,0(a0)		# v1, MEM[(uint32_t *)s1_29]
# stdlib.c:202: 		uint32_t v2 = *(uint32_t*)s2;
	lw	a4,0(a1)		# v2, MEM[(uint32_t *)s2_30]
# stdlib.c:204: 		if (__builtin_expect(v1 != v2, 0))
	bne	a5,a4,.L282	#, v1, v2,
.L278:
# stdlib.c:228: 		if (__builtin_expect((((v1) - 0x01010101UL) & ~(v1) & 0x80808080UL), 0))
	add	a4,a5,a2	# tmp110, tmp109, v1
# stdlib.c:228: 		if (__builtin_expect((((v1) - 0x01010101UL) & ~(v1) & 0x80808080UL), 0))
	not	a5,a5	# tmp112, v1
# stdlib.c:228: 		if (__builtin_expect((((v1) - 0x01010101UL) & ~(v1) & 0x80808080UL), 0))
	and	a5,a4,a5	# tmp112, tmp113, tmp109
# stdlib.c:228: 		if (__builtin_expect((((v1) - 0x01010101UL) & ~(v1) & 0x80808080UL), 0))
	and	a5,a5,a3	# tmp115, tmp114, tmp113
# stdlib.c:231: 		s1 += 4;
	addi	a0,a0,4	#, s1, s1
# stdlib.c:232: 		s2 += 4;
	addi	a1,a1,4	#, s2, s2
# stdlib.c:228: 		if (__builtin_expect((((v1) - 0x01010101UL) & ~(v1) & 0x80808080UL), 0))
	beq	a5,zero,.L303	#, tmp114,,
.L292:
# stdlib.c:196: 			return 0;
	li	a0,0		# <retval>,
.L272:
# stdlib.c:234: }
	ret	
.L302:
# stdlib.c:194: 			return c1 < c2 ? -1 : +1;
	sltu	a0,a5,a4	# c2, tmp119, c1
	neg	a0,a0	# tmp120, tmp119
	ori	a0,a0,1	#, <retval>, tmp120
	ret	
.L282:
# stdlib.c:208: 			c1 = v1 & 0xff, c2 = v2 & 0xff;
	andi	a3,a5,0xff	# c1, v1
# stdlib.c:208: 			c1 = v1 & 0xff, c2 = v2 & 0xff;
	andi	a2,a4,0xff	# c2, v2
# stdlib.c:209: 			if (c1 != c2) return c1 < c2 ? -1 : +1;
	bne	a3,a2,.L300	#, c1, c2,
# stdlib.c:196: 			return 0;
	li	a0,0		# <retval>,
# stdlib.c:210: 			if (!c1) return 0;
	beq	a3,zero,.L272	#, c1,,
# stdlib.c:211: 			v1 = v1 >> 8, v2 = v2 >> 8;
	srli	a3,a5,8	#, v1, v1
# stdlib.c:211: 			v1 = v1 >> 8, v2 = v2 >> 8;
	srli	a2,a4,8	#, v2, v2
# stdlib.c:213: 			c1 = v1 & 0xff, c2 = v2 & 0xff;
	andi	a3,a3,0xff	# c1, v1
# stdlib.c:213: 			c1 = v1 & 0xff, c2 = v2 & 0xff;
	andi	a2,a2,0xff	# c2, v2
# stdlib.c:214: 			if (c1 != c2) return c1 < c2 ? -1 : +1;
	bne	a3,a2,.L300	#, c1, c2,
# stdlib.c:215: 			if (!c1) return 0;
	beq	a3,zero,.L272	#, c1,,
# stdlib.c:216: 			v1 = v1 >> 8, v2 = v2 >> 8;
	srli	a3,a5,16	#, v1, v1
# stdlib.c:216: 			v1 = v1 >> 8, v2 = v2 >> 8;
	srli	a2,a4,16	#, v2, v2
# stdlib.c:218: 			c1 = v1 & 0xff, c2 = v2 & 0xff;
	andi	a3,a3,0xff	# c1, v1
# stdlib.c:218: 			c1 = v1 & 0xff, c2 = v2 & 0xff;
	andi	a2,a2,0xff	# c2, v2
# stdlib.c:219: 			if (c1 != c2) return c1 < c2 ? -1 : +1;
	bne	a3,a2,.L300	#, c1, c2,
# stdlib.c:220: 			if (!c1) return 0;
	beq	a3,zero,.L272	#, c1,,
# stdlib.c:223: 			c1 = v1 & 0xff, c2 = v2 & 0xff;
	srli	a5,a5,24	#, c1, v1
# stdlib.c:223: 			c1 = v1 & 0xff, c2 = v2 & 0xff;
	srli	a4,a4,24	#, c2, v2
# stdlib.c:224: 			if (c1 != c2) return c1 < c2 ? -1 : +1;
	beq	a5,a4,.L272	#, c1, c2,
# stdlib.c:194: 			return c1 < c2 ? -1 : +1;
	li	a0,1		# <retval>,
# stdlib.c:224: 			if (c1 != c2) return c1 < c2 ? -1 : +1;
	bgeu	a5,a4,.L272	#, c1, c2,
	j	.L298		#
.L300:
# stdlib.c:194: 			return c1 < c2 ? -1 : +1;
	li	a0,1		# <retval>,
# stdlib.c:219: 			if (c1 != c2) return c1 < c2 ? -1 : +1;
	bgeu	a3,a2,.L272	#, c1, c2,
.L298:
# stdlib.c:194: 			return c1 < c2 ? -1 : +1;
	li	a0,-1		# <retval>,
	ret	
	.size	strcmp, .-strcmp
	.align	2
	.globl	set_fb0
	.type	set_fb0, @function
set_fb0:
# main_amiga_scroller_hdmi.c:104:   *(FB_CTRL) = fb & 0x01;
	andi	a0,a0,1	#, _2, tmp77
# main_amiga_scroller_hdmi.c:104:   *(FB_CTRL) = fb & 0x01;
	li	a5,805306368		# tmp76,
	sw	a0,36(a5)	# _2, MEM[(volatile uint32_t *)805306404B]
# main_amiga_scroller_hdmi.c:105: }
	ret	
	.size	set_fb0, .-set_fb0
	.align	2
	.globl	activefb
	.type	activefb, @function
activefb:
# main_amiga_scroller_hdmi.c:107:   set_fb0((fb & 0x01));
	andi	a0,a0,1	#, fb.39_4, tmp77
# main_amiga_scroller_hdmi.c:104:   *(FB_CTRL) = fb & 0x01;
	li	a5,805306368		# tmp76,
	sw	a0,36(a5)	# fb.39_4, MEM[(volatile uint32_t *)805306404B]
# main_amiga_scroller_hdmi.c:108: }
	ret	
	.size	activefb, .-activefb
	.align	2
	.globl	getbmpLine
	.type	getbmpLine, @function
getbmpLine:
# main_amiga_scroller_hdmi.c:111:   uint8_t p0 = gimp_image.pixel_data[(((x<<2) + 0)) + y*(320<<2)];
	slli	a5,a1,2	#, tmp99, tmp129
	add	a5,a5,a1	# tmp129, tmp100, tmp99
# main_amiga_scroller_hdmi.c:111:   uint8_t p0 = gimp_image.pixel_data[(((x<<2) + 0)) + y*(320<<2)];
	lui	a1,%hi(gimp_image)	# tmp103,
# main_amiga_scroller_hdmi.c:111:   uint8_t p0 = gimp_image.pixel_data[(((x<<2) + 0)) + y*(320<<2)];
	slli	a0,a0,2	#, _1, tmp128
# main_amiga_scroller_hdmi.c:111:   uint8_t p0 = gimp_image.pixel_data[(((x<<2) + 0)) + y*(320<<2)];
	addi	a1,a1,%lo(gimp_image)	# tmp104, tmp103,
# main_amiga_scroller_hdmi.c:111:   uint8_t p0 = gimp_image.pixel_data[(((x<<2) + 0)) + y*(320<<2)];
	slli	a5,a5,8	#, tmp101, tmp100
# main_amiga_scroller_hdmi.c:111:   uint8_t p0 = gimp_image.pixel_data[(((x<<2) + 0)) + y*(320<<2)];
	add	a1,a1,a0	# _1, tmp106, tmp104
	add	a1,a1,a5	# tmp101, tmp105, tmp106
# main_amiga_scroller_hdmi.c:116:   return (p3<<24 | p0 << 16 | p1 << 8 | p2);
	lbu	a5,12(a1)	# gimp_image.pixel_data[_3], gimp_image.pixel_data[_3]
# main_amiga_scroller_hdmi.c:116:   return (p3<<24 | p0 << 16 | p1 << 8 | p2);
	lbu	a3,14(a1)	# gimp_image.pixel_data[_7], gimp_image.pixel_data[_7]
# main_amiga_scroller_hdmi.c:116:   return (p3<<24 | p0 << 16 | p1 << 8 | p2);
	lbu	a4,15(a1)	# gimp_image.pixel_data[_9], gimp_image.pixel_data[_9]
# main_amiga_scroller_hdmi.c:116:   return (p3<<24 | p0 << 16 | p1 << 8 | p2);
	lbu	a0,13(a1)	# gimp_image.pixel_data[_5], gimp_image.pixel_data[_5]
# main_amiga_scroller_hdmi.c:116:   return (p3<<24 | p0 << 16 | p1 << 8 | p2);
	slli	a5,a5,16	#, tmp108, gimp_image.pixel_data[_3]
# main_amiga_scroller_hdmi.c:116:   return (p3<<24 | p0 << 16 | p1 << 8 | p2);
	or	a5,a5,a3	# gimp_image.pixel_data[_7], tmp114, tmp108
# main_amiga_scroller_hdmi.c:116:   return (p3<<24 | p0 << 16 | p1 << 8 | p2);
	slli	a4,a4,24	#, tmp120, gimp_image.pixel_data[_9]
# main_amiga_scroller_hdmi.c:116:   return (p3<<24 | p0 << 16 | p1 << 8 | p2);
	or	a5,a5,a4	# tmp120, tmp121, tmp114
# main_amiga_scroller_hdmi.c:116:   return (p3<<24 | p0 << 16 | p1 << 8 | p2);
	slli	a0,a0,8	#, tmp127, gimp_image.pixel_data[_5]
# main_amiga_scroller_hdmi.c:117: }
	or	a0,a5,a0	# tmp127,, tmp121
	ret	
	.size	getbmpLine, .-getbmpLine
	.align	2
	.globl	render_glyph
	.type	render_glyph, @function
render_glyph:
# main_amiga_scroller_hdmi.c:120:   a -= 32;
	addi	a5,a0,-32	#, tmp121, tmp170
	andi	a5,a5,0xff	# a, tmp121
# main_amiga_scroller_hdmi.c:123:       int yoff = (a / 20) <<4;
	li	a3,20		# tmp123,
	divu	a4,a5,a3	# tmp123, tmp125, a
	lui	t5,%hi(gimp_image)	# tmp169,
	addi	t5,t5,%lo(gimp_image)	# tmp168, tmp169,
# main_amiga_scroller_hdmi.c:124:       int xoff = (a % 20) <<4;
	li	t4,0		# ivtmp.341,
# main_amiga_scroller_hdmi.c:121:   for (int y = 0; y < 16; y++) {
	li	t6,1280		# tmp167,
# main_amiga_scroller_hdmi.c:124:       int xoff = (a % 20) <<4;
	remu	t1,a5,a3	# tmp123, tmp136, a
	slli	t3,a4,6	#, tmp128, tmp125
# main_amiga_scroller_hdmi.c:123:       int yoff = (a / 20) <<4;
	slli	a5,a4,4	#, yoff, tmp125
	add	t3,t3,a5	# yoff, tmp129, tmp128
	slli	t3,t3,8	#, ivtmp.342, tmp129
	add	a6,t5,t3	# ivtmp.342, ivtmp.343, tmp168
	slli	t1,t1,6	#, tmp139, tmp136
	sub	a0,a1,t1	# ivtmp.344, tmp171, tmp139
	addi	t0,t1,1	#, _149, tmp139
	addi	t1,t1,65	#, _53, tmp139
.L308:
# main_amiga_scroller_hdmi.c:111:   uint8_t p0 = gimp_image.pixel_data[(((x<<2) + 0)) + y*(320<<2)];
	mv	a4,t0	# ivtmp.330, _149
# main_amiga_scroller_hdmi.c:112:   uint8_t p1 = gimp_image.pixel_data[(((x<<2) + 1)) + y*(320<<2)];
	add	a7,t5,t3	# ivtmp.342, tmp150, tmp168
.L309:
# main_amiga_scroller_hdmi.c:112:   uint8_t p1 = gimp_image.pixel_data[(((x<<2) + 1)) + y*(320<<2)];
	add	a3,a7,a4	# ivtmp.330, tmp149, tmp150
# main_amiga_scroller_hdmi.c:111:   uint8_t p0 = gimp_image.pixel_data[(((x<<2) + 0)) + y*(320<<2)];
	add	a5,a6,a4	# ivtmp.330, tmp144, ivtmp.343
# main_amiga_scroller_hdmi.c:116:   return (p3<<24 | p0 << 16 | p1 << 8 | p2);
	lbu	a5,11(a5)	# MEM[(unsigned char *)_155 + 11B], MEM[(unsigned char *)_155 + 11B]
# main_amiga_scroller_hdmi.c:116:   return (p3<<24 | p0 << 16 | p1 << 8 | p2);
	lbu	a2,12(a3)	# gimp_image.pixel_data[_32], gimp_image.pixel_data[_32]
# main_amiga_scroller_hdmi.c:116:   return (p3<<24 | p0 << 16 | p1 << 8 | p2);
	lbu	a1,13(a3)	# gimp_image.pixel_data[_35], gimp_image.pixel_data[_35]
# main_amiga_scroller_hdmi.c:116:   return (p3<<24 | p0 << 16 | p1 << 8 | p2);
	lbu	a3,14(a3)	# gimp_image.pixel_data[_38], gimp_image.pixel_data[_38]
# main_amiga_scroller_hdmi.c:116:   return (p3<<24 | p0 << 16 | p1 << 8 | p2);
	slli	a2,a2,8	#, tmp152, gimp_image.pixel_data[_32]
# main_amiga_scroller_hdmi.c:116:   return (p3<<24 | p0 << 16 | p1 << 8 | p2);
	slli	a5,a5,16	#, tmp146, MEM[(unsigned char *)_155 + 11B]
# main_amiga_scroller_hdmi.c:116:   return (p3<<24 | p0 << 16 | p1 << 8 | p2);
	or	a5,a5,a2	# tmp152, tmp153, tmp146
	or	a5,a5,a1	# gimp_image.pixel_data[_35], tmp159, tmp153
# main_amiga_scroller_hdmi.c:116:   return (p3<<24 | p0 << 16 | p1 << 8 | p2);
	slli	a3,a3,24	#, tmp165, gimp_image.pixel_data[_38]
# main_amiga_scroller_hdmi.c:125:       *(fb + x +y*80) = getbmpLine(x + xoff, y + yoff);
	add	a2,a0,a4	# ivtmp.330, tmp143, ivtmp.344
# main_amiga_scroller_hdmi.c:116:   return (p3<<24 | p0 << 16 | p1 << 8 | p2);
	or	a5,a5,a3	# tmp165, tmp166, tmp159
# main_amiga_scroller_hdmi.c:125:       *(fb + x +y*80) = getbmpLine(x + xoff, y + yoff);
	sw	a5,-1(a2)	# tmp166, MEM[(uint32_t *)_144 + 4294967295B]
# main_amiga_scroller_hdmi.c:122:     for (int x = 0; x < 16; x++) {
	addi	a4,a4,4	#, ivtmp.330, ivtmp.330
	bne	t1,a4,.L309	#, _53, ivtmp.330,
# main_amiga_scroller_hdmi.c:121:   for (int y = 0; y < 16; y++) {
	addi	t4,t4,80	#, ivtmp.341, ivtmp.341
	addi	t3,t3,1280	#, ivtmp.342, ivtmp.342
	addi	a6,a6,1280	#, ivtmp.343, ivtmp.343
	addi	a0,a0,320	#, ivtmp.344, ivtmp.344
	bne	t4,t6,.L308	#, ivtmp.341, tmp167,
# main_amiga_scroller_hdmi.c:128: }
	ret	
	.size	render_glyph, .-render_glyph
	.align	2
	.globl	render_glyph_col
	.type	render_glyph_col, @function
render_glyph_col:
	addi	sp,sp,-144	#,,
# main_amiga_scroller_hdmi.c:131:   a -= 32;
	addi	a4,a0,-32	#, tmp407, tmp885
# main_amiga_scroller_hdmi.c:130: void render_glyph_col(char a, int col, uint32_t *fb) {
	sw	s4,124(sp)	#,
# main_amiga_scroller_hdmi.c:131:   a -= 32;
	andi	a4,a4,0xff	# a, tmp407
# main_amiga_scroller_hdmi.c:134:     int xoff = (a % 20) <<4;
	li	s4,20		# tmp409,
# main_amiga_scroller_hdmi.c:133:     int yoff = (a / 20) <<4;
	divu	a7,a4,s4	# tmp409, tmp417, a
# main_amiga_scroller_hdmi.c:130: void render_glyph_col(char a, int col, uint32_t *fb) {
	sw	s3,128(sp)	#,
	sw	s11,96(sp)	#,
# main_amiga_scroller_hdmi.c:111:   uint8_t p0 = gimp_image.pixel_data[(((x<<2) + 0)) + y*(320<<2)];
	li	t1,4096		# tmp476,
# main_amiga_scroller_hdmi.c:130: void render_glyph_col(char a, int col, uint32_t *fb) {
	mv	s11,a2	# fb, tmp887
# main_amiga_scroller_hdmi.c:111:   uint8_t p0 = gimp_image.pixel_data[(((x<<2) + 0)) + y*(320<<2)];
	li	s3,16384		# tmp766,
# main_amiga_scroller_hdmi.c:130: void render_glyph_col(char a, int col, uint32_t *fb) {
	sw	s1,136(sp)	#,
	sw	s9,104(sp)	#,
# main_amiga_scroller_hdmi.c:111:   uint8_t p0 = gimp_image.pixel_data[(((x<<2) + 0)) + y*(320<<2)];
	addi	t5,s3,-1024	#, tmp765, tmp766
# main_amiga_scroller_hdmi.c:135:     *(fb + y*HRES) = getbmpLine(col + xoff, y + yoff);
	add	s9,s11,t1	# tmp476, tmp618, fb
# main_amiga_scroller_hdmi.c:111:   uint8_t p0 = gimp_image.pixel_data[(((x<<2) + 0)) + y*(320<<2)];
	addi	t4,s3,256	#, tmp795, tmp766
	addi	a6,t1,-1536	#, tmp475, tmp476
	addi	a0,t1,-256	#, tmp503, tmp476
	addi	s1,t1,1024	#, tmp531, tmp476
	addi	a2,s3,1536	#, tmp825, tmp766
	li	a3,12288		# tmp646,
	li	t3,8192		# tmp560,
	addi	t2,a3,-2048	#, tmp645, tmp646
	addi	t0,a3,-768	#, tmp675, tmp646
	addi	t6,a3,512	#, tmp705, tmp646
# main_amiga_scroller_hdmi.c:111:   uint8_t p0 = gimp_image.pixel_data[(((x<<2) + 0)) + y*(320<<2)];
	lui	a5,%hi(gimp_image)	# tmp423,
# main_amiga_scroller_hdmi.c:111:   uint8_t p0 = gimp_image.pixel_data[(((x<<2) + 0)) + y*(320<<2)];
	addi	a3,a3,1792	#, tmp735, tmp646
# main_amiga_scroller_hdmi.c:130: void render_glyph_col(char a, int col, uint32_t *fb) {
	sw	s0,140(sp)	#,
	sw	s2,132(sp)	#,
# main_amiga_scroller_hdmi.c:111:   uint8_t p0 = gimp_image.pixel_data[(((x<<2) + 0)) + y*(320<<2)];
	addi	a5,a5,%lo(gimp_image)	# tmp424, tmp423,
# main_amiga_scroller_hdmi.c:111:   uint8_t p0 = gimp_image.pixel_data[(((x<<2) + 0)) + y*(320<<2)];
	addi	s2,t3,-512	#, tmp587, tmp560
	addi	s0,t3,-1792	#, tmp559, tmp560
	addi	t3,t3,768	#, tmp615, tmp560
# main_amiga_scroller_hdmi.c:130: void render_glyph_col(char a, int col, uint32_t *fb) {
	sw	s7,112(sp)	#,
	sw	s8,108(sp)	#,
	sw	s5,120(sp)	#,
	sw	s6,116(sp)	#,
	sw	s10,100(sp)	#,
# main_amiga_scroller_hdmi.c:134:     int xoff = (a % 20) <<4;
	remu	a4,a4,s4	# tmp409, tmp411, a
# main_amiga_scroller_hdmi.c:133:     int yoff = (a / 20) <<4;
	slli	s3,a7,4	#, yoff, tmp417
# main_amiga_scroller_hdmi.c:111:   uint8_t p0 = gimp_image.pixel_data[(((x<<2) + 0)) + y*(320<<2)];
	slli	t1,a7,6	#, tmp420, tmp417
	add	t1,t1,s3	# yoff, tmp421, tmp420
	slli	t1,t1,8	#, tmp422, tmp421
	add	a3,t1,a3	# tmp735, _384, tmp422
	add	s1,t1,s1	# tmp531, _174, tmp422
	add	s3,t1,t3	# tmp615, _264, tmp422
	sw	a3,12(sp)	# _384, %sfp
	add	t3,t1,t4	# tmp795, _444, tmp422
	add	a3,t1,t5	# tmp765, _414, tmp422
	add	s0,t1,s0	# tmp559, _204, tmp422
	add	s7,t1,t0	# tmp675, _324, tmp422
	add	s8,t1,t6	# tmp705, _354, tmp422
	sw	a3,16(sp)	# _414, %sfp
	sw	t3,52(sp)	# _444, %sfp
	li	a3,20480		# tmp856,
	add	s4,t1,t2	# tmp645, _294, tmp422
	addi	a3,a3,-1280	#, tmp855, tmp856
	add	t4,t1,a3	# tmp855, _23, tmp422
	add	a2,t1,a2	# tmp825, _474, tmp422
	add	s6,t1,s2	# tmp587, _234, tmp422
	addi	a7,t1,1280	#, _69, tmp422
	add	a6,t1,a6	# tmp475, _114, tmp422
	add	a0,t1,a0	# tmp503, _144, tmp422
# main_amiga_scroller_hdmi.c:113:   uint8_t p2 = gimp_image.pixel_data[(((x<<2) + 2)) + y*(320<<2)];
	add	s2,a5,t4	# _23, tmp868, tmp424
# main_amiga_scroller_hdmi.c:111:   uint8_t p0 = gimp_image.pixel_data[(((x<<2) + 0)) + y*(320<<2)];
	sw	a2,56(sp)	# _474, %sfp
	sw	s3,48(sp)	# _264, %sfp
	sw	s4,20(sp)	# _294, %sfp
	sw	s7,24(sp)	# _324, %sfp
	sw	s8,28(sp)	# _354, %sfp
# main_amiga_scroller_hdmi.c:113:   uint8_t p2 = gimp_image.pixel_data[(((x<<2) + 2)) + y*(320<<2)];
	sw	t4,32(sp)	# _23, %sfp
	sw	s2,92(sp)	# tmp868, %sfp
# main_amiga_scroller_hdmi.c:134:     int xoff = (a % 20) <<4;
	slli	a4,a4,4	#, xoff, tmp411
# main_amiga_scroller_hdmi.c:135:     *(fb + y*HRES) = getbmpLine(col + xoff, y + yoff);
	add	a1,a4,a1	# tmp886, tmp413, xoff
# main_amiga_scroller_hdmi.c:111:   uint8_t p0 = gimp_image.pixel_data[(((x<<2) + 0)) + y*(320<<2)];
	slli	a1,a1,2	#, _22, tmp413
# main_amiga_scroller_hdmi.c:111:   uint8_t p0 = gimp_image.pixel_data[(((x<<2) + 0)) + y*(320<<2)];
	add	a4,a5,a1	# _22, tmp426, tmp424
# main_amiga_scroller_hdmi.c:113:   uint8_t p2 = gimp_image.pixel_data[(((x<<2) + 2)) + y*(320<<2)];
	addi	t5,a1,2	#, _29, _22
# main_amiga_scroller_hdmi.c:114:   uint8_t p3 = gimp_image.pixel_data[(((x<<2) + 3)) + y*(320<<2)];
	addi	t6,a1,3	#, _32, _22
# main_amiga_scroller_hdmi.c:111:   uint8_t p0 = gimp_image.pixel_data[(((x<<2) + 0)) + y*(320<<2)];
	add	t0,a4,t1	# tmp422, tmp425, tmp426
	add	t3,a4,s1	# _174, tmp535, tmp426
# main_amiga_scroller_hdmi.c:112:   uint8_t p1 = gimp_image.pixel_data[(((x<<2) + 1)) + y*(320<<2)];
	addi	a1,a1,1	#, _26, _22
	mv	t2,a1	# _26, _26
# main_amiga_scroller_hdmi.c:116:   return (p3<<24 | p0 << 16 | p1 << 8 | p2);
	lbu	s5,12(t0)	# gimp_image.pixel_data[_98], gimp_image.pixel_data[_98]
# main_amiga_scroller_hdmi.c:111:   uint8_t p0 = gimp_image.pixel_data[(((x<<2) + 0)) + y*(320<<2)];
	add	a1,a4,s0	# _204, tmp563, tmp426
# main_amiga_scroller_hdmi.c:116:   return (p3<<24 | p0 << 16 | p1 << 8 | p2);
	lbu	t0,12(t3)	# gimp_image.pixel_data[_175], gimp_image.pixel_data[_175]
	lbu	a1,12(a1)	# gimp_image.pixel_data[_205], gimp_image.pixel_data[_205]
# main_amiga_scroller_hdmi.c:113:   uint8_t p2 = gimp_image.pixel_data[(((x<<2) + 2)) + y*(320<<2)];
	add	a2,a5,t5	# _29, tmp432, tmp424
# main_amiga_scroller_hdmi.c:114:   uint8_t p3 = gimp_image.pixel_data[(((x<<2) + 3)) + y*(320<<2)];
	add	a3,a5,t6	# _32, tmp438, tmp424
# main_amiga_scroller_hdmi.c:111:   uint8_t p0 = gimp_image.pixel_data[(((x<<2) + 0)) + y*(320<<2)];
	add	t4,a4,a0	# _144, tmp507, tmp426
# main_amiga_scroller_hdmi.c:113:   uint8_t p2 = gimp_image.pixel_data[(((x<<2) + 2)) + y*(320<<2)];
	sw	t5,40(sp)	# _29, %sfp
# main_amiga_scroller_hdmi.c:114:   uint8_t p3 = gimp_image.pixel_data[(((x<<2) + 3)) + y*(320<<2)];
	sw	t6,44(sp)	# _32, %sfp
# main_amiga_scroller_hdmi.c:111:   uint8_t p0 = gimp_image.pixel_data[(((x<<2) + 0)) + y*(320<<2)];
	add	t5,a4,a6	# _114, tmp479, tmp426
	add	t6,a4,a7	# _69, tmp451, tmp426
# main_amiga_scroller_hdmi.c:112:   uint8_t p1 = gimp_image.pixel_data[(((x<<2) + 1)) + y*(320<<2)];
	sw	t2,36(sp)	# _26, %sfp
# main_amiga_scroller_hdmi.c:116:   return (p3<<24 | p0 << 16 | p1 << 8 | p2);
	sw	t0,72(sp)	# gimp_image.pixel_data[_175], %sfp
# main_amiga_scroller_hdmi.c:113:   uint8_t p2 = gimp_image.pixel_data[(((x<<2) + 2)) + y*(320<<2)];
	add	s8,a2,t1	# tmp422, tmp431, tmp432
	add	s7,a2,a7	# _69, tmp457, tmp432
# main_amiga_scroller_hdmi.c:116:   return (p3<<24 | p0 << 16 | p1 << 8 | p2);
	lbu	s4,12(t6)	# gimp_image.pixel_data[_68], gimp_image.pixel_data[_68]
	lbu	s3,12(t5)	# gimp_image.pixel_data[_115], gimp_image.pixel_data[_115]
	lbu	s2,12(t4)	# gimp_image.pixel_data[_145], gimp_image.pixel_data[_145]
	sw	a1,76(sp)	# gimp_image.pixel_data[_205], %sfp
# main_amiga_scroller_hdmi.c:116:   return (p3<<24 | p0 << 16 | p1 << 8 | p2);
	lbu	s8,12(s8)	# gimp_image.pixel_data[_94], gimp_image.pixel_data[_94]
	lbu	s10,12(s7)	# gimp_image.pixel_data[_64], gimp_image.pixel_data[_64]
# main_amiga_scroller_hdmi.c:113:   uint8_t p2 = gimp_image.pixel_data[(((x<<2) + 2)) + y*(320<<2)];
	add	t3,a2,s0	# _204, tmp569, tmp432
# main_amiga_scroller_hdmi.c:116:   return (p3<<24 | p0 << 16 | p1 << 8 | p2);
	sw	s8,60(sp)	# gimp_image.pixel_data[_94], %sfp
	sw	s10,64(sp)	# gimp_image.pixel_data[_64], %sfp
	lw	s10,60(sp)		# gimp_image.pixel_data[_94], %sfp
	add	s7,a2,a6	# _114, tmp485, tmp432
	lbu	s8,12(s7)	# gimp_image.pixel_data[_119], gimp_image.pixel_data[_119]
	lbu	t3,12(t3)	# gimp_image.pixel_data[_209], gimp_image.pixel_data[_209]
# main_amiga_scroller_hdmi.c:116:   return (p3<<24 | p0 << 16 | p1 << 8 | p2);
	slli	s5,s5,16	#, tmp428, gimp_image.pixel_data[_98]
# main_amiga_scroller_hdmi.c:112:   uint8_t p1 = gimp_image.pixel_data[(((x<<2) + 1)) + y*(320<<2)];
	add	a5,a5,t2	# _26, tmp445, tmp424
# main_amiga_scroller_hdmi.c:116:   return (p3<<24 | p0 << 16 | p1 << 8 | p2);
	or	s5,s5,s10	# gimp_image.pixel_data[_94], tmp434, tmp428
	lw	s10,64(sp)		# gimp_image.pixel_data[_64], %sfp
# main_amiga_scroller_hdmi.c:114:   uint8_t p3 = gimp_image.pixel_data[(((x<<2) + 3)) + y*(320<<2)];
	add	a1,a3,s0	# _204, tmp575, tmp438
# main_amiga_scroller_hdmi.c:116:   return (p3<<24 | p0 << 16 | p1 << 8 | p2);
	add	s7,a2,a0	# _144, tmp513, tmp432
# main_amiga_scroller_hdmi.c:112:   uint8_t p1 = gimp_image.pixel_data[(((x<<2) + 1)) + y*(320<<2)];
	add	s0,a5,s0	# _204, tmp582, tmp445
# main_amiga_scroller_hdmi.c:116:   return (p3<<24 | p0 << 16 | p1 << 8 | p2);
	sw	s8,68(sp)	# gimp_image.pixel_data[_119], %sfp
	sw	t3,80(sp)	# gimp_image.pixel_data[_209], %sfp
	lbu	s8,12(s7)	# gimp_image.pixel_data[_149], gimp_image.pixel_data[_149]
# main_amiga_scroller_hdmi.c:116:   return (p3<<24 | p0 << 16 | p1 << 8 | p2);
	lbu	t3,12(a1)	# gimp_image.pixel_data[_211], gimp_image.pixel_data[_211]
# main_amiga_scroller_hdmi.c:114:   uint8_t p3 = gimp_image.pixel_data[(((x<<2) + 3)) + y*(320<<2)];
	add	t2,a3,t1	# tmp422, tmp437, tmp438
	add	t4,a3,s1	# _174, tmp547, tmp438
# main_amiga_scroller_hdmi.c:116:   return (p3<<24 | p0 << 16 | p1 << 8 | p2);
	add	s7,a2,s1	# _174, tmp541, tmp432
# main_amiga_scroller_hdmi.c:112:   uint8_t p1 = gimp_image.pixel_data[(((x<<2) + 1)) + y*(320<<2)];
	add	a1,a5,s1	# _174, tmp554, tmp445
# main_amiga_scroller_hdmi.c:116:   return (p3<<24 | p0 << 16 | p1 << 8 | p2);
	slli	s4,s4,16	#, tmp454, gimp_image.pixel_data[_68]
# main_amiga_scroller_hdmi.c:116:   return (p3<<24 | p0 << 16 | p1 << 8 | p2);
	lbu	s1,12(s0)	# gimp_image.pixel_data[_207], gimp_image.pixel_data[_207]
# main_amiga_scroller_hdmi.c:116:   return (p3<<24 | p0 << 16 | p1 << 8 | p2);
	lw	s0,72(sp)		# gimp_image.pixel_data[_175], %sfp
# main_amiga_scroller_hdmi.c:116:   return (p3<<24 | p0 << 16 | p1 << 8 | p2);
	or	s4,s4,s10	# gimp_image.pixel_data[_64], tmp460, tmp454
# main_amiga_scroller_hdmi.c:116:   return (p3<<24 | p0 << 16 | p1 << 8 | p2);
	lbu	t2,12(t2)	# gimp_image.pixel_data[_92], gimp_image.pixel_data[_92]
# main_amiga_scroller_hdmi.c:116:   return (p3<<24 | p0 << 16 | p1 << 8 | p2);
	lw	s10,68(sp)		# gimp_image.pixel_data[_119], %sfp
# main_amiga_scroller_hdmi.c:116:   return (p3<<24 | p0 << 16 | p1 << 8 | p2);
	sw	s1,84(sp)	# gimp_image.pixel_data[_207], %sfp
# main_amiga_scroller_hdmi.c:116:   return (p3<<24 | p0 << 16 | p1 << 8 | p2);
	lbu	s7,12(s7)	# gimp_image.pixel_data[_179], gimp_image.pixel_data[_179]
# main_amiga_scroller_hdmi.c:114:   uint8_t p3 = gimp_image.pixel_data[(((x<<2) + 3)) + y*(320<<2)];
	add	t0,a3,a7	# _69, tmp463, tmp438
	add	t6,a3,a6	# _114, tmp491, tmp438
# main_amiga_scroller_hdmi.c:116:   return (p3<<24 | p0 << 16 | p1 << 8 | p2);
	lbu	t4,12(t4)	# gimp_image.pixel_data[_181], gimp_image.pixel_data[_181]
# main_amiga_scroller_hdmi.c:116:   return (p3<<24 | p0 << 16 | p1 << 8 | p2);
	slli	s1,s0,16	#, tmp538, gimp_image.pixel_data[_175]
	slli	s3,s3,16	#, tmp482, gimp_image.pixel_data[_115]
	lw	s0,76(sp)		# gimp_image.pixel_data[_205], %sfp
# main_amiga_scroller_hdmi.c:116:   return (p3<<24 | p0 << 16 | p1 << 8 | p2);
	or	s3,s3,s10	# gimp_image.pixel_data[_119], tmp488, tmp482
# main_amiga_scroller_hdmi.c:116:   return (p3<<24 | p0 << 16 | p1 << 8 | p2);
	lbu	t0,12(t0)	# gimp_image.pixel_data[_62], gimp_image.pixel_data[_62]
# main_amiga_scroller_hdmi.c:116:   return (p3<<24 | p0 << 16 | p1 << 8 | p2);
	lw	s10,80(sp)		# gimp_image.pixel_data[_209], %sfp
# main_amiga_scroller_hdmi.c:116:   return (p3<<24 | p0 << 16 | p1 << 8 | p2);
	lbu	t6,12(t6)	# gimp_image.pixel_data[_121], gimp_image.pixel_data[_121]
	slli	t2,t2,24	#, tmp440, gimp_image.pixel_data[_92]
# main_amiga_scroller_hdmi.c:114:   uint8_t p3 = gimp_image.pixel_data[(((x<<2) + 3)) + y*(320<<2)];
	add	t5,a3,a0	# _144, tmp519, tmp438
# main_amiga_scroller_hdmi.c:116:   return (p3<<24 | p0 << 16 | p1 << 8 | p2);
	or	t2,s5,t2	# tmp440, tmp441, tmp434
# main_amiga_scroller_hdmi.c:116:   return (p3<<24 | p0 << 16 | p1 << 8 | p2);
	lw	s5,84(sp)		# gimp_image.pixel_data[_207], %sfp
# main_amiga_scroller_hdmi.c:116:   return (p3<<24 | p0 << 16 | p1 << 8 | p2);
	or	s1,s1,s7	# gimp_image.pixel_data[_179], tmp544, tmp538
# main_amiga_scroller_hdmi.c:116:   return (p3<<24 | p0 << 16 | p1 << 8 | p2);
	lbu	t5,12(t5)	# gimp_image.pixel_data[_151], gimp_image.pixel_data[_151]
# main_amiga_scroller_hdmi.c:112:   uint8_t p1 = gimp_image.pixel_data[(((x<<2) + 1)) + y*(320<<2)];
	add	a0,a5,a0	# _144, tmp526, tmp445
# main_amiga_scroller_hdmi.c:116:   return (p3<<24 | p0 << 16 | p1 << 8 | p2);
	slli	s0,s0,16	#, tmp566, gimp_image.pixel_data[_205]
# main_amiga_scroller_hdmi.c:116:   return (p3<<24 | p0 << 16 | p1 << 8 | p2);
	slli	t4,t4,24	#, tmp550, gimp_image.pixel_data[_181]
# main_amiga_scroller_hdmi.c:116:   return (p3<<24 | p0 << 16 | p1 << 8 | p2);
	or	s0,s0,s10	# gimp_image.pixel_data[_209], tmp572, tmp566
	or	t4,s1,t4	# tmp550, tmp551, tmp544
# main_amiga_scroller_hdmi.c:116:   return (p3<<24 | p0 << 16 | p1 << 8 | p2);
	lbu	a0,12(a0)	# gimp_image.pixel_data[_147], gimp_image.pixel_data[_147]
# main_amiga_scroller_hdmi.c:111:   uint8_t p0 = gimp_image.pixel_data[(((x<<2) + 0)) + y*(320<<2)];
	add	s1,a4,s6	# _234, tmp591, tmp426
# main_amiga_scroller_hdmi.c:112:   uint8_t p1 = gimp_image.pixel_data[(((x<<2) + 1)) + y*(320<<2)];
	add	t1,a5,t1	# tmp422, tmp444, tmp445
	add	a7,a5,a7	# _69, tmp470, tmp445
	add	a6,a5,a6	# _114, tmp498, tmp445
# main_amiga_scroller_hdmi.c:116:   return (p3<<24 | p0 << 16 | p1 << 8 | p2);
	slli	s2,s2,16	#, tmp510, gimp_image.pixel_data[_145]
# main_amiga_scroller_hdmi.c:116:   return (p3<<24 | p0 << 16 | p1 << 8 | p2);
	slli	t0,t0,24	#, tmp466, gimp_image.pixel_data[_62]
	slli	t6,t6,24	#, tmp494, gimp_image.pixel_data[_121]
	slli	t3,t3,24	#, tmp578, gimp_image.pixel_data[_211]
# main_amiga_scroller_hdmi.c:116:   return (p3<<24 | p0 << 16 | p1 << 8 | p2);
	or	s2,s2,s8	# gimp_image.pixel_data[_149], tmp516, tmp510
	or	t0,s4,t0	# tmp466, tmp467, tmp460
	or	t6,s3,t6	# tmp494, tmp495, tmp488
	or	t3,s0,t3	# tmp578, tmp579, tmp572
# main_amiga_scroller_hdmi.c:111:   uint8_t p0 = gimp_image.pixel_data[(((x<<2) + 0)) + y*(320<<2)];
	lw	s3,48(sp)		# _264, %sfp
# main_amiga_scroller_hdmi.c:116:   return (p3<<24 | p0 << 16 | p1 << 8 | p2);
	lbu	t1,12(t1)	# gimp_image.pixel_data[_96], gimp_image.pixel_data[_96]
	lbu	a7,12(a7)	# gimp_image.pixel_data[_66], gimp_image.pixel_data[_66]
	lbu	a6,12(a6)	# gimp_image.pixel_data[_117], gimp_image.pixel_data[_117]
	lbu	a1,12(a1)	# gimp_image.pixel_data[_177], gimp_image.pixel_data[_177]
	slli	s0,s5,8	#, tmp585, gimp_image.pixel_data[_207]
# main_amiga_scroller_hdmi.c:116:   return (p3<<24 | p0 << 16 | p1 << 8 | p2);
	lbu	s5,12(s1)	# gimp_image.pixel_data[_235], gimp_image.pixel_data[_235]
# main_amiga_scroller_hdmi.c:111:   uint8_t p0 = gimp_image.pixel_data[(((x<<2) + 0)) + y*(320<<2)];
	lw	s4,20(sp)		# _294, %sfp
	lw	s8,28(sp)		# _354, %sfp
# main_amiga_scroller_hdmi.c:116:   return (p3<<24 | p0 << 16 | p1 << 8 | p2);
	slli	t5,t5,24	#, tmp522, gimp_image.pixel_data[_151]
# main_amiga_scroller_hdmi.c:116:   return (p3<<24 | p0 << 16 | p1 << 8 | p2);
	or	t5,s2,t5	# tmp522, tmp523, tmp516
# main_amiga_scroller_hdmi.c:116:   return (p3<<24 | p0 << 16 | p1 << 8 | p2);
	slli	a0,a0,8	#, tmp529, gimp_image.pixel_data[_147]
# main_amiga_scroller_hdmi.c:111:   uint8_t p0 = gimp_image.pixel_data[(((x<<2) + 0)) + y*(320<<2)];
	lw	s7,24(sp)		# _324, %sfp
# main_amiga_scroller_hdmi.c:116:   return (p3<<24 | p0 << 16 | p1 << 8 | p2);
	or	a0,t5,a0	# tmp529, tmp530, tmp523
# main_amiga_scroller_hdmi.c:116:   return (p3<<24 | p0 << 16 | p1 << 8 | p2);
	slli	a1,a1,8	#, tmp557, gimp_image.pixel_data[_177]
# main_amiga_scroller_hdmi.c:111:   uint8_t p0 = gimp_image.pixel_data[(((x<<2) + 0)) + y*(320<<2)];
	add	t5,a4,s8	# _354, tmp711, tmp426
# main_amiga_scroller_hdmi.c:113:   uint8_t p2 = gimp_image.pixel_data[(((x<<2) + 2)) + y*(320<<2)];
	add	s1,a2,s6	# _234, tmp597, tmp432
# main_amiga_scroller_hdmi.c:112:   uint8_t p1 = gimp_image.pixel_data[(((x<<2) + 1)) + y*(320<<2)];
	add	s2,a5,s6	# _234, tmp610, tmp445
# main_amiga_scroller_hdmi.c:116:   return (p3<<24 | p0 << 16 | p1 << 8 | p2);
	or	a1,t4,a1	# tmp557, tmp558, tmp551
# main_amiga_scroller_hdmi.c:114:   uint8_t p3 = gimp_image.pixel_data[(((x<<2) + 3)) + y*(320<<2)];
	add	t4,a3,s6	# _234, tmp603, tmp438
# main_amiga_scroller_hdmi.c:116:   return (p3<<24 | p0 << 16 | p1 << 8 | p2);
	lbu	s6,12(t5)	# gimp_image.pixel_data[_355], gimp_image.pixel_data[_355]
# main_amiga_scroller_hdmi.c:135:     *(fb + y*HRES) = getbmpLine(col + xoff, y + yoff);
	sw	a1,1280(s11)	# tmp558, MEM[(uint32_t *)fb_19(D) + 1280B]
# main_amiga_scroller_hdmi.c:116:   return (p3<<24 | p0 << 16 | p1 << 8 | p2);
	slli	t1,t1,8	#, tmp447, gimp_image.pixel_data[_96]
# main_amiga_scroller_hdmi.c:116:   return (p3<<24 | p0 << 16 | p1 << 8 | p2);
	lbu	a1,12(t4)	# gimp_image.pixel_data[_241], gimp_image.pixel_data[_241]
# main_amiga_scroller_hdmi.c:116:   return (p3<<24 | p0 << 16 | p1 << 8 | p2);
	slli	a7,a7,8	#, tmp473, gimp_image.pixel_data[_66]
	slli	a6,a6,8	#, tmp501, gimp_image.pixel_data[_117]
# main_amiga_scroller_hdmi.c:116:   return (p3<<24 | p0 << 16 | p1 << 8 | p2);
	lbu	s10,12(s1)	# gimp_image.pixel_data[_239], gimp_image.pixel_data[_239]
	or	t1,t2,t1	# tmp447, tmp448, tmp441
# main_amiga_scroller_hdmi.c:113:   uint8_t p2 = gimp_image.pixel_data[(((x<<2) + 2)) + y*(320<<2)];
	add	s1,a2,s3	# _264, tmp627, tmp432
# main_amiga_scroller_hdmi.c:116:   return (p3<<24 | p0 << 16 | p1 << 8 | p2);
	or	a7,t0,a7	# tmp473, tmp474, tmp467
	or	a6,t6,a6	# tmp501, tmp502, tmp495
# main_amiga_scroller_hdmi.c:111:   uint8_t p0 = gimp_image.pixel_data[(((x<<2) + 0)) + y*(320<<2)];
	add	t0,a4,s4	# _294, tmp651, tmp426
	add	t6,a4,s7	# _324, tmp681, tmp426
# main_amiga_scroller_hdmi.c:116:   return (p3<<24 | p0 << 16 | p1 << 8 | p2);
	or	s0,t3,s0	# tmp585, tmp586, tmp579
# main_amiga_scroller_hdmi.c:111:   uint8_t p0 = gimp_image.pixel_data[(((x<<2) + 0)) + y*(320<<2)];
	lw	t3,12(sp)		# _384, %sfp
# main_amiga_scroller_hdmi.c:135:     *(fb + y*HRES) = getbmpLine(col + xoff, y + yoff);
	sw	t1,0(s11)	# tmp448, *fb_19(D)
	sw	a7,320(s11)	# tmp474, MEM[(uint32_t *)fb_19(D) + 320B]
# main_amiga_scroller_hdmi.c:116:   return (p3<<24 | p0 << 16 | p1 << 8 | p2);
	lbu	t1,12(t6)	# gimp_image.pixel_data[_325], gimp_image.pixel_data[_325]
	lbu	a7,12(t0)	# gimp_image.pixel_data[_295], gimp_image.pixel_data[_295]
# main_amiga_scroller_hdmi.c:113:   uint8_t p2 = gimp_image.pixel_data[(((x<<2) + 2)) + y*(320<<2)];
	add	t6,a2,s8	# _354, tmp717, tmp432
# main_amiga_scroller_hdmi.c:135:     *(fb + y*HRES) = getbmpLine(col + xoff, y + yoff);
	sw	a0,960(s11)	# tmp530, MEM[(uint32_t *)fb_19(D) + 960B]
# main_amiga_scroller_hdmi.c:116:   return (p3<<24 | p0 << 16 | p1 << 8 | p2);
	sw	s6,72(sp)	# gimp_image.pixel_data[_355], %sfp
# main_amiga_scroller_hdmi.c:111:   uint8_t p0 = gimp_image.pixel_data[(((x<<2) + 0)) + y*(320<<2)];
	lw	a0,16(sp)		# _414, %sfp
# main_amiga_scroller_hdmi.c:116:   return (p3<<24 | p0 << 16 | p1 << 8 | p2);
	lbu	s6,12(s1)	# gimp_image.pixel_data[_269], gimp_image.pixel_data[_269]
# main_amiga_scroller_hdmi.c:113:   uint8_t p2 = gimp_image.pixel_data[(((x<<2) + 2)) + y*(320<<2)];
	add	t0,a2,s7	# _324, tmp687, tmp432
# main_amiga_scroller_hdmi.c:116:   return (p3<<24 | p0 << 16 | p1 << 8 | p2);
	sw	a1,48(sp)	# gimp_image.pixel_data[_241], %sfp
# main_amiga_scroller_hdmi.c:114:   uint8_t p3 = gimp_image.pixel_data[(((x<<2) + 3)) + y*(320<<2)];
	add	a1,a3,s7	# _324, tmp693, tmp438
# main_amiga_scroller_hdmi.c:116:   return (p3<<24 | p0 << 16 | p1 << 8 | p2);
	lbu	s7,12(t0)	# gimp_image.pixel_data[_329], gimp_image.pixel_data[_329]
	lbu	t0,12(t6)	# gimp_image.pixel_data[_359], gimp_image.pixel_data[_359]
# main_amiga_scroller_hdmi.c:111:   uint8_t p0 = gimp_image.pixel_data[(((x<<2) + 0)) + y*(320<<2)];
	add	t3,a4,t3	# _384, tmp741, tmp426
# main_amiga_scroller_hdmi.c:116:   return (p3<<24 | p0 << 16 | p1 << 8 | p2);
	lbu	t4,12(t3)	# gimp_image.pixel_data[_385], gimp_image.pixel_data[_385]
# main_amiga_scroller_hdmi.c:111:   uint8_t p0 = gimp_image.pixel_data[(((x<<2) + 0)) + y*(320<<2)];
	add	t2,a4,s3	# _264, tmp621, tmp426
# main_amiga_scroller_hdmi.c:135:     *(fb + y*HRES) = getbmpLine(col + xoff, y + yoff);
	sw	a6,640(s11)	# tmp502, MEM[(uint32_t *)fb_19(D) + 640B]
	sw	s0,1600(s11)	# tmp586, MEM[(uint32_t *)fb_19(D) + 1600B]
# main_amiga_scroller_hdmi.c:113:   uint8_t p2 = gimp_image.pixel_data[(((x<<2) + 2)) + y*(320<<2)];
	lw	a6,12(sp)		# _384, %sfp
	add	s0,a2,s4	# _294, tmp657, tmp432
# main_amiga_scroller_hdmi.c:116:   return (p3<<24 | p0 << 16 | p1 << 8 | p2);
	sw	a7,64(sp)	# gimp_image.pixel_data[_295], %sfp
	sw	t1,68(sp)	# gimp_image.pixel_data[_325], %sfp
# main_amiga_scroller_hdmi.c:114:   uint8_t p3 = gimp_image.pixel_data[(((x<<2) + 3)) + y*(320<<2)];
	add	t3,a3,s3	# _264, tmp633, tmp438
	add	t1,a3,s4	# _294, tmp663, tmp438
# main_amiga_scroller_hdmi.c:111:   uint8_t p0 = gimp_image.pixel_data[(((x<<2) + 0)) + y*(320<<2)];
	add	a0,a4,a0	# _414, tmp771, tmp426
# main_amiga_scroller_hdmi.c:116:   return (p3<<24 | p0 << 16 | p1 << 8 | p2);
	sw	s6,60(sp)	# gimp_image.pixel_data[_269], %sfp
# main_amiga_scroller_hdmi.c:114:   uint8_t p3 = gimp_image.pixel_data[(((x<<2) + 3)) + y*(320<<2)];
	add	t5,a3,s8	# _354, tmp723, tmp438
# main_amiga_scroller_hdmi.c:116:   return (p3<<24 | p0 << 16 | p1 << 8 | p2);
	lbu	s4,12(s2)	# gimp_image.pixel_data[_237], gimp_image.pixel_data[_237]
# main_amiga_scroller_hdmi.c:116:   return (p3<<24 | p0 << 16 | p1 << 8 | p2);
	lbu	s8,12(s0)	# gimp_image.pixel_data[_299], gimp_image.pixel_data[_299]
# main_amiga_scroller_hdmi.c:116:   return (p3<<24 | p0 << 16 | p1 << 8 | p2);
	lbu	t2,12(t2)	# gimp_image.pixel_data[_265], gimp_image.pixel_data[_265]
# main_amiga_scroller_hdmi.c:116:   return (p3<<24 | p0 << 16 | p1 << 8 | p2);
	lbu	t3,12(t3)	# gimp_image.pixel_data[_271], gimp_image.pixel_data[_271]
	lbu	t1,12(t1)	# gimp_image.pixel_data[_301], gimp_image.pixel_data[_301]
	lbu	a1,12(a1)	# gimp_image.pixel_data[_331], gimp_image.pixel_data[_331]
# main_amiga_scroller_hdmi.c:116:   return (p3<<24 | p0 << 16 | p1 << 8 | p2);
	sw	t0,76(sp)	# gimp_image.pixel_data[_359], %sfp
# main_amiga_scroller_hdmi.c:116:   return (p3<<24 | p0 << 16 | p1 << 8 | p2);
	lbu	s6,12(a0)	# gimp_image.pixel_data[_415], gimp_image.pixel_data[_415]
# main_amiga_scroller_hdmi.c:112:   uint8_t p1 = gimp_image.pixel_data[(((x<<2) + 1)) + y*(320<<2)];
	lw	a0,20(sp)		# _294, %sfp
# main_amiga_scroller_hdmi.c:113:   uint8_t p2 = gimp_image.pixel_data[(((x<<2) + 2)) + y*(320<<2)];
	add	a7,a2,a6	# _384, tmp747, tmp432
# main_amiga_scroller_hdmi.c:114:   uint8_t p3 = gimp_image.pixel_data[(((x<<2) + 3)) + y*(320<<2)];
	add	a6,a3,a6	# _384, tmp753, tmp438
# main_amiga_scroller_hdmi.c:116:   return (p3<<24 | p0 << 16 | p1 << 8 | p2);
	lbu	s0,12(t5)	# gimp_image.pixel_data[_361], gimp_image.pixel_data[_361]
	lbu	s1,12(a6)	# gimp_image.pixel_data[_391], gimp_image.pixel_data[_391]
# main_amiga_scroller_hdmi.c:112:   uint8_t p1 = gimp_image.pixel_data[(((x<<2) + 1)) + y*(320<<2)];
	add	a6,a5,a0	# _294, tmp670, tmp445
	lw	a0,24(sp)		# _324, %sfp
# main_amiga_scroller_hdmi.c:116:   return (p3<<24 | p0 << 16 | p1 << 8 | p2);
	sw	s0,80(sp)	# gimp_image.pixel_data[_361], %sfp
# main_amiga_scroller_hdmi.c:116:   return (p3<<24 | p0 << 16 | p1 << 8 | p2);
	lbu	a7,12(a7)	# gimp_image.pixel_data[_389], gimp_image.pixel_data[_389]
# main_amiga_scroller_hdmi.c:112:   uint8_t p1 = gimp_image.pixel_data[(((x<<2) + 1)) + y*(320<<2)];
	add	s0,a5,a0	# _324, tmp700, tmp445
	lw	a0,28(sp)		# _354, %sfp
# main_amiga_scroller_hdmi.c:116:   return (p3<<24 | p0 << 16 | p1 << 8 | p2);
	sw	s1,88(sp)	# gimp_image.pixel_data[_391], %sfp
# main_amiga_scroller_hdmi.c:116:   return (p3<<24 | p0 << 16 | p1 << 8 | p2);
	sw	a7,84(sp)	# gimp_image.pixel_data[_389], %sfp
# main_amiga_scroller_hdmi.c:112:   uint8_t p1 = gimp_image.pixel_data[(((x<<2) + 1)) + y*(320<<2)];
	add	t0,a5,a0	# _354, tmp730, tmp445
	lw	a0,12(sp)		# _384, %sfp
	add	a7,a5,s3	# _264, tmp640, tmp445
# main_amiga_scroller_hdmi.c:116:   return (p3<<24 | p0 << 16 | p1 << 8 | p2);
	lbu	s3,12(s0)	# gimp_image.pixel_data[_327], gimp_image.pixel_data[_327]
# main_amiga_scroller_hdmi.c:112:   uint8_t p1 = gimp_image.pixel_data[(((x<<2) + 1)) + y*(320<<2)];
	add	t6,a5,a0	# _384, tmp760, tmp445
# main_amiga_scroller_hdmi.c:113:   uint8_t p2 = gimp_image.pixel_data[(((x<<2) + 2)) + y*(320<<2)];
	lw	a0,16(sp)		# _414, %sfp
# main_amiga_scroller_hdmi.c:116:   return (p3<<24 | p0 << 16 | p1 << 8 | p2);
	slli	s5,s5,16	#, tmp594, gimp_image.pixel_data[_235]
# main_amiga_scroller_hdmi.c:116:   return (p3<<24 | p0 << 16 | p1 << 8 | p2);
	or	s5,s5,s10	# gimp_image.pixel_data[_239], tmp600, tmp594
# main_amiga_scroller_hdmi.c:113:   uint8_t p2 = gimp_image.pixel_data[(((x<<2) + 2)) + y*(320<<2)];
	add	t5,a2,a0	# _414, tmp777, tmp432
# main_amiga_scroller_hdmi.c:114:   uint8_t p3 = gimp_image.pixel_data[(((x<<2) + 3)) + y*(320<<2)];
	add	a0,a3,a0	# _414, tmp783, tmp438
# main_amiga_scroller_hdmi.c:116:   return (p3<<24 | p0 << 16 | p1 << 8 | p2);
	lbu	s1,12(a0)	# gimp_image.pixel_data[_421], gimp_image.pixel_data[_421]
# main_amiga_scroller_hdmi.c:112:   uint8_t p1 = gimp_image.pixel_data[(((x<<2) + 1)) + y*(320<<2)];
	lw	a0,16(sp)		# _414, %sfp
# main_amiga_scroller_hdmi.c:116:   return (p3<<24 | p0 << 16 | p1 << 8 | p2);
	lbu	s0,12(t5)	# gimp_image.pixel_data[_419], gimp_image.pixel_data[_419]
# main_amiga_scroller_hdmi.c:116:   return (p3<<24 | p0 << 16 | p1 << 8 | p2);
	lw	s10,68(sp)		# gimp_image.pixel_data[_325], %sfp
# main_amiga_scroller_hdmi.c:112:   uint8_t p1 = gimp_image.pixel_data[(((x<<2) + 1)) + y*(320<<2)];
	add	a0,a5,a0	# _414, tmp790, tmp445
# main_amiga_scroller_hdmi.c:116:   return (p3<<24 | p0 << 16 | p1 << 8 | p2);
	sw	s0,20(sp)	# gimp_image.pixel_data[_419], %sfp
# main_amiga_scroller_hdmi.c:116:   return (p3<<24 | p0 << 16 | p1 << 8 | p2);
	lbu	s0,12(a0)	# gimp_image.pixel_data[_417], gimp_image.pixel_data[_417]
# main_amiga_scroller_hdmi.c:116:   return (p3<<24 | p0 << 16 | p1 << 8 | p2);
	lw	a0,48(sp)		# gimp_image.pixel_data[_241], %sfp
# main_amiga_scroller_hdmi.c:116:   return (p3<<24 | p0 << 16 | p1 << 8 | p2);
	lbu	s2,12(t0)	# gimp_image.pixel_data[_357], gimp_image.pixel_data[_357]
# main_amiga_scroller_hdmi.c:116:   return (p3<<24 | p0 << 16 | p1 << 8 | p2);
	slli	t2,t2,16	#, tmp624, gimp_image.pixel_data[_265]
# main_amiga_scroller_hdmi.c:116:   return (p3<<24 | p0 << 16 | p1 << 8 | p2);
	slli	a0,a0,24	#, tmp606, gimp_image.pixel_data[_241]
# main_amiga_scroller_hdmi.c:116:   return (p3<<24 | p0 << 16 | p1 << 8 | p2);
	or	a0,s5,a0	# tmp606, tmp607, tmp600
	lw	s5,60(sp)		# gimp_image.pixel_data[_269], %sfp
# main_amiga_scroller_hdmi.c:116:   return (p3<<24 | p0 << 16 | p1 << 8 | p2);
	lbu	t0,12(t6)	# gimp_image.pixel_data[_387], gimp_image.pixel_data[_387]
# main_amiga_scroller_hdmi.c:116:   return (p3<<24 | p0 << 16 | p1 << 8 | p2);
	slli	t6,s10,16	#, tmp684, gimp_image.pixel_data[_325]
	lw	s10,72(sp)		# gimp_image.pixel_data[_355], %sfp
# main_amiga_scroller_hdmi.c:116:   return (p3<<24 | p0 << 16 | p1 << 8 | p2);
	or	t2,t2,s5	# gimp_image.pixel_data[_269], tmp630, tmp624
	lw	s5,76(sp)		# gimp_image.pixel_data[_359], %sfp
# main_amiga_scroller_hdmi.c:116:   return (p3<<24 | p0 << 16 | p1 << 8 | p2);
	slli	t5,s10,16	#, tmp714, gimp_image.pixel_data[_355]
# main_amiga_scroller_hdmi.c:116:   return (p3<<24 | p0 << 16 | p1 << 8 | p2);
	sw	t0,12(sp)	# gimp_image.pixel_data[_387], %sfp
# main_amiga_scroller_hdmi.c:116:   return (p3<<24 | p0 << 16 | p1 << 8 | p2);
	or	t5,t5,s5	# gimp_image.pixel_data[_359], tmp720, tmp714
# main_amiga_scroller_hdmi.c:116:   return (p3<<24 | p0 << 16 | p1 << 8 | p2);
	lw	s5,80(sp)		# gimp_image.pixel_data[_361], %sfp
# main_amiga_scroller_hdmi.c:116:   return (p3<<24 | p0 << 16 | p1 << 8 | p2);
	lw	t0,64(sp)		# gimp_image.pixel_data[_295], %sfp
	slli	t4,t4,16	#, tmp744, gimp_image.pixel_data[_385]
# main_amiga_scroller_hdmi.c:116:   return (p3<<24 | p0 << 16 | p1 << 8 | p2);
	slli	s10,s5,24	#, tmp726, gimp_image.pixel_data[_361]
# main_amiga_scroller_hdmi.c:116:   return (p3<<24 | p0 << 16 | p1 << 8 | p2);
	lw	s5,84(sp)		# gimp_image.pixel_data[_389], %sfp
# main_amiga_scroller_hdmi.c:116:   return (p3<<24 | p0 << 16 | p1 << 8 | p2);
	slli	t0,t0,16	#, tmp654, gimp_image.pixel_data[_295]
# main_amiga_scroller_hdmi.c:116:   return (p3<<24 | p0 << 16 | p1 << 8 | p2);
	or	t0,t0,s8	# gimp_image.pixel_data[_299], tmp660, tmp654
	or	t4,t4,s5	# gimp_image.pixel_data[_389], tmp750, tmp744
# main_amiga_scroller_hdmi.c:116:   return (p3<<24 | p0 << 16 | p1 << 8 | p2);
	slli	t1,t1,24	#, tmp666, gimp_image.pixel_data[_301]
	lw	s5,88(sp)		# gimp_image.pixel_data[_391], %sfp
# main_amiga_scroller_hdmi.c:116:   return (p3<<24 | p0 << 16 | p1 << 8 | p2);
	or	t1,t0,t1	# tmp666, tmp667, tmp660
# main_amiga_scroller_hdmi.c:116:   return (p3<<24 | p0 << 16 | p1 << 8 | p2);
	lbu	a7,12(a7)	# gimp_image.pixel_data[_267], gimp_image.pixel_data[_267]
	lbu	a6,12(a6)	# gimp_image.pixel_data[_297], gimp_image.pixel_data[_297]
	lw	t0,12(sp)		# gimp_image.pixel_data[_387], %sfp
# main_amiga_scroller_hdmi.c:116:   return (p3<<24 | p0 << 16 | p1 << 8 | p2);
	slli	s5,s5,24	#, tmp756, gimp_image.pixel_data[_391]
# main_amiga_scroller_hdmi.c:116:   return (p3<<24 | p0 << 16 | p1 << 8 | p2);
	or	s5,t4,s5	# tmp756, tmp757, tmp750
# main_amiga_scroller_hdmi.c:116:   return (p3<<24 | p0 << 16 | p1 << 8 | p2);
	slli	t4,t0,8	#, tmp763, gimp_image.pixel_data[_387]
# main_amiga_scroller_hdmi.c:116:   return (p3<<24 | p0 << 16 | p1 << 8 | p2);
	lw	t0,20(sp)		# gimp_image.pixel_data[_419], %sfp
	or	t6,t6,s7	# gimp_image.pixel_data[_329], tmp690, tmp684
# main_amiga_scroller_hdmi.c:116:   return (p3<<24 | p0 << 16 | p1 << 8 | p2);
	slli	s4,s4,8	#, tmp613, gimp_image.pixel_data[_237]
# main_amiga_scroller_hdmi.c:116:   return (p3<<24 | p0 << 16 | p1 << 8 | p2);
	slli	a1,a1,24	#, tmp696, gimp_image.pixel_data[_331]
# main_amiga_scroller_hdmi.c:116:   return (p3<<24 | p0 << 16 | p1 << 8 | p2);
	slli	s6,s6,16	#, tmp774, gimp_image.pixel_data[_415]
# main_amiga_scroller_hdmi.c:116:   return (p3<<24 | p0 << 16 | p1 << 8 | p2);
	or	a0,a0,s4	# tmp613, tmp614, tmp607
	or	a1,t6,a1	# tmp696, tmp697, tmp690
# main_amiga_scroller_hdmi.c:116:   return (p3<<24 | p0 << 16 | p1 << 8 | p2);
	slli	s3,s3,8	#, tmp703, gimp_image.pixel_data[_327]
# main_amiga_scroller_hdmi.c:116:   return (p3<<24 | p0 << 16 | p1 << 8 | p2);
	or	s6,s6,t0	# gimp_image.pixel_data[_419], tmp780, tmp774
# main_amiga_scroller_hdmi.c:116:   return (p3<<24 | p0 << 16 | p1 << 8 | p2);
	slli	s1,s1,24	#, tmp786, gimp_image.pixel_data[_421]
# main_amiga_scroller_hdmi.c:135:     *(fb + y*HRES) = getbmpLine(col + xoff, y + yoff);
	sw	a0,1920(s11)	# tmp614, MEM[(uint32_t *)fb_19(D) + 1920B]
# main_amiga_scroller_hdmi.c:116:   return (p3<<24 | p0 << 16 | p1 << 8 | p2);
	or	a1,a1,s3	# tmp703, tmp704, tmp697
	or	s6,s6,s1	# tmp786, tmp787, tmp780
# main_amiga_scroller_hdmi.c:116:   return (p3<<24 | p0 << 16 | p1 << 8 | p2);
	slli	s0,s0,8	#, tmp793, gimp_image.pixel_data[_417]
# main_amiga_scroller_hdmi.c:111:   uint8_t p0 = gimp_image.pixel_data[(((x<<2) + 0)) + y*(320<<2)];
	lw	s1,56(sp)		# _474, %sfp
# main_amiga_scroller_hdmi.c:135:     *(fb + y*HRES) = getbmpLine(col + xoff, y + yoff);
	sw	a1,-1216(s9)	# tmp704, MEM[(uint32_t *)fb_19(D) + 2880B]
# main_amiga_scroller_hdmi.c:116:   return (p3<<24 | p0 << 16 | p1 << 8 | p2);
	or	s10,t5,s10	# tmp726, tmp727, tmp720
	or	a1,s6,s0	# tmp793, tmp794, tmp787
# main_amiga_scroller_hdmi.c:116:   return (p3<<24 | p0 << 16 | p1 << 8 | p2);
	slli	s2,s2,8	#, tmp733, gimp_image.pixel_data[_357]
# main_amiga_scroller_hdmi.c:111:   uint8_t p0 = gimp_image.pixel_data[(((x<<2) + 0)) + y*(320<<2)];
	lw	s0,52(sp)		# _444, %sfp
# main_amiga_scroller_hdmi.c:114:   uint8_t p3 = gimp_image.pixel_data[(((x<<2) + 3)) + y*(320<<2)];
	lw	t6,44(sp)		# _32, %sfp
# main_amiga_scroller_hdmi.c:116:   return (p3<<24 | p0 << 16 | p1 << 8 | p2);
	or	s10,s10,s2	# tmp733, tmp734, tmp727
# main_amiga_scroller_hdmi.c:116:   return (p3<<24 | p0 << 16 | p1 << 8 | p2);
	slli	t3,t3,24	#, tmp636, gimp_image.pixel_data[_271]
# main_amiga_scroller_hdmi.c:113:   uint8_t p2 = gimp_image.pixel_data[(((x<<2) + 2)) + y*(320<<2)];
	lw	s2,92(sp)		# tmp868, %sfp
# main_amiga_scroller_hdmi.c:116:   return (p3<<24 | p0 << 16 | p1 << 8 | p2);
	slli	a6,a6,8	#, tmp673, gimp_image.pixel_data[_297]
# main_amiga_scroller_hdmi.c:116:   return (p3<<24 | p0 << 16 | p1 << 8 | p2);
	or	t3,t2,t3	# tmp636, tmp637, tmp630
	or	a6,t1,a6	# tmp673, tmp674, tmp667
	or	s5,s5,t4	# tmp763, tmp764, tmp757
# main_amiga_scroller_hdmi.c:116:   return (p3<<24 | p0 << 16 | p1 << 8 | p2);
	slli	a7,a7,8	#, tmp643, gimp_image.pixel_data[_267]
# main_amiga_scroller_hdmi.c:111:   uint8_t p0 = gimp_image.pixel_data[(((x<<2) + 0)) + y*(320<<2)];
	lw	t4,32(sp)		# _23, %sfp
# main_amiga_scroller_hdmi.c:113:   uint8_t p2 = gimp_image.pixel_data[(((x<<2) + 2)) + y*(320<<2)];
	lw	t5,40(sp)		# _29, %sfp
# main_amiga_scroller_hdmi.c:116:   return (p3<<24 | p0 << 16 | p1 << 8 | p2);
	or	a7,t3,a7	# tmp643, tmp644, tmp637
# main_amiga_scroller_hdmi.c:135:     *(fb + y*HRES) = getbmpLine(col + xoff, y + yoff);
	sw	a6,-1536(s9)	# tmp674, MEM[(uint32_t *)fb_19(D) + 2560B]
# main_amiga_scroller_hdmi.c:113:   uint8_t p2 = gimp_image.pixel_data[(((x<<2) + 2)) + y*(320<<2)];
	add	t3,a2,s0	# _444, tmp807, tmp432
# main_amiga_scroller_hdmi.c:111:   uint8_t p0 = gimp_image.pixel_data[(((x<<2) + 0)) + y*(320<<2)];
	add	a6,a4,s1	# _474, tmp831, tmp426
# main_amiga_scroller_hdmi.c:113:   uint8_t p2 = gimp_image.pixel_data[(((x<<2) + 2)) + y*(320<<2)];
	add	a2,a2,s1	# _474, tmp837, tmp432
# main_amiga_scroller_hdmi.c:135:     *(fb + y*HRES) = getbmpLine(col + xoff, y + yoff);
	sw	a1,-256(s9)	# tmp794, MEM[(uint32_t *)fb_19(D) + 3840B]
# main_amiga_scroller_hdmi.c:116:   return (p3<<24 | p0 << 16 | p1 << 8 | p2);
	lbu	a1,12(a6)	# gimp_image.pixel_data[_475], gimp_image.pixel_data[_475]
# main_amiga_scroller_hdmi.c:114:   uint8_t p3 = gimp_image.pixel_data[(((x<<2) + 3)) + y*(320<<2)];
	add	a6,s2,t6	# _32, tmp873, tmp868
# main_amiga_scroller_hdmi.c:116:   return (p3<<24 | p0 << 16 | p1 << 8 | p2);
	lbu	t6,12(a2)	# gimp_image.pixel_data[_479], gimp_image.pixel_data[_479]
# main_amiga_scroller_hdmi.c:112:   uint8_t p1 = gimp_image.pixel_data[(((x<<2) + 1)) + y*(320<<2)];
	lw	a2,36(sp)		# _26, %sfp
# main_amiga_scroller_hdmi.c:111:   uint8_t p0 = gimp_image.pixel_data[(((x<<2) + 0)) + y*(320<<2)];
	add	a0,a4,s0	# _444, tmp801, tmp426
	add	a4,a4,t4	# _23, tmp861, tmp426
# main_amiga_scroller_hdmi.c:114:   uint8_t p3 = gimp_image.pixel_data[(((x<<2) + 3)) + y*(320<<2)];
	add	t1,a3,s0	# _444, tmp813, tmp438
# main_amiga_scroller_hdmi.c:116:   return (p3<<24 | p0 << 16 | p1 << 8 | p2);
	lbu	a0,12(a0)	# gimp_image.pixel_data[_445], gimp_image.pixel_data[_445]
	lbu	a4,12(a4)	# gimp_image.pixel_data[_24], gimp_image.pixel_data[_24]
# main_amiga_scroller_hdmi.c:135:     *(fb + y*HRES) = getbmpLine(col + xoff, y + yoff);
	sw	a7,-1856(s9)	# tmp644, MEM[(uint32_t *)fb_19(D) + 2240B]
# main_amiga_scroller_hdmi.c:114:   uint8_t p3 = gimp_image.pixel_data[(((x<<2) + 3)) + y*(320<<2)];
	add	a3,a3,s1	# _474, tmp843, tmp438
# main_amiga_scroller_hdmi.c:113:   uint8_t p2 = gimp_image.pixel_data[(((x<<2) + 2)) + y*(320<<2)];
	add	a7,s2,t5	# _29, tmp867, tmp868
# main_amiga_scroller_hdmi.c:116:   return (p3<<24 | p0 << 16 | p1 << 8 | p2);
	lbu	t0,12(t3)	# gimp_image.pixel_data[_449], gimp_image.pixel_data[_449]
# main_amiga_scroller_hdmi.c:116:   return (p3<<24 | p0 << 16 | p1 << 8 | p2);
	lbu	t5,12(t1)	# gimp_image.pixel_data[_451], gimp_image.pixel_data[_451]
	lbu	t4,12(a3)	# gimp_image.pixel_data[_481], gimp_image.pixel_data[_481]
# main_amiga_scroller_hdmi.c:116:   return (p3<<24 | p0 << 16 | p1 << 8 | p2);
	lbu	t2,12(a7)	# gimp_image.pixel_data[_30], gimp_image.pixel_data[_30]
# main_amiga_scroller_hdmi.c:112:   uint8_t p1 = gimp_image.pixel_data[(((x<<2) + 1)) + y*(320<<2)];
	add	a3,a5,s0	# _444, tmp820, tmp445
# main_amiga_scroller_hdmi.c:116:   return (p3<<24 | p0 << 16 | p1 << 8 | p2);
	lbu	t3,12(a6)	# gimp_image.pixel_data[_33], gimp_image.pixel_data[_33]
# main_amiga_scroller_hdmi.c:112:   uint8_t p1 = gimp_image.pixel_data[(((x<<2) + 1)) + y*(320<<2)];
	add	a5,a5,s1	# _474, tmp850, tmp445
	add	a2,s2,a2	# _26, tmp880, tmp868
# main_amiga_scroller_hdmi.c:116:   return (p3<<24 | p0 << 16 | p1 << 8 | p2);
	lbu	t1,12(a3)	# gimp_image.pixel_data[_447], gimp_image.pixel_data[_447]
	lbu	a7,12(a5)	# gimp_image.pixel_data[_477], gimp_image.pixel_data[_477]
	lbu	a6,12(a2)	# gimp_image.pixel_data[_27], gimp_image.pixel_data[_27]
# main_amiga_scroller_hdmi.c:116:   return (p3<<24 | p0 << 16 | p1 << 8 | p2);
	slli	a3,a1,16	#, tmp834, gimp_image.pixel_data[_475]
	slli	a2,a0,16	#, tmp804, gimp_image.pixel_data[_445]
	slli	a5,a4,16	#, tmp864, gimp_image.pixel_data[_24]
# main_amiga_scroller_hdmi.c:137: }
	lw	s0,140(sp)		#,
# main_amiga_scroller_hdmi.c:116:   return (p3<<24 | p0 << 16 | p1 << 8 | p2);
	or	a2,a2,t0	# gimp_image.pixel_data[_449], tmp810, tmp804
	or	a4,a3,t6	# gimp_image.pixel_data[_479], tmp840, tmp834
# main_amiga_scroller_hdmi.c:116:   return (p3<<24 | p0 << 16 | p1 << 8 | p2);
	slli	t5,t5,24	#, tmp816, gimp_image.pixel_data[_451]
	slli	t4,t4,24	#, tmp846, gimp_image.pixel_data[_481]
# main_amiga_scroller_hdmi.c:116:   return (p3<<24 | p0 << 16 | p1 << 8 | p2);
	or	a5,a5,t2	# gimp_image.pixel_data[_30], tmp870, tmp864
# main_amiga_scroller_hdmi.c:116:   return (p3<<24 | p0 << 16 | p1 << 8 | p2);
	slli	t3,t3,24	#, tmp876, gimp_image.pixel_data[_33]
# main_amiga_scroller_hdmi.c:116:   return (p3<<24 | p0 << 16 | p1 << 8 | p2);
	or	a3,a2,t5	# tmp816, tmp817, tmp810
# main_amiga_scroller_hdmi.c:116:   return (p3<<24 | p0 << 16 | p1 << 8 | p2);
	slli	a0,t1,8	#, tmp823, gimp_image.pixel_data[_447]
# main_amiga_scroller_hdmi.c:116:   return (p3<<24 | p0 << 16 | p1 << 8 | p2);
	or	a4,a4,t4	# tmp846, tmp847, tmp840
# main_amiga_scroller_hdmi.c:116:   return (p3<<24 | p0 << 16 | p1 << 8 | p2);
	slli	a1,a7,8	#, tmp853, gimp_image.pixel_data[_477]
# main_amiga_scroller_hdmi.c:116:   return (p3<<24 | p0 << 16 | p1 << 8 | p2);
	or	a5,a5,t3	# tmp876, tmp877, tmp870
# main_amiga_scroller_hdmi.c:116:   return (p3<<24 | p0 << 16 | p1 << 8 | p2);
	slli	a2,a6,8	#, tmp883, gimp_image.pixel_data[_27]
# main_amiga_scroller_hdmi.c:116:   return (p3<<24 | p0 << 16 | p1 << 8 | p2);
	or	a3,a3,a0	# tmp823, tmp824, tmp817
	or	a4,a4,a1	# tmp853, tmp854, tmp847
	or	a5,a5,a2	# tmp883, tmp884, tmp877
# main_amiga_scroller_hdmi.c:135:     *(fb + y*HRES) = getbmpLine(col + xoff, y + yoff);
	sw	s10,-896(s9)	# tmp734, MEM[(uint32_t *)fb_19(D) + 3200B]
	sw	s5,-576(s9)	# tmp764, MEM[(uint32_t *)fb_19(D) + 3520B]
	sw	a3,64(s9)	# tmp824, MEM[(uint32_t *)fb_19(D) + 4160B]
	sw	a4,384(s9)	# tmp854, MEM[(uint32_t *)fb_19(D) + 4480B]
	sw	a5,704(s9)	# tmp884, MEM[(uint32_t *)fb_19(D) + 4800B]
# main_amiga_scroller_hdmi.c:137: }
	lw	s1,136(sp)		#,
	lw	s2,132(sp)		#,
	lw	s3,128(sp)		#,
	lw	s4,124(sp)		#,
	lw	s5,120(sp)		#,
	lw	s6,116(sp)		#,
	lw	s7,112(sp)		#,
	lw	s8,108(sp)		#,
	lw	s9,104(sp)		#,
	lw	s10,100(sp)		#,
	lw	s11,96(sp)		#,
	addi	sp,sp,144	#,,
	jr	ra		#
	.size	render_glyph_col, .-render_glyph_col
	.align	2
	.globl	getFbAddrOffset
	.type	getFbAddrOffset, @function
getFbAddrOffset:
# main_amiga_scroller_hdmi.c:140:   return x + y*HRES;
	slli	a5,a1,2	#, tmp79, tmp83
	add	a1,a5,a1	# tmp83, tmp80, tmp79
	slli	a1,a1,4	#, tmp81, tmp80
# main_amiga_scroller_hdmi.c:141: }
	add	a0,a1,a0	# tmp82,, tmp81
	ret	
	.size	getFbAddrOffset, .-getFbAddrOffset
	.section	.text.startup,"ax",@progbits
	.align	2
	.globl	main
	.type	main, @function
main:
	addi	sp,sp,-256	#,,
# main_amiga_scroller_hdmi.c:150:   char *p = msg;
	lui	a1,%hi(.LANCHOR1)	# tmp1078,
# main_amiga_scroller_hdmi.c:148: void main() {
	sw	s2,240(sp)	#,
	sw	s4,232(sp)	#,
# main_amiga_scroller_hdmi.c:150:   char *p = msg;
	addi	s2,a1,%lo(.LANCHOR1)	# tmp1083, tmp1078,
	addi	s4,a1,%lo(.LANCHOR1)	# p, tmp1078,
	lui	a1,%hi(scroll_buf)	# tmp1082,
# main_amiga_scroller_hdmi.c:148: void main() {
	sw	s3,236(sp)	#,
	addi	s3,a1,%lo(scroll_buf)	# _428, tmp1082,
	lui	a1,%hi(gimp_image)	# tmp1076,
	addi	a1,a1,%lo(gimp_image)	# tmp1080, tmp1076,
	sw	a1,172(sp)	# tmp1080, %sfp
	lui	a1,%hi(scroll_buf+4096)	# tmp1086,
	sw	s1,244(sp)	#,
# main_amiga_scroller_hdmi.c:111:   uint8_t p0 = gimp_image.pixel_data[(((x<<2) + 0)) + y*(320<<2)];
	li	a4,12288		# tmp716,
	addi	s1,a1,%lo(scroll_buf+4096)	# tmp1081, tmp1086,
	lui	a1,%hi(scroll_buf+4)	# tmp1075,
	addi	a1,a1,%lo(scroll_buf+4)	# ivtmp.389, tmp1075,
	addi	a4,a4,1792	#, tmp811, tmp716
	li	a5,4096		# tmp532,
	li	a3,16384		# tmp844,
# kianv_stdlib.h:53:   *( (volatile uint32_t*) DMA_LEN  ) = len;
	addi	a5,a5,704	#, tmp977, tmp532
# main_amiga_scroller_hdmi.c:153:   int j = 0;
	sw	zero,16(sp)	#, %sfp
	sw	a1,168(sp)	# ivtmp.389, %sfp
# main_amiga_scroller_hdmi.c:111:   uint8_t p0 = gimp_image.pixel_data[(((x<<2) + 0)) + y*(320<<2)];
	sw	a4,144(sp)	# tmp811, %sfp
	lui	a1,%hi(scroll_buf+316)	# tmp1088,
	addi	a4,a3,1536	#, tmp907, tmp844
	addi	a1,a1,%lo(scroll_buf+316)	# ivtmp.373, tmp1088,
	li	a2,8192		# tmp622,
	sw	a4,148(sp)	# tmp907, %sfp
# kianv_stdlib.h:53:   *( (volatile uint32_t*) DMA_LEN  ) = len;
	sw	a5,160(sp)	# tmp977, %sfp
# main_amiga_scroller_hdmi.c:111:   uint8_t p0 = gimp_image.pixel_data[(((x<<2) + 0)) + y*(320<<2)];
	li	a4,20480		# tmp940,
	lw	a5,16(sp)		# j, %sfp
	sw	a1,164(sp)	# ivtmp.373, %sfp
	addi	a2,a2,768	#, tmp683, tmp622
	lui	a1,%hi(scroll_buf+5436)	# tmp1089,
	addi	a4,a4,-1280	#, tmp939, tmp940
# main_amiga_scroller_hdmi.c:148: void main() {
	sw	s9,212(sp)	#,
	sw	s10,208(sp)	#,
	sw	ra,252(sp)	#,
	sw	s0,248(sp)	#,
	sw	s5,228(sp)	#,
	sw	s6,224(sp)	#,
	sw	s7,220(sp)	#,
	sw	s8,216(sp)	#,
	sw	s11,204(sp)	#,
# main_amiga_scroller_hdmi.c:149:   int fb = 0;
	sw	zero,12(sp)	#, %sfp
	addi	s10,a1,%lo(scroll_buf+5436)	# _432, tmp1089,
# main_amiga_scroller_hdmi.c:111:   uint8_t p0 = gimp_image.pixel_data[(((x<<2) + 0)) + y*(320<<2)];
	sw	a2,140(sp)	# tmp683, %sfp
	sw	a4,152(sp)	# tmp939, %sfp
	mv	s9,s4	# p, p
.L316:
# kianv_stdlib.h:51:   *( (volatile uint32_t*) DMA_SRC  ) = src;
	li	s7,805306368		# tmp972,
	addi	s8,a5,79	#, ivtmp.403, j
# main_amiga_scroller_hdmi.c:156:     for (int col = 0; col < 16; col++) {
	sw	zero,20(sp)	#, %sfp
	li	s6,79		# tmp983,
	sw	s9,28(sp)	# p, %sfp
.L326:
# main_amiga_scroller_hdmi.c:131:   a -= 32;
	lw	a5,28(sp)		# p, %sfp
# main_amiga_scroller_hdmi.c:133:     int yoff = (a / 20) <<4;
	li	a3,20		# tmp1131,
# main_amiga_scroller_hdmi.c:135:     *(fb + y*HRES) = getbmpLine(col + xoff, y + yoff);
	lw	a1,20(sp)		# col, %sfp
# main_amiga_scroller_hdmi.c:131:   a -= 32;
	lbu	a4,0(a5)	# *p_34, *p_34
	addi	a4,a4,-32	#, tmp459, *p_34
	andi	a4,a4,0xff	# a, tmp459
# main_amiga_scroller_hdmi.c:133:     int yoff = (a / 20) <<4;
	divu	a5,a4,a3	# tmp1131, tmp469, a
# main_amiga_scroller_hdmi.c:134:     int xoff = (a % 20) <<4;
	remu	a4,a4,a3	# tmp1132, tmp463, a
# main_amiga_scroller_hdmi.c:133:     int yoff = (a / 20) <<4;
	slli	a3,a5,4	#, yoff, tmp469
# main_amiga_scroller_hdmi.c:111:   uint8_t p0 = gimp_image.pixel_data[(((x<<2) + 0)) + y*(320<<2)];
	slli	a5,a5,6	#, tmp472, tmp469
	add	a5,a5,a3	# yoff, tmp473, tmp472
	li	a3,4096		# tmp1134,
	slli	a5,a5,8	#, tmp474, tmp473
	addi	a2,a3,-1536	#, tmp1133, tmp1134
	add	s4,a5,a2	# tmp1133, _364, tmp474
	addi	a2,a3,-256	#, tmp1135, tmp1136
	addi	a3,a3,1024	#, tmp1137, tmp1138
	add	ra,a5,a3	# tmp1137, _304, tmp474
	li	a3,8192		# tmp1140,
	add	s0,a5,a2	# tmp1135, _334, tmp474
	addi	a2,a3,-1792	#, tmp1139, tmp1140
	addi	a3,a3,-512	#, tmp1141, tmp1142
	add	t5,a5,a3	# tmp1141, _244, tmp474
	lw	a3,140(sp)		# tmp683, %sfp
	add	t2,a5,a2	# tmp1139, _274, tmp474
	addi	s5,a5,1280	#, _394, tmp474
	add	t4,a5,a3	# tmp683, _214, tmp474
	li	a3,12288		# tmp1145,
	addi	a2,a3,-2048	#, tmp1144, tmp1145
	add	t3,a5,a2	# tmp1144, _184, tmp474
	addi	a2,a3,-768	#, tmp1146, tmp1147
	addi	a3,a3,512	#, tmp1148, tmp1149
	add	a7,a5,a3	# tmp1148, _447, tmp474
	lw	a3,144(sp)		# tmp811, %sfp
	add	t1,a5,a2	# tmp1146, _140, tmp474
	add	a6,a5,a3	# tmp811, _477, tmp474
	li	a3,16384		# tmp1152,
	addi	a2,a3,-1024	#, tmp1151, tmp1152
	addi	a3,a3,256	#, tmp1153, tmp1154
	add	a0,a5,a3	# tmp1153, _537, tmp474
	lw	a3,148(sp)		# tmp907, %sfp
# main_amiga_scroller_hdmi.c:134:     int xoff = (a % 20) <<4;
	slli	a4,a4,4	#, xoff, tmp463
# main_amiga_scroller_hdmi.c:135:     *(fb + y*HRES) = getbmpLine(col + xoff, y + yoff);
	add	a4,a4,a1	# col, tmp465, xoff
# main_amiga_scroller_hdmi.c:111:   uint8_t p0 = gimp_image.pixel_data[(((x<<2) + 0)) + y*(320<<2)];
	add	t6,a5,a3	# tmp907, _567, tmp474
	lw	a3,152(sp)		# tmp939, %sfp
	sw	t6,48(sp)	# _567, %sfp
# main_amiga_scroller_hdmi.c:113:   uint8_t p2 = gimp_image.pixel_data[(((x<<2) + 2)) + y*(320<<2)];
	lw	t6,172(sp)		# tmp1080, %sfp
# main_amiga_scroller_hdmi.c:111:   uint8_t p0 = gimp_image.pixel_data[(((x<<2) + 0)) + y*(320<<2)];
	add	a3,a5,a3	# tmp939, _86, tmp474
	add	t0,a5,a2	# tmp1151, _507, tmp474
# main_amiga_scroller_hdmi.c:111:   uint8_t p0 = gimp_image.pixel_data[(((x<<2) + 0)) + y*(320<<2)];
	slli	a4,a4,2	#, _85, tmp465
# main_amiga_scroller_hdmi.c:113:   uint8_t p2 = gimp_image.pixel_data[(((x<<2) + 2)) + y*(320<<2)];
	add	a2,t6,a3	# _86, tmp954, tmp1080
# main_amiga_scroller_hdmi.c:111:   uint8_t p0 = gimp_image.pixel_data[(((x<<2) + 0)) + y*(320<<2)];
	add	a1,t6,a4	# _85, tmp480, tmp1080
# main_amiga_scroller_hdmi.c:113:   uint8_t p2 = gimp_image.pixel_data[(((x<<2) + 2)) + y*(320<<2)];
	addi	s11,a4,2	#, _92, _85
# main_amiga_scroller_hdmi.c:113:   uint8_t p2 = gimp_image.pixel_data[(((x<<2) + 2)) + y*(320<<2)];
	sw	a2,156(sp)	# tmp954, %sfp
# main_amiga_scroller_hdmi.c:114:   uint8_t p3 = gimp_image.pixel_data[(((x<<2) + 3)) + y*(320<<2)];
	addi	a2,a4,3	#, _95, _85
# main_amiga_scroller_hdmi.c:112:   uint8_t p1 = gimp_image.pixel_data[(((x<<2) + 1)) + y*(320<<2)];
	addi	a4,a4,1	#, _89, _85
	sw	a4,24(sp)	# _89, %sfp
# main_amiga_scroller_hdmi.c:111:   uint8_t p0 = gimp_image.pixel_data[(((x<<2) + 0)) + y*(320<<2)];
	sw	a0,44(sp)	# _537, %sfp
# main_amiga_scroller_hdmi.c:114:   uint8_t p3 = gimp_image.pixel_data[(((x<<2) + 3)) + y*(320<<2)];
	mv	a0,a2	# _95, _95
# main_amiga_scroller_hdmi.c:113:   uint8_t p2 = gimp_image.pixel_data[(((x<<2) + 2)) + y*(320<<2)];
	sw	a3,32(sp)	# _86, %sfp
# main_amiga_scroller_hdmi.c:114:   uint8_t p3 = gimp_image.pixel_data[(((x<<2) + 3)) + y*(320<<2)];
	sw	a0,40(sp)	# _95, %sfp
	add	a3,t6,a0	# _95, tmp492, tmp1080
# main_amiga_scroller_hdmi.c:112:   uint8_t p1 = gimp_image.pixel_data[(((x<<2) + 1)) + y*(320<<2)];
	lw	a0,24(sp)		# _89, %sfp
# main_amiga_scroller_hdmi.c:111:   uint8_t p0 = gimp_image.pixel_data[(((x<<2) + 0)) + y*(320<<2)];
	add	a4,a1,t2	# _274, tmp627, tmp480
	mv	s9,a4	# tmp627, tmp627
# main_amiga_scroller_hdmi.c:112:   uint8_t p1 = gimp_image.pixel_data[(((x<<2) + 1)) + y*(320<<2)];
	add	a4,t6,a0	# _89, tmp499, tmp1080
# main_amiga_scroller_hdmi.c:116:   return (p3<<24 | p0 << 16 | p1 << 8 | p2);
	add	a0,a1,s5	# _394, tmp507, tmp480
	lbu	a0,12(a0)	# gimp_image.pixel_data[_393], gimp_image.pixel_data[_393]
# main_amiga_scroller_hdmi.c:113:   uint8_t p2 = gimp_image.pixel_data[(((x<<2) + 2)) + y*(320<<2)];
	add	a2,t6,s11	# _92, tmp486, tmp1080
	sw	s11,36(sp)	# _92, %sfp
# main_amiga_scroller_hdmi.c:116:   return (p3<<24 | p0 << 16 | p1 << 8 | p2);
	sw	a0,60(sp)	# gimp_image.pixel_data[_393], %sfp
	add	a0,a1,s4	# _364, tmp537, tmp480
	lbu	a0,12(a0)	# gimp_image.pixel_data[_363], gimp_image.pixel_data[_363]
# main_amiga_scroller_hdmi.c:111:   uint8_t p0 = gimp_image.pixel_data[(((x<<2) + 0)) + y*(320<<2)];
	add	s11,a1,a5	# tmp474, tmp479, tmp480
# main_amiga_scroller_hdmi.c:116:   return (p3<<24 | p0 << 16 | p1 << 8 | p2);
	lbu	s11,12(s11)	# gimp_image.pixel_data[_423], gimp_image.pixel_data[_423]
	sw	a0,76(sp)	# gimp_image.pixel_data[_363], %sfp
	add	a0,a1,s0	# _334, tmp567, tmp480
	sw	s11,52(sp)	# gimp_image.pixel_data[_423], %sfp
	lbu	s11,12(a0)	# gimp_image.pixel_data[_333], gimp_image.pixel_data[_333]
	add	a0,a1,ra	# _304, tmp597, tmp480
	lbu	a0,12(a0)	# gimp_image.pixel_data[_303], gimp_image.pixel_data[_303]
	sw	s11,92(sp)	# gimp_image.pixel_data[_333], %sfp
# main_amiga_scroller_hdmi.c:113:   uint8_t p2 = gimp_image.pixel_data[(((x<<2) + 2)) + y*(320<<2)];
	add	s11,a2,a5	# tmp474, tmp485, tmp486
# main_amiga_scroller_hdmi.c:116:   return (p3<<24 | p0 << 16 | p1 << 8 | p2);
	sw	a0,108(sp)	# gimp_image.pixel_data[_303], %sfp
	lbu	a0,12(s9)	# gimp_image.pixel_data[_273], gimp_image.pixel_data[_273]
# main_amiga_scroller_hdmi.c:116:   return (p3<<24 | p0 << 16 | p1 << 8 | p2);
	lbu	s11,12(s11)	# gimp_image.pixel_data[_419], gimp_image.pixel_data[_419]
# main_amiga_scroller_hdmi.c:114:   uint8_t p3 = gimp_image.pixel_data[(((x<<2) + 3)) + y*(320<<2)];
	add	s9,a3,t2	# _274, tmp639, tmp492
	mv	t6,s9	# tmp639, tmp639
# main_amiga_scroller_hdmi.c:116:   return (p3<<24 | p0 << 16 | p1 << 8 | p2);
	sw	a0,124(sp)	# gimp_image.pixel_data[_273], %sfp
# main_amiga_scroller_hdmi.c:116:   return (p3<<24 | p0 << 16 | p1 << 8 | p2);
	add	s9,a2,s5	# _394, tmp513, tmp486
# main_amiga_scroller_hdmi.c:114:   uint8_t p3 = gimp_image.pixel_data[(((x<<2) + 3)) + y*(320<<2)];
	add	a0,a3,a5	# tmp474, tmp491, tmp492
# main_amiga_scroller_hdmi.c:116:   return (p3<<24 | p0 << 16 | p1 << 8 | p2);
	sw	s11,56(sp)	# gimp_image.pixel_data[_419], %sfp
# main_amiga_scroller_hdmi.c:116:   return (p3<<24 | p0 << 16 | p1 << 8 | p2);
	lbu	s11,12(a0)	# gimp_image.pixel_data[_417], gimp_image.pixel_data[_417]
# main_amiga_scroller_hdmi.c:116:   return (p3<<24 | p0 << 16 | p1 << 8 | p2);
	lbu	a0,12(s9)	# gimp_image.pixel_data[_389], gimp_image.pixel_data[_389]
# main_amiga_scroller_hdmi.c:116:   return (p3<<24 | p0 << 16 | p1 << 8 | p2);
	add	s9,a3,s5	# _394, tmp519, tmp492
# main_amiga_scroller_hdmi.c:112:   uint8_t p1 = gimp_image.pixel_data[(((x<<2) + 1)) + y*(320<<2)];
	add	a5,a4,a5	# tmp474, tmp498, tmp499
# main_amiga_scroller_hdmi.c:116:   return (p3<<24 | p0 << 16 | p1 << 8 | p2);
	sw	a0,64(sp)	# gimp_image.pixel_data[_389], %sfp
# main_amiga_scroller_hdmi.c:116:   return (p3<<24 | p0 << 16 | p1 << 8 | p2);
	lbu	a0,12(s9)	# gimp_image.pixel_data[_387], gimp_image.pixel_data[_387]
# main_amiga_scroller_hdmi.c:116:   return (p3<<24 | p0 << 16 | p1 << 8 | p2);
	add	s9,a2,s4	# _364, tmp543, tmp486
# main_amiga_scroller_hdmi.c:112:   uint8_t p1 = gimp_image.pixel_data[(((x<<2) + 1)) + y*(320<<2)];
	add	s5,a4,s5	# _394, tmp526, tmp499
# main_amiga_scroller_hdmi.c:116:   return (p3<<24 | p0 << 16 | p1 << 8 | p2);
	sw	a0,68(sp)	# gimp_image.pixel_data[_387], %sfp
# main_amiga_scroller_hdmi.c:116:   return (p3<<24 | p0 << 16 | p1 << 8 | p2);
	lbu	a0,12(s9)	# gimp_image.pixel_data[_359], gimp_image.pixel_data[_359]
# main_amiga_scroller_hdmi.c:116:   return (p3<<24 | p0 << 16 | p1 << 8 | p2);
	add	s9,a3,s4	# _364, tmp549, tmp492
	lbu	s9,12(s9)	# gimp_image.pixel_data[_357], gimp_image.pixel_data[_357]
# main_amiga_scroller_hdmi.c:116:   return (p3<<24 | p0 << 16 | p1 << 8 | p2);
	sw	a0,80(sp)	# gimp_image.pixel_data[_359], %sfp
# main_amiga_scroller_hdmi.c:116:   return (p3<<24 | p0 << 16 | p1 << 8 | p2);
	lw	a0,60(sp)		# gimp_image.pixel_data[_393], %sfp
# main_amiga_scroller_hdmi.c:116:   return (p3<<24 | p0 << 16 | p1 << 8 | p2);
	sw	s9,84(sp)	# gimp_image.pixel_data[_357], %sfp
# main_amiga_scroller_hdmi.c:116:   return (p3<<24 | p0 << 16 | p1 << 8 | p2);
	add	s9,a2,s0	# _334, tmp573, tmp486
	lbu	s9,12(s9)	# gimp_image.pixel_data[_329], gimp_image.pixel_data[_329]
# main_amiga_scroller_hdmi.c:112:   uint8_t p1 = gimp_image.pixel_data[(((x<<2) + 1)) + y*(320<<2)];
	add	s4,a4,s4	# _364, tmp556, tmp499
# main_amiga_scroller_hdmi.c:116:   return (p3<<24 | p0 << 16 | p1 << 8 | p2);
	lbu	a5,12(a5)	# gimp_image.pixel_data[_421], gimp_image.pixel_data[_421]
# main_amiga_scroller_hdmi.c:116:   return (p3<<24 | p0 << 16 | p1 << 8 | p2);
	sw	s9,96(sp)	# gimp_image.pixel_data[_329], %sfp
# main_amiga_scroller_hdmi.c:116:   return (p3<<24 | p0 << 16 | p1 << 8 | p2);
	add	s9,a3,s0	# _334, tmp579, tmp492
	lbu	s9,12(s9)	# gimp_image.pixel_data[_327], gimp_image.pixel_data[_327]
# main_amiga_scroller_hdmi.c:112:   uint8_t p1 = gimp_image.pixel_data[(((x<<2) + 1)) + y*(320<<2)];
	add	s0,a4,s0	# _334, tmp586, tmp499
# main_amiga_scroller_hdmi.c:116:   return (p3<<24 | p0 << 16 | p1 << 8 | p2);
	lbu	s5,12(s5)	# gimp_image.pixel_data[_391], gimp_image.pixel_data[_391]
# main_amiga_scroller_hdmi.c:116:   return (p3<<24 | p0 << 16 | p1 << 8 | p2);
	sw	s9,100(sp)	# gimp_image.pixel_data[_327], %sfp
# main_amiga_scroller_hdmi.c:116:   return (p3<<24 | p0 << 16 | p1 << 8 | p2);
	add	s9,a2,ra	# _304, tmp603, tmp486
	lbu	s9,12(s9)	# gimp_image.pixel_data[_299], gimp_image.pixel_data[_299]
# main_amiga_scroller_hdmi.c:116:   return (p3<<24 | p0 << 16 | p1 << 8 | p2);
	lbu	s4,12(s4)	# gimp_image.pixel_data[_361], gimp_image.pixel_data[_361]
	lbu	s0,12(s0)	# gimp_image.pixel_data[_331], gimp_image.pixel_data[_331]
# main_amiga_scroller_hdmi.c:116:   return (p3<<24 | p0 << 16 | p1 << 8 | p2);
	sw	s9,112(sp)	# gimp_image.pixel_data[_299], %sfp
# main_amiga_scroller_hdmi.c:116:   return (p3<<24 | p0 << 16 | p1 << 8 | p2);
	add	s9,a3,ra	# _304, tmp609, tmp492
	lbu	s9,12(s9)	# gimp_image.pixel_data[_297], gimp_image.pixel_data[_297]
# main_amiga_scroller_hdmi.c:112:   uint8_t p1 = gimp_image.pixel_data[(((x<<2) + 1)) + y*(320<<2)];
	add	ra,a4,ra	# _304, tmp616, tmp499
# main_amiga_scroller_hdmi.c:116:   return (p3<<24 | p0 << 16 | p1 << 8 | p2);
	lbu	ra,12(ra)	# gimp_image.pixel_data[_301], gimp_image.pixel_data[_301]
# main_amiga_scroller_hdmi.c:116:   return (p3<<24 | p0 << 16 | p1 << 8 | p2);
	sw	s9,116(sp)	# gimp_image.pixel_data[_297], %sfp
# main_amiga_scroller_hdmi.c:116:   return (p3<<24 | p0 << 16 | p1 << 8 | p2);
	add	s9,a2,t2	# _274, tmp633, tmp486
# main_amiga_scroller_hdmi.c:112:   uint8_t p1 = gimp_image.pixel_data[(((x<<2) + 1)) + y*(320<<2)];
	add	t2,a4,t2	# _274, tmp646, tmp499
# main_amiga_scroller_hdmi.c:116:   return (p3<<24 | p0 << 16 | p1 << 8 | p2);
	lbu	s9,12(s9)	# gimp_image.pixel_data[_269], gimp_image.pixel_data[_269]
# main_amiga_scroller_hdmi.c:116:   return (p3<<24 | p0 << 16 | p1 << 8 | p2);
	lbu	t2,12(t2)	# gimp_image.pixel_data[_271], gimp_image.pixel_data[_271]
	sw	s5,72(sp)	# gimp_image.pixel_data[_391], %sfp
# main_amiga_scroller_hdmi.c:116:   return (p3<<24 | p0 << 16 | p1 << 8 | p2);
	sw	s9,128(sp)	# gimp_image.pixel_data[_269], %sfp
# main_amiga_scroller_hdmi.c:116:   return (p3<<24 | p0 << 16 | p1 << 8 | p2);
	sw	t2,136(sp)	# gimp_image.pixel_data[_271], %sfp
# main_amiga_scroller_hdmi.c:116:   return (p3<<24 | p0 << 16 | p1 << 8 | p2);
	lbu	s9,12(t6)	# gimp_image.pixel_data[_267], gimp_image.pixel_data[_267]
# main_amiga_scroller_hdmi.c:116:   return (p3<<24 | p0 << 16 | p1 << 8 | p2);
	slli	t2,a0,16	#, tmp510, gimp_image.pixel_data[_393]
	lw	a0,76(sp)		# gimp_image.pixel_data[_363], %sfp
# main_amiga_scroller_hdmi.c:116:   return (p3<<24 | p0 << 16 | p1 << 8 | p2);
	mv	t6,a5	# gimp_image.pixel_data[_421], gimp_image.pixel_data[_421]
# main_amiga_scroller_hdmi.c:116:   return (p3<<24 | p0 << 16 | p1 << 8 | p2);
	sw	s9,132(sp)	# gimp_image.pixel_data[_267], %sfp
# main_amiga_scroller_hdmi.c:116:   return (p3<<24 | p0 << 16 | p1 << 8 | p2);
	lw	a5,52(sp)		# gimp_image.pixel_data[_423], %sfp
# main_amiga_scroller_hdmi.c:116:   return (p3<<24 | p0 << 16 | p1 << 8 | p2);
	sw	s4,88(sp)	# gimp_image.pixel_data[_361], %sfp
	sw	ra,120(sp)	# gimp_image.pixel_data[_301], %sfp
	sw	s0,104(sp)	# gimp_image.pixel_data[_331], %sfp
# main_amiga_scroller_hdmi.c:116:   return (p3<<24 | p0 << 16 | p1 << 8 | p2);
	slli	ra,a0,16	#, tmp540, gimp_image.pixel_data[_363]
	lw	s0,92(sp)		# gimp_image.pixel_data[_333], %sfp
	lw	a0,108(sp)		# gimp_image.pixel_data[_303], %sfp
# main_amiga_scroller_hdmi.c:116:   return (p3<<24 | p0 << 16 | p1 << 8 | p2);
	lw	s9,56(sp)		# gimp_image.pixel_data[_419], %sfp
# main_amiga_scroller_hdmi.c:116:   return (p3<<24 | p0 << 16 | p1 << 8 | p2);
	slli	a5,a5,16	#, tmp482, gimp_image.pixel_data[_423]
	slli	s4,a0,16	#, tmp600, gimp_image.pixel_data[_303]
	lw	a0,124(sp)		# gimp_image.pixel_data[_273], %sfp
# main_amiga_scroller_hdmi.c:116:   return (p3<<24 | p0 << 16 | p1 << 8 | p2);
	or	a5,a5,s9	# gimp_image.pixel_data[_419], tmp488, tmp482
# main_amiga_scroller_hdmi.c:116:   return (p3<<24 | p0 << 16 | p1 << 8 | p2);
	lw	s9,84(sp)		# gimp_image.pixel_data[_357], %sfp
# main_amiga_scroller_hdmi.c:116:   return (p3<<24 | p0 << 16 | p1 << 8 | p2);
	slli	s5,a0,16	#, tmp630, gimp_image.pixel_data[_273]
# main_amiga_scroller_hdmi.c:116:   return (p3<<24 | p0 << 16 | p1 << 8 | p2);
	lw	a0,64(sp)		# gimp_image.pixel_data[_389], %sfp
# main_amiga_scroller_hdmi.c:116:   return (p3<<24 | p0 << 16 | p1 << 8 | p2);
	slli	s0,s0,16	#, tmp570, gimp_image.pixel_data[_333]
# main_amiga_scroller_hdmi.c:116:   return (p3<<24 | p0 << 16 | p1 << 8 | p2);
	slli	s11,s11,24	#, tmp494, gimp_image.pixel_data[_417]
# main_amiga_scroller_hdmi.c:116:   return (p3<<24 | p0 << 16 | p1 << 8 | p2);
	or	t2,t2,a0	# gimp_image.pixel_data[_389], tmp516, tmp510
# main_amiga_scroller_hdmi.c:116:   return (p3<<24 | p0 << 16 | p1 << 8 | p2);
	lw	a0,68(sp)		# gimp_image.pixel_data[_387], %sfp
# main_amiga_scroller_hdmi.c:116:   return (p3<<24 | p0 << 16 | p1 << 8 | p2);
	or	a5,a5,s11	# tmp494, tmp495, tmp488
# main_amiga_scroller_hdmi.c:116:   return (p3<<24 | p0 << 16 | p1 << 8 | p2);
	slli	s11,t6,8	#, tmp501, gimp_image.pixel_data[_421]
# main_amiga_scroller_hdmi.c:116:   return (p3<<24 | p0 << 16 | p1 << 8 | p2);
	slli	a0,a0,24	#, tmp522, gimp_image.pixel_data[_387]
	sw	a0,52(sp)	# tmp522, %sfp
# main_amiga_scroller_hdmi.c:116:   return (p3<<24 | p0 << 16 | p1 << 8 | p2);
	lw	a0,80(sp)		# gimp_image.pixel_data[_359], %sfp
# main_amiga_scroller_hdmi.c:116:   return (p3<<24 | p0 << 16 | p1 << 8 | p2);
	mv	t6,s11	# tmp501, tmp501
# main_amiga_scroller_hdmi.c:116:   return (p3<<24 | p0 << 16 | p1 << 8 | p2);
	or	t6,a5,t6	# tmp501, tmp502, tmp495
	or	ra,ra,a0	# gimp_image.pixel_data[_359], tmp546, tmp540
# main_amiga_scroller_hdmi.c:116:   return (p3<<24 | p0 << 16 | p1 << 8 | p2);
	slli	a0,s9,24	#, tmp552, gimp_image.pixel_data[_357]
# main_amiga_scroller_hdmi.c:116:   return (p3<<24 | p0 << 16 | p1 << 8 | p2);
	lw	s9,96(sp)		# gimp_image.pixel_data[_329], %sfp
# main_amiga_scroller_hdmi.c:116:   return (p3<<24 | p0 << 16 | p1 << 8 | p2);
	sw	a0,56(sp)	# tmp552, %sfp
# main_amiga_scroller_hdmi.c:114:   uint8_t p3 = gimp_image.pixel_data[(((x<<2) + 3)) + y*(320<<2)];
	add	a5,a3,t5	# _244, tmp671, tmp492
# main_amiga_scroller_hdmi.c:116:   return (p3<<24 | p0 << 16 | p1 << 8 | p2);
	or	s0,s0,s9	# gimp_image.pixel_data[_329], tmp576, tmp570
# main_amiga_scroller_hdmi.c:116:   return (p3<<24 | p0 << 16 | p1 << 8 | p2);
	lw	s9,100(sp)		# gimp_image.pixel_data[_327], %sfp
	slli	a0,s9,24	#, tmp582, gimp_image.pixel_data[_327]
# main_amiga_scroller_hdmi.c:116:   return (p3<<24 | p0 << 16 | p1 << 8 | p2);
	lw	s9,112(sp)		# gimp_image.pixel_data[_299], %sfp
# main_amiga_scroller_hdmi.c:116:   return (p3<<24 | p0 << 16 | p1 << 8 | p2);
	sw	a0,60(sp)	# tmp582, %sfp
# main_amiga_scroller_hdmi.c:116:   return (p3<<24 | p0 << 16 | p1 << 8 | p2);
	or	s4,s4,s9	# gimp_image.pixel_data[_299], tmp606, tmp600
# main_amiga_scroller_hdmi.c:116:   return (p3<<24 | p0 << 16 | p1 << 8 | p2);
	lw	s9,116(sp)		# gimp_image.pixel_data[_297], %sfp
	slli	a0,s9,24	#, tmp612, gimp_image.pixel_data[_297]
# main_amiga_scroller_hdmi.c:116:   return (p3<<24 | p0 << 16 | p1 << 8 | p2);
	lw	s9,128(sp)		# gimp_image.pixel_data[_269], %sfp
# main_amiga_scroller_hdmi.c:116:   return (p3<<24 | p0 << 16 | p1 << 8 | p2);
	sw	a0,64(sp)	# tmp612, %sfp
# main_amiga_scroller_hdmi.c:116:   return (p3<<24 | p0 << 16 | p1 << 8 | p2);
	lw	a0,52(sp)		# tmp522, %sfp
	or	s5,s5,s9	# gimp_image.pixel_data[_269], tmp636, tmp630
# main_amiga_scroller_hdmi.c:116:   return (p3<<24 | p0 << 16 | p1 << 8 | p2);
	lw	s9,132(sp)		# gimp_image.pixel_data[_267], %sfp
# main_amiga_scroller_hdmi.c:116:   return (p3<<24 | p0 << 16 | p1 << 8 | p2);
	or	t2,t2,a0	# tmp522, tmp523, tmp516
	lw	a0,56(sp)		# tmp552, %sfp
# main_amiga_scroller_hdmi.c:116:   return (p3<<24 | p0 << 16 | p1 << 8 | p2);
	slli	s9,s9,24	#, tmp642, gimp_image.pixel_data[_267]
	sw	s9,68(sp)	# tmp642, %sfp
# main_amiga_scroller_hdmi.c:116:   return (p3<<24 | p0 << 16 | p1 << 8 | p2);
	lw	s9,72(sp)		# gimp_image.pixel_data[_391], %sfp
# main_amiga_scroller_hdmi.c:116:   return (p3<<24 | p0 << 16 | p1 << 8 | p2);
	or	ra,ra,a0	# tmp552, tmp553, tmp546
# main_amiga_scroller_hdmi.c:116:   return (p3<<24 | p0 << 16 | p1 << 8 | p2);
	slli	s11,s9,8	#, tmp529, gimp_image.pixel_data[_391]
	lw	s9,88(sp)		# gimp_image.pixel_data[_361], %sfp
# main_amiga_scroller_hdmi.c:116:   return (p3<<24 | p0 << 16 | p1 << 8 | p2);
	or	s11,t2,s11	# tmp529, tmp530, tmp523
# main_amiga_scroller_hdmi.c:111:   uint8_t p0 = gimp_image.pixel_data[(((x<<2) + 0)) + y*(320<<2)];
	add	t2,a1,t5	# _244, tmp659, tmp480
# main_amiga_scroller_hdmi.c:116:   return (p3<<24 | p0 << 16 | p1 << 8 | p2);
	slli	a0,s9,8	#, tmp559, gimp_image.pixel_data[_361]
	sw	a0,52(sp)	# tmp559, %sfp
	lw	s9,104(sp)		# gimp_image.pixel_data[_331], %sfp
# main_amiga_scroller_hdmi.c:116:   return (p3<<24 | p0 << 16 | p1 << 8 | p2);
	lw	a0,60(sp)		# tmp582, %sfp
	or	s0,s0,a0	# tmp582, tmp583, tmp576
# main_amiga_scroller_hdmi.c:116:   return (p3<<24 | p0 << 16 | p1 << 8 | p2);
	slli	a0,s9,8	#, tmp589, gimp_image.pixel_data[_331]
	lw	s9,120(sp)		# gimp_image.pixel_data[_301], %sfp
	sw	a0,56(sp)	# tmp589, %sfp
# main_amiga_scroller_hdmi.c:116:   return (p3<<24 | p0 << 16 | p1 << 8 | p2);
	lw	a0,64(sp)		# tmp612, %sfp
# main_amiga_scroller_hdmi.c:116:   return (p3<<24 | p0 << 16 | p1 << 8 | p2);
	slli	s9,s9,8	#, tmp619, gimp_image.pixel_data[_301]
	sw	s9,60(sp)	# tmp619, %sfp
# main_amiga_scroller_hdmi.c:116:   return (p3<<24 | p0 << 16 | p1 << 8 | p2);
	lw	s9,68(sp)		# tmp642, %sfp
	or	s4,s4,a0	# tmp612, tmp613, tmp606
	or	s5,s5,s9	# tmp642, tmp643, tmp636
# main_amiga_scroller_hdmi.c:116:   return (p3<<24 | p0 << 16 | p1 << 8 | p2);
	lw	s9,136(sp)		# gimp_image.pixel_data[_271], %sfp
	slli	s9,s9,8	#, tmp649, gimp_image.pixel_data[_271]
	sw	s9,64(sp)	# tmp649, %sfp
# main_amiga_scroller_hdmi.c:116:   return (p3<<24 | p0 << 16 | p1 << 8 | p2);
	lw	a0,52(sp)		# tmp559, %sfp
	lw	s9,60(sp)		# tmp619, %sfp
# main_amiga_scroller_hdmi.c:116:   return (p3<<24 | p0 << 16 | p1 << 8 | p2);
	lbu	t2,12(t2)	# gimp_image.pixel_data[_243], gimp_image.pixel_data[_243]
# main_amiga_scroller_hdmi.c:116:   return (p3<<24 | p0 << 16 | p1 << 8 | p2);
	or	ra,ra,a0	# tmp559, tmp560, tmp553
	lw	a0,56(sp)		# tmp589, %sfp
	or	s4,s4,s9	# tmp619, tmp620, tmp613
	lw	s9,64(sp)		# tmp649, %sfp
	or	s0,s0,a0	# tmp589, tmp590, tmp583
# main_amiga_scroller_hdmi.c:135:     *(fb + y*HRES) = getbmpLine(col + xoff, y + yoff);
	sw	ra,956(s3)	# tmp560, MEM[(uint32_t *)&scroll_buf + 956B]
# main_amiga_scroller_hdmi.c:116:   return (p3<<24 | p0 << 16 | p1 << 8 | p2);
	add	ra,a1,t3	# _184, tmp723, tmp480
# main_amiga_scroller_hdmi.c:135:     *(fb + y*HRES) = getbmpLine(col + xoff, y + yoff);
	sw	s0,1276(s3)	# tmp590, MEM[(uint32_t *)&scroll_buf + 1276B]
# main_amiga_scroller_hdmi.c:116:   return (p3<<24 | p0 << 16 | p1 << 8 | p2);
	lbu	s0,12(ra)	# gimp_image.pixel_data[_183], gimp_image.pixel_data[_183]
	add	ra,a1,t1	# _140, tmp755, tmp480
# main_amiga_scroller_hdmi.c:116:   return (p3<<24 | p0 << 16 | p1 << 8 | p2);
	or	s5,s5,s9	# tmp649, tmp650, tmp643
# main_amiga_scroller_hdmi.c:135:     *(fb + y*HRES) = getbmpLine(col + xoff, y + yoff);
	sw	s4,1596(s3)	# tmp620, MEM[(uint32_t *)&scroll_buf + 1596B]
# main_amiga_scroller_hdmi.c:116:   return (p3<<24 | p0 << 16 | p1 << 8 | p2);
	lbu	s4,12(ra)	# gimp_image.pixel_data[_139], gimp_image.pixel_data[_139]
	add	ra,a1,a7	# _447, tmp787, tmp480
# main_amiga_scroller_hdmi.c:135:     *(fb + y*HRES) = getbmpLine(col + xoff, y + yoff);
	sw	s5,1916(s3)	# tmp650, MEM[(uint32_t *)&scroll_buf + 1916B]
# main_amiga_scroller_hdmi.c:116:   return (p3<<24 | p0 << 16 | p1 << 8 | p2);
	lbu	s5,12(ra)	# gimp_image.pixel_data[_448], gimp_image.pixel_data[_448]
	add	ra,a1,a6	# _477, tmp819, tmp480
	lbu	ra,12(ra)	# gimp_image.pixel_data[_478], gimp_image.pixel_data[_478]
	sw	t2,52(sp)	# gimp_image.pixel_data[_243], %sfp
# main_amiga_scroller_hdmi.c:113:   uint8_t p2 = gimp_image.pixel_data[(((x<<2) + 2)) + y*(320<<2)];
	add	t2,a2,t4	# _214, tmp697, tmp486
# main_amiga_scroller_hdmi.c:116:   return (p3<<24 | p0 << 16 | p1 << 8 | p2);
	lbu	t2,12(t2)	# gimp_image.pixel_data[_209], gimp_image.pixel_data[_209]
# main_amiga_scroller_hdmi.c:116:   return (p3<<24 | p0 << 16 | p1 << 8 | p2);
	sw	s4,76(sp)	# gimp_image.pixel_data[_139], %sfp
	sw	s5,88(sp)	# gimp_image.pixel_data[_448], %sfp
# main_amiga_scroller_hdmi.c:114:   uint8_t p3 = gimp_image.pixel_data[(((x<<2) + 3)) + y*(320<<2)];
	add	s4,a3,t3	# _184, tmp735, tmp492
# main_amiga_scroller_hdmi.c:113:   uint8_t p2 = gimp_image.pixel_data[(((x<<2) + 2)) + y*(320<<2)];
	add	s5,a2,t1	# _140, tmp761, tmp486
# main_amiga_scroller_hdmi.c:116:   return (p3<<24 | p0 << 16 | p1 << 8 | p2);
	sw	ra,100(sp)	# gimp_image.pixel_data[_478], %sfp
# main_amiga_scroller_hdmi.c:114:   uint8_t p3 = gimp_image.pixel_data[(((x<<2) + 3)) + y*(320<<2)];
	add	ra,a3,t4	# _214, tmp703, tmp492
# main_amiga_scroller_hdmi.c:135:     *(fb + y*HRES) = getbmpLine(col + xoff, y + yoff);
	sw	t6,316(s3)	# tmp502, MEM[(uint32_t *)&scroll_buf + 316B]
# main_amiga_scroller_hdmi.c:116:   return (p3<<24 | p0 << 16 | p1 << 8 | p2);
	sw	t2,60(sp)	# gimp_image.pixel_data[_209], %sfp
	add	t6,a2,a7	# _447, tmp793, tmp486
# main_amiga_scroller_hdmi.c:116:   return (p3<<24 | p0 << 16 | p1 << 8 | p2);
	lbu	t2,12(ra)	# gimp_image.pixel_data[_207], gimp_image.pixel_data[_207]
	lbu	ra,12(s4)	# gimp_image.pixel_data[_177], gimp_image.pixel_data[_177]
# main_amiga_scroller_hdmi.c:116:   return (p3<<24 | p0 << 16 | p1 << 8 | p2);
	lbu	s4,12(s5)	# gimp_image.pixel_data[_135], gimp_image.pixel_data[_135]
	lbu	s5,12(t6)	# gimp_image.pixel_data[_452], gimp_image.pixel_data[_452]
# main_amiga_scroller_hdmi.c:113:   uint8_t p2 = gimp_image.pixel_data[(((x<<2) + 2)) + y*(320<<2)];
	add	s9,a2,t5	# _244, tmp665, tmp486
# main_amiga_scroller_hdmi.c:116:   return (p3<<24 | p0 << 16 | p1 << 8 | p2);
	add	t6,a3,a7	# _447, tmp799, tmp492
# main_amiga_scroller_hdmi.c:111:   uint8_t p0 = gimp_image.pixel_data[(((x<<2) + 0)) + y*(320<<2)];
	add	a0,a1,t4	# _214, tmp691, tmp480
# main_amiga_scroller_hdmi.c:135:     *(fb + y*HRES) = getbmpLine(col + xoff, y + yoff);
	sw	s11,636(s3)	# tmp530, MEM[(uint32_t *)&scroll_buf + 636B]
# main_amiga_scroller_hdmi.c:116:   return (p3<<24 | p0 << 16 | p1 << 8 | p2);
	sw	s0,68(sp)	# gimp_image.pixel_data[_183], %sfp
# main_amiga_scroller_hdmi.c:114:   uint8_t p3 = gimp_image.pixel_data[(((x<<2) + 3)) + y*(320<<2)];
	add	s11,a3,t1	# _140, tmp767, tmp492
# main_amiga_scroller_hdmi.c:113:   uint8_t p2 = gimp_image.pixel_data[(((x<<2) + 2)) + y*(320<<2)];
	add	s0,a2,t3	# _184, tmp729, tmp486
# main_amiga_scroller_hdmi.c:116:   return (p3<<24 | p0 << 16 | p1 << 8 | p2);
	sw	s4,80(sp)	# gimp_image.pixel_data[_135], %sfp
# main_amiga_scroller_hdmi.c:112:   uint8_t p1 = gimp_image.pixel_data[(((x<<2) + 1)) + y*(320<<2)];
	add	a7,a4,a7	# _447, tmp806, tmp499
# main_amiga_scroller_hdmi.c:116:   return (p3<<24 | p0 << 16 | p1 << 8 | p2);
	lbu	a0,12(a0)	# gimp_image.pixel_data[_213], gimp_image.pixel_data[_213]
# main_amiga_scroller_hdmi.c:116:   return (p3<<24 | p0 << 16 | p1 << 8 | p2);
	lbu	s0,12(s0)	# gimp_image.pixel_data[_179], gimp_image.pixel_data[_179]
# main_amiga_scroller_hdmi.c:116:   return (p3<<24 | p0 << 16 | p1 << 8 | p2);
	lbu	s11,12(s11)	# gimp_image.pixel_data[_132], gimp_image.pixel_data[_132]
# main_amiga_scroller_hdmi.c:116:   return (p3<<24 | p0 << 16 | p1 << 8 | p2);
	lbu	s9,12(s9)	# gimp_image.pixel_data[_239], gimp_image.pixel_data[_239]
# main_amiga_scroller_hdmi.c:116:   return (p3<<24 | p0 << 16 | p1 << 8 | p2);
	lbu	a5,12(a5)	# gimp_image.pixel_data[_237], gimp_image.pixel_data[_237]
# main_amiga_scroller_hdmi.c:116:   return (p3<<24 | p0 << 16 | p1 << 8 | p2);
	sw	s5,92(sp)	# gimp_image.pixel_data[_452], %sfp
# main_amiga_scroller_hdmi.c:116:   return (p3<<24 | p0 << 16 | p1 << 8 | p2);
	lbu	s4,12(t6)	# gimp_image.pixel_data[_454], gimp_image.pixel_data[_454]
# main_amiga_scroller_hdmi.c:116:   return (p3<<24 | p0 << 16 | p1 << 8 | p2);
	lbu	a7,12(a7)	# gimp_image.pixel_data[_450], gimp_image.pixel_data[_450]
# main_amiga_scroller_hdmi.c:116:   return (p3<<24 | p0 << 16 | p1 << 8 | p2);
	add	t6,a2,a6	# _477, tmp825, tmp486
	lbu	s5,12(t6)	# gimp_image.pixel_data[_482], gimp_image.pixel_data[_482]
# main_amiga_scroller_hdmi.c:112:   uint8_t p1 = gimp_image.pixel_data[(((x<<2) + 1)) + y*(320<<2)];
	add	t3,a4,t3	# _184, tmp742, tmp499
# main_amiga_scroller_hdmi.c:116:   return (p3<<24 | p0 << 16 | p1 << 8 | p2);
	add	t6,a3,a6	# _477, tmp831, tmp492
# main_amiga_scroller_hdmi.c:112:   uint8_t p1 = gimp_image.pixel_data[(((x<<2) + 1)) + y*(320<<2)];
	add	a6,a4,a6	# _477, tmp838, tmp499
# main_amiga_scroller_hdmi.c:116:   return (p3<<24 | p0 << 16 | p1 << 8 | p2);
	lbu	t3,12(t3)	# gimp_image.pixel_data[_181], gimp_image.pixel_data[_181]
	sw	a7,96(sp)	# gimp_image.pixel_data[_450], %sfp
	lbu	a7,12(a6)	# gimp_image.pixel_data[_480], gimp_image.pixel_data[_480]
# main_amiga_scroller_hdmi.c:116:   return (p3<<24 | p0 << 16 | p1 << 8 | p2);
	sw	s5,104(sp)	# gimp_image.pixel_data[_482], %sfp
# main_amiga_scroller_hdmi.c:116:   return (p3<<24 | p0 << 16 | p1 << 8 | p2);
	lbu	s5,12(t6)	# gimp_image.pixel_data[_484], gimp_image.pixel_data[_484]
# main_amiga_scroller_hdmi.c:116:   return (p3<<24 | p0 << 16 | p1 << 8 | p2);
	lw	t6,60(sp)		# gimp_image.pixel_data[_209], %sfp
# main_amiga_scroller_hdmi.c:112:   uint8_t p1 = gimp_image.pixel_data[(((x<<2) + 1)) + y*(320<<2)];
	add	t4,a4,t4	# _214, tmp710, tmp499
# main_amiga_scroller_hdmi.c:116:   return (p3<<24 | p0 << 16 | p1 << 8 | p2);
	lbu	t4,12(t4)	# gimp_image.pixel_data[_211], gimp_image.pixel_data[_211]
	sw	t3,72(sp)	# gimp_image.pixel_data[_181], %sfp
	sw	a7,108(sp)	# gimp_image.pixel_data[_480], %sfp
# main_amiga_scroller_hdmi.c:116:   return (p3<<24 | p0 << 16 | p1 << 8 | p2);
	lw	t3,76(sp)		# gimp_image.pixel_data[_139], %sfp
	slli	a7,a0,16	#, tmp694, gimp_image.pixel_data[_213]
# main_amiga_scroller_hdmi.c:116:   return (p3<<24 | p0 << 16 | p1 << 8 | p2);
	or	a7,a7,t6	# gimp_image.pixel_data[_209], tmp700, tmp694
	lw	t6,80(sp)		# gimp_image.pixel_data[_135], %sfp
# main_amiga_scroller_hdmi.c:112:   uint8_t p1 = gimp_image.pixel_data[(((x<<2) + 1)) + y*(320<<2)];
	add	t5,a4,t5	# _244, tmp678, tmp499
# main_amiga_scroller_hdmi.c:116:   return (p3<<24 | p0 << 16 | p1 << 8 | p2);
	lbu	t5,12(t5)	# gimp_image.pixel_data[_241], gimp_image.pixel_data[_241]
	sw	t4,64(sp)	# gimp_image.pixel_data[_211], %sfp
# main_amiga_scroller_hdmi.c:116:   return (p3<<24 | p0 << 16 | p1 << 8 | p2);
	slli	t3,t3,16	#, tmp758, gimp_image.pixel_data[_139]
	lw	t4,88(sp)		# gimp_image.pixel_data[_448], %sfp
# main_amiga_scroller_hdmi.c:116:   return (p3<<24 | p0 << 16 | p1 << 8 | p2);
	or	t3,t3,t6	# gimp_image.pixel_data[_135], tmp764, tmp758
	lw	t6,92(sp)		# gimp_image.pixel_data[_452], %sfp
# main_amiga_scroller_hdmi.c:116:   return (p3<<24 | p0 << 16 | p1 << 8 | p2);
	sw	t5,56(sp)	# gimp_image.pixel_data[_241], %sfp
# main_amiga_scroller_hdmi.c:116:   return (p3<<24 | p0 << 16 | p1 << 8 | p2);
	slli	t4,t4,16	#, tmp790, gimp_image.pixel_data[_448]
	lw	t5,100(sp)		# gimp_image.pixel_data[_478], %sfp
# main_amiga_scroller_hdmi.c:112:   uint8_t p1 = gimp_image.pixel_data[(((x<<2) + 1)) + y*(320<<2)];
	add	t1,a4,t1	# _140, tmp774, tmp499
# main_amiga_scroller_hdmi.c:116:   return (p3<<24 | p0 << 16 | p1 << 8 | p2);
	or	t4,t4,t6	# gimp_image.pixel_data[_452], tmp796, tmp790
	lw	t6,104(sp)		# gimp_image.pixel_data[_482], %sfp
# main_amiga_scroller_hdmi.c:116:   return (p3<<24 | p0 << 16 | p1 << 8 | p2);
	lbu	t1,12(t1)	# gimp_image.pixel_data[_137], gimp_image.pixel_data[_137]
# main_amiga_scroller_hdmi.c:116:   return (p3<<24 | p0 << 16 | p1 << 8 | p2);
	slli	t5,t5,16	#, tmp822, gimp_image.pixel_data[_478]
# main_amiga_scroller_hdmi.c:116:   return (p3<<24 | p0 << 16 | p1 << 8 | p2);
	or	t5,t5,t6	# gimp_image.pixel_data[_482], tmp828, tmp822
# main_amiga_scroller_hdmi.c:116:   return (p3<<24 | p0 << 16 | p1 << 8 | p2);
	lw	t6,64(sp)		# gimp_image.pixel_data[_211], %sfp
	sw	t1,84(sp)	# gimp_image.pixel_data[_137], %sfp
# main_amiga_scroller_hdmi.c:116:   return (p3<<24 | p0 << 16 | p1 << 8 | p2);
	lw	t1,68(sp)		# gimp_image.pixel_data[_183], %sfp
# main_amiga_scroller_hdmi.c:116:   return (p3<<24 | p0 << 16 | p1 << 8 | p2);
	slli	t2,t2,24	#, tmp706, gimp_image.pixel_data[_207]
# main_amiga_scroller_hdmi.c:116:   return (p3<<24 | p0 << 16 | p1 << 8 | p2);
	or	a7,a7,t2	# tmp706, tmp707, tmp700
# main_amiga_scroller_hdmi.c:116:   return (p3<<24 | p0 << 16 | p1 << 8 | p2);
	slli	t2,t6,8	#, tmp713, gimp_image.pixel_data[_211]
	lw	t6,72(sp)		# gimp_image.pixel_data[_181], %sfp
# main_amiga_scroller_hdmi.c:116:   return (p3<<24 | p0 << 16 | p1 << 8 | p2);
	slli	t1,t1,16	#, tmp726, gimp_image.pixel_data[_183]
	lw	a6,52(sp)		# gimp_image.pixel_data[_243], %sfp
# main_amiga_scroller_hdmi.c:116:   return (p3<<24 | p0 << 16 | p1 << 8 | p2);
	or	t1,t1,s0	# gimp_image.pixel_data[_179], tmp732, tmp726
# main_amiga_scroller_hdmi.c:116:   return (p3<<24 | p0 << 16 | p1 << 8 | p2);
	slli	ra,ra,24	#, tmp738, gimp_image.pixel_data[_177]
# main_amiga_scroller_hdmi.c:116:   return (p3<<24 | p0 << 16 | p1 << 8 | p2);
	or	t1,t1,ra	# tmp738, tmp739, tmp732
# main_amiga_scroller_hdmi.c:116:   return (p3<<24 | p0 << 16 | p1 << 8 | p2);
	slli	ra,t6,8	#, tmp745, gimp_image.pixel_data[_181]
	lw	t6,84(sp)		# gimp_image.pixel_data[_137], %sfp
# main_amiga_scroller_hdmi.c:116:   return (p3<<24 | p0 << 16 | p1 << 8 | p2);
	slli	s0,s11,24	#, tmp770, gimp_image.pixel_data[_132]
# main_amiga_scroller_hdmi.c:116:   return (p3<<24 | p0 << 16 | p1 << 8 | p2);
	slli	a6,a6,16	#, tmp662, gimp_image.pixel_data[_243]
# main_amiga_scroller_hdmi.c:116:   return (p3<<24 | p0 << 16 | p1 << 8 | p2);
	or	t3,t3,s0	# tmp770, tmp771, tmp764
	or	a6,a6,s9	# gimp_image.pixel_data[_239], tmp668, tmp662
# main_amiga_scroller_hdmi.c:116:   return (p3<<24 | p0 << 16 | p1 << 8 | p2);
	slli	s0,t6,8	#, tmp777, gimp_image.pixel_data[_137]
# main_amiga_scroller_hdmi.c:116:   return (p3<<24 | p0 << 16 | p1 << 8 | p2);
	slli	a5,a5,24	#, tmp674, gimp_image.pixel_data[_237]
# main_amiga_scroller_hdmi.c:116:   return (p3<<24 | p0 << 16 | p1 << 8 | p2);
	lw	t6,96(sp)		# gimp_image.pixel_data[_450], %sfp
# main_amiga_scroller_hdmi.c:116:   return (p3<<24 | p0 << 16 | p1 << 8 | p2);
	or	a5,a6,a5	# tmp674, tmp675, tmp668
# main_amiga_scroller_hdmi.c:116:   return (p3<<24 | p0 << 16 | p1 << 8 | p2);
	lw	a6,56(sp)		# gimp_image.pixel_data[_241], %sfp
# main_amiga_scroller_hdmi.c:111:   uint8_t p0 = gimp_image.pixel_data[(((x<<2) + 0)) + y*(320<<2)];
	lw	a0,44(sp)		# _537, %sfp
# main_amiga_scroller_hdmi.c:116:   return (p3<<24 | p0 << 16 | p1 << 8 | p2);
	slli	s4,s4,24	#, tmp802, gimp_image.pixel_data[_454]
# main_amiga_scroller_hdmi.c:116:   return (p3<<24 | p0 << 16 | p1 << 8 | p2);
	or	t4,t4,s4	# tmp802, tmp803, tmp796
# main_amiga_scroller_hdmi.c:116:   return (p3<<24 | p0 << 16 | p1 << 8 | p2);
	slli	s4,t6,8	#, tmp809, gimp_image.pixel_data[_450]
	lw	t6,108(sp)		# gimp_image.pixel_data[_480], %sfp
	slli	a6,a6,8	#, tmp681, gimp_image.pixel_data[_241]
# main_amiga_scroller_hdmi.c:116:   return (p3<<24 | p0 << 16 | p1 << 8 | p2);
	or	a5,a5,a6	# tmp681, tmp682, tmp675
# main_amiga_scroller_hdmi.c:116:   return (p3<<24 | p0 << 16 | p1 << 8 | p2);
	slli	s5,s5,24	#, tmp834, gimp_image.pixel_data[_484]
# main_amiga_scroller_hdmi.c:116:   return (p3<<24 | p0 << 16 | p1 << 8 | p2);
	or	a6,a7,t2	# tmp713, tmp714, tmp707
	or	a7,t1,ra	# tmp745, tmp746, tmp739
	or	t1,t3,s0	# tmp777, tmp778, tmp771
# main_amiga_scroller_hdmi.c:111:   uint8_t p0 = gimp_image.pixel_data[(((x<<2) + 0)) + y*(320<<2)];
	add	s0,a1,a0	# _537, tmp883, tmp480
# main_amiga_scroller_hdmi.c:116:   return (p3<<24 | p0 << 16 | p1 << 8 | p2);
	or	t5,t5,s5	# tmp834, tmp835, tmp828
# main_amiga_scroller_hdmi.c:116:   return (p3<<24 | p0 << 16 | p1 << 8 | p2);
	slli	s5,t6,8	#, tmp841, gimp_image.pixel_data[_480]
# main_amiga_scroller_hdmi.c:111:   uint8_t p0 = gimp_image.pixel_data[(((x<<2) + 0)) + y*(320<<2)];
	lw	t6,48(sp)		# _567, %sfp
# main_amiga_scroller_hdmi.c:113:   uint8_t p2 = gimp_image.pixel_data[(((x<<2) + 2)) + y*(320<<2)];
	lw	s11,36(sp)		# _92, %sfp
# main_amiga_scroller_hdmi.c:135:     *(fb + y*HRES) = getbmpLine(col + xoff, y + yoff);
	sw	t1,-900(s1)	# tmp778, MEM[(uint32_t *)&scroll_buf + 3196B]
# main_amiga_scroller_hdmi.c:116:   return (p3<<24 | p0 << 16 | p1 << 8 | p2);
	lbu	t1,12(s0)	# gimp_image.pixel_data[_538], gimp_image.pixel_data[_538]
# main_amiga_scroller_hdmi.c:113:   uint8_t p2 = gimp_image.pixel_data[(((x<<2) + 2)) + y*(320<<2)];
	lw	s0,156(sp)		# tmp954, %sfp
# main_amiga_scroller_hdmi.c:116:   return (p3<<24 | p0 << 16 | p1 << 8 | p2);
	or	t3,t4,s4	# tmp809, tmp810, tmp803
	or	ra,t5,s5	# tmp841, tmp842, tmp835
# main_amiga_scroller_hdmi.c:111:   uint8_t p0 = gimp_image.pixel_data[(((x<<2) + 0)) + y*(320<<2)];
	add	t2,a1,t0	# _507, tmp851, tmp480
# main_amiga_scroller_hdmi.c:113:   uint8_t p2 = gimp_image.pixel_data[(((x<<2) + 2)) + y*(320<<2)];
	add	t5,a2,t0	# _507, tmp857, tmp486
# main_amiga_scroller_hdmi.c:114:   uint8_t p3 = gimp_image.pixel_data[(((x<<2) + 3)) + y*(320<<2)];
	add	t4,a3,t0	# _507, tmp863, tmp492
# main_amiga_scroller_hdmi.c:111:   uint8_t p0 = gimp_image.pixel_data[(((x<<2) + 0)) + y*(320<<2)];
	lw	s5,32(sp)		# _86, %sfp
# main_amiga_scroller_hdmi.c:112:   uint8_t p1 = gimp_image.pixel_data[(((x<<2) + 1)) + y*(320<<2)];
	add	t0,a4,t0	# _507, tmp870, tmp499
# main_amiga_scroller_hdmi.c:135:     *(fb + y*HRES) = getbmpLine(col + xoff, y + yoff);
	sw	a6,-1540(s1)	# tmp714, MEM[(uint32_t *)&scroll_buf + 2556B]
# main_amiga_scroller_hdmi.c:116:   return (p3<<24 | p0 << 16 | p1 << 8 | p2);
	lbu	a6,12(t0)	# gimp_image.pixel_data[_510], gimp_image.pixel_data[_510]
# main_amiga_scroller_hdmi.c:113:   uint8_t p2 = gimp_image.pixel_data[(((x<<2) + 2)) + y*(320<<2)];
	add	t0,s0,s11	# _92, tmp953, tmp954
# main_amiga_scroller_hdmi.c:114:   uint8_t p3 = gimp_image.pixel_data[(((x<<2) + 3)) + y*(320<<2)];
	lw	s11,40(sp)		# _95, %sfp
# main_amiga_scroller_hdmi.c:111:   uint8_t p0 = gimp_image.pixel_data[(((x<<2) + 0)) + y*(320<<2)];
	add	s4,a1,t6	# _567, tmp915, tmp480
# main_amiga_scroller_hdmi.c:135:     *(fb + y*HRES) = getbmpLine(col + xoff, y + yoff);
	sw	a5,-1860(s1)	# tmp682, MEM[(uint32_t *)&scroll_buf + 2236B]
	sw	a7,-1220(s1)	# tmp746, MEM[(uint32_t *)&scroll_buf + 2876B]
# main_amiga_scroller_hdmi.c:113:   uint8_t p2 = gimp_image.pixel_data[(((x<<2) + 2)) + y*(320<<2)];
	add	a5,a2,a0	# _537, tmp889, tmp486
# main_amiga_scroller_hdmi.c:114:   uint8_t p3 = gimp_image.pixel_data[(((x<<2) + 3)) + y*(320<<2)];
	add	a7,a3,a0	# _537, tmp895, tmp492
# main_amiga_scroller_hdmi.c:113:   uint8_t p2 = gimp_image.pixel_data[(((x<<2) + 2)) + y*(320<<2)];
	add	a2,a2,t6	# _567, tmp921, tmp486
# main_amiga_scroller_hdmi.c:112:   uint8_t p1 = gimp_image.pixel_data[(((x<<2) + 1)) + y*(320<<2)];
	add	a0,a4,a0	# _537, tmp902, tmp499
# main_amiga_scroller_hdmi.c:114:   uint8_t p3 = gimp_image.pixel_data[(((x<<2) + 3)) + y*(320<<2)];
	add	a3,a3,t6	# _567, tmp927, tmp492
# main_amiga_scroller_hdmi.c:112:   uint8_t p1 = gimp_image.pixel_data[(((x<<2) + 1)) + y*(320<<2)];
	add	a4,a4,t6	# _567, tmp934, tmp499
	lw	t6,24(sp)		# _89, %sfp
# main_amiga_scroller_hdmi.c:111:   uint8_t p0 = gimp_image.pixel_data[(((x<<2) + 0)) + y*(320<<2)];
	add	a1,a1,s5	# _86, tmp947, tmp480
# main_amiga_scroller_hdmi.c:116:   return (p3<<24 | p0 << 16 | p1 << 8 | p2);
	lbu	t2,12(t2)	# gimp_image.pixel_data[_508], gimp_image.pixel_data[_508]
	lbu	a1,12(a1)	# gimp_image.pixel_data[_87], gimp_image.pixel_data[_87]
# main_amiga_scroller_hdmi.c:135:     *(fb + y*HRES) = getbmpLine(col + xoff, y + yoff);
	sw	t3,-580(s1)	# tmp810, MEM[(uint32_t *)&scroll_buf + 3516B]
	sw	ra,-260(s1)	# tmp842, MEM[(uint32_t *)&scroll_buf + 3836B]
# main_amiga_scroller_hdmi.c:116:   return (p3<<24 | p0 << 16 | p1 << 8 | p2);
	lbu	t3,12(s4)	# gimp_image.pixel_data[_568], gimp_image.pixel_data[_568]
# main_amiga_scroller_hdmi.c:114:   uint8_t p3 = gimp_image.pixel_data[(((x<<2) + 3)) + y*(320<<2)];
	add	ra,s0,s11	# _95, tmp959, tmp954
# main_amiga_scroller_hdmi.c:116:   return (p3<<24 | p0 << 16 | p1 << 8 | p2);
	lbu	t4,12(t4)	# gimp_image.pixel_data[_514], gimp_image.pixel_data[_514]
# main_amiga_scroller_hdmi.c:116:   return (p3<<24 | p0 << 16 | p1 << 8 | p2);
	lbu	a5,12(a5)	# gimp_image.pixel_data[_542], gimp_image.pixel_data[_542]
	lbu	a2,12(a2)	# gimp_image.pixel_data[_572], gimp_image.pixel_data[_572]
# main_amiga_scroller_hdmi.c:116:   return (p3<<24 | p0 << 16 | p1 << 8 | p2);
	lbu	a3,12(a3)	# gimp_image.pixel_data[_574], gimp_image.pixel_data[_574]
# main_amiga_scroller_hdmi.c:112:   uint8_t p1 = gimp_image.pixel_data[(((x<<2) + 1)) + y*(320<<2)];
	add	s4,s0,t6	# _89, tmp966, tmp954
# main_amiga_scroller_hdmi.c:116:   return (p3<<24 | p0 << 16 | p1 << 8 | p2);
	lbu	t5,12(t5)	# gimp_image.pixel_data[_512], gimp_image.pixel_data[_512]
# main_amiga_scroller_hdmi.c:116:   return (p3<<24 | p0 << 16 | p1 << 8 | p2);
	lbu	a7,12(a7)	# gimp_image.pixel_data[_544], gimp_image.pixel_data[_544]
# main_amiga_scroller_hdmi.c:116:   return (p3<<24 | p0 << 16 | p1 << 8 | p2);
	lbu	t0,12(t0)	# gimp_image.pixel_data[_93], gimp_image.pixel_data[_93]
# main_amiga_scroller_hdmi.c:116:   return (p3<<24 | p0 << 16 | p1 << 8 | p2);
	lbu	ra,12(ra)	# gimp_image.pixel_data[_96], gimp_image.pixel_data[_96]
# main_amiga_scroller_hdmi.c:116:   return (p3<<24 | p0 << 16 | p1 << 8 | p2);
	lbu	s0,12(a0)	# gimp_image.pixel_data[_540], gimp_image.pixel_data[_540]
	lbu	t6,12(a4)	# gimp_image.pixel_data[_570], gimp_image.pixel_data[_570]
	lbu	a0,12(s4)	# gimp_image.pixel_data[_90], gimp_image.pixel_data[_90]
# main_amiga_scroller_hdmi.c:116:   return (p3<<24 | p0 << 16 | p1 << 8 | p2);
	slli	a4,t3,16	#, tmp918, gimp_image.pixel_data[_568]
	slli	t2,t2,16	#, tmp854, gimp_image.pixel_data[_508]
	slli	t1,t1,16	#, tmp886, gimp_image.pixel_data[_538]
	slli	a1,a1,16	#, tmp950, gimp_image.pixel_data[_87]
# main_amiga_scroller_hdmi.c:116:   return (p3<<24 | p0 << 16 | p1 << 8 | p2);
	slli	t3,t4,24	#, tmp866, gimp_image.pixel_data[_514]
# main_amiga_scroller_hdmi.c:116:   return (p3<<24 | p0 << 16 | p1 << 8 | p2);
	or	t1,t1,a5	# gimp_image.pixel_data[_542], tmp892, tmp886
	or	a4,a4,a2	# gimp_image.pixel_data[_572], tmp924, tmp918
# main_amiga_scroller_hdmi.c:116:   return (p3<<24 | p0 << 16 | p1 << 8 | p2);
	slli	t4,a3,24	#, tmp930, gimp_image.pixel_data[_574]
# main_amiga_scroller_hdmi.c:116:   return (p3<<24 | p0 << 16 | p1 << 8 | p2);
	or	t2,t2,t5	# gimp_image.pixel_data[_512], tmp860, tmp854
# main_amiga_scroller_hdmi.c:116:   return (p3<<24 | p0 << 16 | p1 << 8 | p2);
	slli	a7,a7,24	#, tmp898, gimp_image.pixel_data[_544]
# main_amiga_scroller_hdmi.c:116:   return (p3<<24 | p0 << 16 | p1 << 8 | p2);
	or	a5,a1,t0	# gimp_image.pixel_data[_93], tmp956, tmp950
# main_amiga_scroller_hdmi.c:116:   return (p3<<24 | p0 << 16 | p1 << 8 | p2);
	slli	ra,ra,24	#, tmp962, gimp_image.pixel_data[_96]
# main_amiga_scroller_hdmi.c:116:   return (p3<<24 | p0 << 16 | p1 << 8 | p2);
	or	a2,t2,t3	# tmp866, tmp867, tmp860
# main_amiga_scroller_hdmi.c:116:   return (p3<<24 | p0 << 16 | p1 << 8 | p2);
	slli	a6,a6,8	#, tmp873, gimp_image.pixel_data[_510]
# main_amiga_scroller_hdmi.c:116:   return (p3<<24 | p0 << 16 | p1 << 8 | p2);
	or	a3,t1,a7	# tmp898, tmp899, tmp892
# main_amiga_scroller_hdmi.c:116:   return (p3<<24 | p0 << 16 | p1 << 8 | p2);
	slli	s0,s0,8	#, tmp905, gimp_image.pixel_data[_540]
# main_amiga_scroller_hdmi.c:116:   return (p3<<24 | p0 << 16 | p1 << 8 | p2);
	or	a4,a4,t4	# tmp930, tmp931, tmp924
# main_amiga_scroller_hdmi.c:116:   return (p3<<24 | p0 << 16 | p1 << 8 | p2);
	slli	t6,t6,8	#, tmp937, gimp_image.pixel_data[_570]
# main_amiga_scroller_hdmi.c:116:   return (p3<<24 | p0 << 16 | p1 << 8 | p2);
	or	a5,a5,ra	# tmp962, tmp963, tmp956
# main_amiga_scroller_hdmi.c:116:   return (p3<<24 | p0 << 16 | p1 << 8 | p2);
	slli	a0,a0,8	#, tmp969, gimp_image.pixel_data[_90]
# main_amiga_scroller_hdmi.c:116:   return (p3<<24 | p0 << 16 | p1 << 8 | p2);
	or	a5,a5,a0	# tmp969, tmp970, tmp963
	or	a2,a2,a6	# tmp873, tmp874, tmp867
	or	a3,a3,s0	# tmp905, tmp906, tmp899
	or	a4,a4,t6	# tmp937, tmp938, tmp931
# main_amiga_scroller_hdmi.c:135:     *(fb + y*HRES) = getbmpLine(col + xoff, y + yoff);
	sw	a2,60(s1)	# tmp874, MEM[(uint32_t *)&scroll_buf + 4156B]
	sw	a3,380(s1)	# tmp906, MEM[(uint32_t *)&scroll_buf + 4476B]
	sw	a4,700(s1)	# tmp938, MEM[(uint32_t *)&scroll_buf + 4796B]
	sw	a5,1020(s1)	# tmp970, MEM[(uint32_t *)&scroll_buf + 5116B]
# main_amiga_scroller_hdmi.c:158:       uint32_t *dst = !(fb & 1) ? (FB0_MEM) : (FB1_MEM);
	lw	a5,12(sp)		# fb, %sfp
	beq	a5,zero,.L328	#, fb,,
	li	a5,268468224		# prephitmp_429,
	li	a6,268468224		# iftmp.43_42,
.L317:
# kianv_stdlib.h:53:   *( (volatile uint32_t*) DMA_LEN  ) = len;
	lw	a4,160(sp)		# tmp977, %sfp
# kianv_stdlib.h:51:   *( (volatile uint32_t*) DMA_SRC  ) = src;
	sw	a5,44(s7)	# prephitmp_429, MEM[(volatile uint32_t *)805306412B]
# kianv_stdlib.h:52:   *( (volatile uint32_t*) DMA_DST  ) = dst;
	sw	zero,48(s7)	#, MEM[(volatile uint32_t *)805306416B]
# kianv_stdlib.h:53:   *( (volatile uint32_t*) DMA_LEN  ) = len;
	li	a5,805306368		# tmp1329,
	lw	a7,168(sp)		# ivtmp.389, %sfp
	sw	a4,52(a5)	# tmp977, MEM[(volatile uint32_t *)805306420B]
# main_amiga_scroller_hdmi.c:164:       for (int y = 0; y < 16; y++) {
	li	t1,1359		# tmp999,
# kianv_stdlib.h:54:   *( (volatile uint32_t*) DMA_CTRL ) = ctrl;
	li	a5,2		# tmp981,
	sw	a5,56(s7)	# tmp981, MEM[(volatile uint32_t *)805306424B]
	sub	a0,s6,s8	# ivtmp.391, tmp983, ivtmp.403
	addi	t3,s8,-79	#, ivtmp.380, ivtmp.403
# main_amiga_scroller_hdmi.c:164:       for (int y = 0; y < 16; y++) {
	sub	t1,t1,s8	# tmp1000, tmp999, ivtmp.403
.L318:
	mv	a3,t3	# ivtmp.380, ivtmp.380
# main_amiga_scroller_hdmi.c:158:       uint32_t *dst = !(fb & 1) ? (FB0_MEM) : (FB1_MEM);
	mv	a2,a7	# ivtmp.382, ivtmp.389
.L319:
# main_amiga_scroller_hdmi.c:166:           offset = sin_offset[(x+j) % 79];
	rem	a4,a3,s6	# tmp983, tmp991, ivtmp.380
# main_amiga_scroller_hdmi.c:167:           *(dst + y*80 + x + offset) = *(scroll_buf + y*80 + (x+1));
	add	a5,a0,a3	# ivtmp.380, tmp994, ivtmp.391
# main_amiga_scroller_hdmi.c:167:           *(dst + y*80 + x + offset) = *(scroll_buf + y*80 + (x+1));
	lw	a1,0(a2)		# _16, MEM[(uint32_t *)_369]
# main_amiga_scroller_hdmi.c:165:         for (int x = 0; x < 79; x++) {
	addi	a3,a3,1	#, ivtmp.380, ivtmp.380
	addi	a2,a2,4	#, ivtmp.382, ivtmp.382
# main_amiga_scroller_hdmi.c:166:           offset = sin_offset[(x+j) % 79];
	slli	a4,a4,2	#, tmp993, tmp991
	add	a4,s2,a4	# tmp993, tmp992, tmp1083
# main_amiga_scroller_hdmi.c:167:           *(dst + y*80 + x + offset) = *(scroll_buf + y*80 + (x+1));
	lw	a4,104(a4)		# sin_offset[_4], sin_offset[_4]
	add	a5,a5,a4	# sin_offset[_4], tmp995, tmp994
# main_amiga_scroller_hdmi.c:167:           *(dst + y*80 + x + offset) = *(scroll_buf + y*80 + (x+1));
	slli	a5,a5,2	#, tmp997, tmp995
	add	a5,a6,a5	# tmp997, tmp998, iftmp.43_42
	sw	a1,0(a5)	# _16, *_15
# main_amiga_scroller_hdmi.c:165:         for (int x = 0; x < 79; x++) {
	bne	s8,a3,.L319	#, ivtmp.403, ivtmp.380,
# main_amiga_scroller_hdmi.c:164:       for (int y = 0; y < 16; y++) {
	addi	a0,a0,80	#, ivtmp.391, ivtmp.391
	addi	a7,a7,320	#, ivtmp.389, ivtmp.389
	bne	t1,a0,.L318	#, tmp1000, ivtmp.391,
# kianv_stdlib.h:158:   return *((volatile uint32_t*) CPU_FREQ);
	lw	a4,16(s7)		# _109, MEM[(volatile uint32_t *)805306384B]
# kianv_stdlib.h:150:   asm volatile ("rdcycleh %0" : "=r"(tmph0));
 #APP
# 150 "kianv_stdlib.h" 1
	rdcycleh a5	# tmp1003
# 0 "" 2
 #NO_APP
	sw	a5,184(sp)	# tmp1003, tmph0
# kianv_stdlib.h:151:   asm volatile ("rdcycle  %0" : "=r"(tmpl0));
 #APP
# 151 "kianv_stdlib.h" 1
	rdcycle  a5	# tmp1004
# 0 "" 2
# kianv_stdlib.h:172:   if (ms) wait_cycles(ms * (get_cpu_freq() / 1000));
 #NO_APP
	li	a3,1000		# tmp1006,
	divu	a4,a4,a3	# tmp1006, tmp1007, _109
# kianv_stdlib.h:151:   asm volatile ("rdcycle  %0" : "=r"(tmpl0));
	sw	a5,188(sp)	# tmp1004, tmpl0
# kianv_stdlib.h:153:   return ((uint64_t)(tmph0)<<32) + tmpl0;
	lw	a3,184(sp)		# tmph0.0_113, tmph0
# kianv_stdlib.h:153:   return ((uint64_t)(tmph0)<<32) + tmpl0;
	lw	a2,188(sp)		# tmpl0.1_116, tmpl0
# kianv_stdlib.h:172:   if (ms) wait_cycles(ms * (get_cpu_freq() / 1000));
	slli	a5,a4,2	#, tmp1009, tmp1007
	add	a5,a5,a4	# tmp1007, tmp1010, tmp1009
	slli	a5,a5,1	#, tmp1011, tmp1010
# kianv_stdlib.h:162:   uint64_t lim = get_cycles() + wait;
	add	a2,a5,a2	# tmpl0.1_116, tmp1062, tmp1011
	sltu	a5,a2,a5	# tmp1011, tmp1023, tmp1062
	add	a5,a5,a3	# tmph0.0_113, tmp1025, tmp1023
.L334:
# kianv_stdlib.h:150:   asm volatile ("rdcycleh %0" : "=r"(tmph0));
 #APP
# 150 "kianv_stdlib.h" 1
	rdcycleh a4	# tmp1026
# 0 "" 2
 #NO_APP
	sw	a4,176(sp)	# tmp1026, tmph0
# kianv_stdlib.h:151:   asm volatile ("rdcycle  %0" : "=r"(tmpl0));
 #APP
# 151 "kianv_stdlib.h" 1
	rdcycle  a4	# tmp1027
# 0 "" 2
 #NO_APP
	sw	a4,180(sp)	# tmp1027, tmpl0
# kianv_stdlib.h:153:   return ((uint64_t)(tmph0)<<32) + tmpl0;
	lw	a4,176(sp)		# tmph0.0_120, tmph0
# kianv_stdlib.h:153:   return ((uint64_t)(tmph0)<<32) + tmpl0;
	lw	a3,180(sp)		# tmpl0.1_123, tmpl0
# kianv_stdlib.h:163:   while (get_cycles() < lim)
	bgtu	a5,a4,.L334	#, tmp1025, tmph0.0_120,
	bne	a5,a4,.L330	#, tmp1025, tmph0.0_120,
	bgtu	a2,a3,.L334	#, tmp1062, tmpl0.1_123,
.L330:
# main_amiga_scroller_hdmi.c:104:   *(FB_CTRL) = fb & 0x01;
	lw	a5,12(sp)		# fb, %sfp
	lw	a3,164(sp)		# ivtmp.373, %sfp
	sw	a5,36(s7)	# fb, MEM[(volatile uint32_t *)805306404B]
.L323:
	addi	a5,a3,-316	#, ivtmp.362, ivtmp.373
.L324:
# main_amiga_scroller_hdmi.c:177:           *(scroll_buf + y*80 + x) = *(scroll_buf + y*80 + (x+1));
	lw	a4,4(a5)		# MEM[(uint32_t *)_280 + 4B], MEM[(uint32_t *)_280 + 4B]
# main_amiga_scroller_hdmi.c:176:         for (int x = 0; x < 79; x++) {
	addi	a5,a5,4	#, ivtmp.362, ivtmp.362
# main_amiga_scroller_hdmi.c:177:           *(scroll_buf + y*80 + x) = *(scroll_buf + y*80 + (x+1));
	sw	a4,-4(a5)	# MEM[(uint32_t *)_280 + 4B], MEM[(uint32_t *)_280]
# main_amiga_scroller_hdmi.c:176:         for (int x = 0; x < 79; x++) {
	bne	a3,a5,.L324	#, ivtmp.373, ivtmp.362,
# main_amiga_scroller_hdmi.c:175:       for (int y = 0; y < 16; y++) {
	addi	a3,a3,320	#, ivtmp.373, ivtmp.373
	bne	a3,s10,.L323	#, ivtmp.373, _432,
# main_amiga_scroller_hdmi.c:156:     for (int col = 0; col < 16; col++) {
	lw	a5,20(sp)		# col, %sfp
# main_amiga_scroller_hdmi.c:180:       fb ^= 1;
	lw	a3,12(sp)		# fb, %sfp
# main_amiga_scroller_hdmi.c:156:     for (int col = 0; col < 16; col++) {
	addi	s8,s8,2	#, ivtmp.403, ivtmp.403
# main_amiga_scroller_hdmi.c:156:     for (int col = 0; col < 16; col++) {
	addi	a4,a5,1	#, col, col
# main_amiga_scroller_hdmi.c:180:       fb ^= 1;
	xori	a3,a3,1	#, fb, fb
# main_amiga_scroller_hdmi.c:156:     for (int col = 0; col < 16; col++) {
	sw	a4,20(sp)	# col, %sfp
# main_amiga_scroller_hdmi.c:156:     for (int col = 0; col < 16; col++) {
	li	a5,16		# tmp1048,
# main_amiga_scroller_hdmi.c:180:       fb ^= 1;
	sw	a3,12(sp)	# fb, %sfp
# main_amiga_scroller_hdmi.c:156:     for (int col = 0; col < 16; col++) {
	bne	a4,a5,.L326	#, col, tmp1048,
# main_amiga_scroller_hdmi.c:182:     p = *p ? p + 1 : msg;
	lw	s9,28(sp)		# p, %sfp
# main_amiga_scroller_hdmi.c:170:     j += 2;
	lw	a4,16(sp)		# j, %sfp
# main_amiga_scroller_hdmi.c:182:     p = *p ? p + 1 : msg;
	lbu	a5,0(s9)	# *p_34, *p_34
# main_amiga_scroller_hdmi.c:170:     j += 2;
	addi	a4,a4,32	#, j, j
	sw	a4,16(sp)	# j, %sfp
# main_amiga_scroller_hdmi.c:182:     p = *p ? p + 1 : msg;
	beq	a5,zero,.L329	#, *p_34,,
# main_amiga_scroller_hdmi.c:182:     p = *p ? p + 1 : msg;
	addi	s9,s9,1	#, p, p
	mv	a5,a4	# j, j
	j	.L316		#
.L328:
	li	a5,268435456		# prephitmp_429,
# main_amiga_scroller_hdmi.c:158:       uint32_t *dst = !(fb & 1) ? (FB0_MEM) : (FB1_MEM);
	li	a6,268435456		# iftmp.43_42,
	j	.L317		#
.L329:
# main_amiga_scroller_hdmi.c:182:     p = *p ? p + 1 : msg;
	mv	s9,s2	# p, tmp1083
	mv	a5,a4	# j, j
	j	.L316		#
	.size	main, .-main
	.globl	scroll_buf
	.globl	sin_offset
	.globl	heap_memory_used
	.globl	heap_memory
	.globl	gimp_image
	.section	.rodata
	.align	2
	.type	gimp_image, @object
	.size	gimp_image, 61456
gimp_image:
# width:
	.word	320
# height:
	.word	48
# bytes_per_pixel:
	.word	4
# pixel_data:
	.string	""
	.string	""
	.string	""
	.string	"\377"
	.string	""
	.string	""
	.string	"\377"
	.string	""
	.string	""
	.string	"\377"
	.string	""
	.string	""
	.string	"\377"
	.string	""
	.string	""
	.string	"\377"
	.string	""
	.string	""
	.string	"\377"
	.string	""
	.string	""
	.string	"\377"
	.string	""
	.string	""
	.string	"\377"
	.string	""
	.string	""
	.string	"\377"
	.string	""
	.string	""
	.string	"\377"
	.string	""
	.string	""
	.string	"\377"
	.string	""
	.string	""
	.string	"\377"
	.string	""
	.string	""
	.string	"\377"
	.string	""
	.string	""
	.string	"\377"
	.string	""
	.string	""
	.string	"\377"
	.string	""
	.string	""
	.string	"\377"
	.string	""
	.string	""
	.string	"\377\340\260"
	.string	"\377\340\260"
	.string	"\377\340\260"
	.string	"\377\340\260"
	.string	"\377"
	.string	""
	.string	""
	.string	"\377"
	.string	""
	.string	""
	.string	"\377"
	.string	""
	.string	""
	.string	"\377"
	.string	""
	.string	""
	.string	"\377"
	.string	""
	.string	""
	.string	"\377"
	.string	""
	.string	""
	.string	"\377"
	.string	""
	.string	""
	.string	"\377"
	.string	""
	.string	""
	.string	"\377"
	.string	""
	.string	""
	.string	"\377"
	.string	""
	.string	""
	.string	"\377"
	.string	""
	.string	""
	.string	"\377"
	.string	""
	.string	""
	.string	"\377"
	.string	""
	.string	""
	.string	"\377"
	.string	""
	.string	""
	.string	"\377"
	.string	""
	.string	""
	.string	"\377"
	.string	""
	.string	""
	.string	"\377"
	.string	""
	.string	""
	.string	"\377"
	.string	""
	.string	""
	.string	"\377"
	.string	""
	.string	""
	.string	"\377"
	.string	""
	.string	""
	.string	"\377"
	.string	""
	.string	""
	.string	"\377"
	.string	""
	.string	""
	.string	"\377"
	.string	""
	.string	""
	.string	"\377"
	.string	""
	.string	""
	.string	"\377"
	.string	""
	.string	""
	.string	"\377"
	.string	""
	.string	""
	.string	"\377"
	.string	""
	.string	""
	.string	"\377"
	.string	""
	.string	""
	.string	"\377"
	.string	""
	.string	""
	.string	"\377"
	.string	""
	.string	""
	.string	"\377"
	.string	""
	.string	""
	.string	"\377"
	.string	""
	.string	""
	.string	"\377"
	.string	""
	.string	""
	.string	"\377"
	.string	""
	.string	""
	.string	"\377"
	.string	""
	.string	""
	.string	"\377"
	.string	""
	.string	""
	.string	"\377"
	.string	""
	.string	""
	.string	"\377"
	.string	""
	.string	""
	.string	"\377"
	.string	""
	.string	""
	.string	"\377"
	.string	""
	.string	""
	.string	"\377"
	.string	""
	.string	""
	.string	"\377"
	.string	""
	.string	""
	.string	"\377"
	.string	""
	.string	""
	.string	"\377"
	.string	""
	.string	""
	.string	"\377"
	.string	""
	.string	""
	.string	"\377"
	.string	""
	.string	""
	.string	"\377"
	.string	""
	.string	""
	.string	"\377"
	.string	""
	.string	""
	.string	"\377"
	.string	""
	.string	""
	.string	"\377"
	.string	""
	.string	""
	.string	"\377"
	.string	""
	.string	""
	.string	"\377"
	.string	""
	.string	""
	.string	"\377"
	.string	""
	.string	""
	.string	"\377"
	.string	""
	.string	""
	.string	"\377"
	.string	""
	.string	""
	.string	"\377"
	.string	""
	.string	""
	.string	"\377"
	.string	""
	.string	""
	.string	"\377"
	.string	""
	.string	""
	.string	"\377"
	.string	""
	.string	""
	.string	"\377"
	.string	""
	.string	""
	.string	"\377"
	.string	""
	.string	""
	.string	"\377"
	.string	""
	.string	""
	.string	"\377"
	.string	""
	.string	""
	.string	"\377"
	.string	""
	.string	""
	.string	"\377"
	.string	""
	.string	""
	.string	"\377"
	.string	""
	.string	""
	.string	"\377"
	.string	""
	.string	""
	.string	"\377"
	.string	""
	.string	""
	.string	"\377"
	.string	""
	.string	""
	.string	"\377"
	.string	""
	.string	""
	.string	"\377"
	.string	""
	.string	""
	.string	"\377"
	.string	""
	.string	""
	.string	"\377"
	.string	""
	.string	""
	.string	"\377"
	.string	""
	.string	""
	.string	"\377"
	.string	""
	.string	""
	.string	"\377"
	.string	""
	.string	""
	.string	"\377"
	.string	""
	.string	""
	.string	"\377"
	.string	""
	.string	""
	.string	"\377"
	.string	""
	.string	""
	.string	"\377"
	.string	""
	.string	""
	.string	"\377"
	.string	""
	.string	""
	.string	"\377"
	.string	""
	.string	""
	.string	"\377"
	.string	""
	.string	""
	.string	"\377"
	.string	""
	.string	""
	.string	"\377"
	.string	""
	.string	""
	.string	"\377"
	.string	""
	.string	""
	.string	"\377"
	.string	""
	.string	""
	.string	"\377"
	.string	""
	.string	""
	.string	"\377"
	.string	""
	.string	""
	.string	"\377"
	.string	""
	.string	""
	.string	"\377"
	.string	""
	.string	""
	.string	"\377"
	.string	""
	.string	""
	.string	"\377"
	.string	""
	.string	""
	.string	"\377\340\260"
	.string	"\377\340\260"
	.string	"\377"
	.string	""
	.string	""
	.string	"\377"
	.string	""
	.string	""
	.string	"\377"
	.string	""
	.string	""
	.string	"\377"
	.string	""
	.string	""
	.string	"\377"
	.string	""
	.string	""
	.string	"\377"
	.string	""
	.string	""
	.string	"\377"
	.string	""
	.string	""
	.string	"\377"
	.string	""
	.string	""
	.string	"\377"
	.string	""
	.string	""
	.string	"\377"
	.string	""
	.string	""
	.string	"\377"
	.string	""
	.string	""
	.string	"\377"
	.string	""
	.string	""
	.string	"\377"
	.string	""
	.string	""
	.string	"\377"
	.string	""
	.string	""
	.string	"\377"
	.string	""
	.string	""
	.string	"\377"
	.string	""
	.string	""
	.string	"\377"
	.string	""
	.string	""
	.string	"\377"
	.string	""
	.string	""
	.string	"\377"
	.string	""
	.string	""
	.string	"\377"
	.string	""
	.string	""
	.string	"\377"
	.string	""
	.string	""
	.string	"\377\340\260"
	.string	"\377\340\260"
	.string	"\377\340\260"
	.string	"\377\340\260"
	.string	"\377"
	.string	""
	.string	""
	.string	"\377"
	.string	""
	.string	""
	.string	"\377"
	.string	""
	.string	""
	.string	"\377"
	.string	""
	.string	""
	.string	"\377"
	.string	""
	.string	""
	.string	"\377\340\260"
	.string	"\377\340\260"
	.string	"\377\340\260"
	.string	"\377\340\260"
	.string	"\377"
	.string	""
	.string	""
	.string	"\377"
	.string	""
	.string	""
	.string	"\377"
	.string	""
	.string	""
	.string	"\377"
	.string	""
	.string	""
	.string	"\377"
	.string	""
	.string	""
	.string	"\377"
	.string	""
	.string	""
	.string	"\377"
	.string	""
	.string	""
	.string	"\377"
	.string	""
	.string	""
	.string	"\377"
	.string	""
	.string	""
	.string	"\377"
	.string	""
	.string	""
	.string	"\377"
	.string	""
	.string	""
	.string	"\377"
	.string	""
	.string	""
	.string	"\377"
	.string	""
	.string	""
	.string	"\377"
	.string	""
	.string	""
	.string	"\377"
	.string	""
	.string	""
	.string	"\377"
	.string	""
	.string	""
	.string	"\377"
	.string	""
	.string	""
	.string	"\377"
	.string	""
	.string	""
	.string	"\377"
	.string	""
	.string	""
	.string	"\377"
	.string	""
	.string	""
	.string	"\377"
	.string	""
	.string	""
	.string	"\377"
	.string	""
	.string	""
	.string	"\377"
	.string	""
	.string	""
	.string	"\377"
	.string	""
	.string	""
	.string	"\377"
	.string	""
	.string	""
	.string	"\377"
	.string	""
	.string	""
	.string	"\377"
	.string	""
	.string	""
	.string	"\377"
	.string	""
	.string	""
	.string	"\377"
	.string	""
	.string	""
	.string	"\377"
	.string	""
	.string	""
	.string	"\377"
	.string	""
	.string	""
	.string	"\377"
	.string	""
	.string	""
	.string	"\377"
	.string	""
	.string	""
	.string	"\377"
	.string	""
	.string	""
	.string	"\377"
	.string	""
	.string	""
	.string	"\377"
	.string	""
	.string	""
	.string	"\377"
	.string	""
	.string	""
	.string	"\377"
	.string	""
	.string	""
	.string	"\377"
	.string	""
	.string	""
	.string	"\377"
	.string	""
	.string	""
	.string	"\377"
	.string	""
	.string	""
	.string	"\377"
	.string	""
	.string	""
	.string	"\377"
	.string	""
	.string	""
	.string	"\377"
	.string	""
	.string	""
	.string	"\377"
	.string	""
	.string	""
	.string	"\377"
	.string	""
	.string	""
	.string	"\377"
	.string	""
	.string	""
	.string	"\377"
	.string	""
	.string	""
	.string	"\377"
	.string	""
	.string	""
	.string	"\377"
	.string	""
	.string	""
	.string	"\377"
	.string	""
	.string	""
	.string	"\377"
	.string	""
	.string	""
	.string	"\377"
	.string	""
	.string	""
	.string	"\377"
	.string	""
	.string	""
	.string	"\377"
	.string	""
	.string	""
	.string	"\377"
	.string	""
	.string	""
	.string	"\377"
	.string	""
	.string	""
	.string	"\377"
	.string	""
	.string	""
	.string	"\377"
	.string	""
	.string	""
	.string	"\377"
	.string	""
	.string	""
	.string	"\377"
	.string	""
	.string	""
	.string	"\377"
	.string	""
	.string	""
	.string	"\377"
	.string	""
	.string	""
	.string	"\377"
	.string	""
	.string	""
	.string	"\377"
	.string	""
	.string	""
	.string	"\377"
	.string	""
	.string	""
	.string	"\377"
	.string	""
	.string	""
	.string	"\377"
	.string	""
	.string	""
	.string	"\377"
	.string	""
	.string	""
	.string	"\377"
	.string	""
	.string	""
	.string	"\377"
	.string	""
	.string	""
	.string	"\377"
	.string	""
	.string	""
	.string	"\377"
	.string	""
	.string	""
	.string	"\377"
	.string	""
	.string	""
	.string	"\377"
	.string	""
	.string	""
	.string	"\377"
	.string	""
	.string	""
	.string	"\377"
	.string	""
	.string	""
	.string	"\377"
	.string	""
	.string	""
	.string	"\377"
	.string	""
	.string	""
	.string	"\377"
	.string	""
	.string	""
	.string	"\377"
	.string	""
	.string	""
	.string	"\377"
	.string	""
	.string	""
	.string	"\377"
	.string	""
	.string	""
	.string	"\377"
	.string	""
	.string	""
	.string	"\377"
	.string	""
	.string	""
	.string	"\377"
	.string	""
	.string	""
	.string	"\377"
	.string	""
	.string	""
	.string	"\377"
	.string	""
	.string	""
	.string	"\377"
	.string	""
	.string	""
	.string	"\377"
	.string	""
	.string	""
	.string	"\377"
	.string	""
	.string	""
	.string	"\377"
	.string	""
	.string	""
	.string	"\377"
	.string	""
	.string	""
	.string	"\377"
	.string	""
	.string	""
	.string	"\377"
	.string	""
	.string	""
	.string	"\377"
	.string	""
	.string	""
	.string	"\377"
	.string	""
	.string	""
	.string	"\377"
	.string	""
	.string	""
	.string	"\377"
	.string	""
	.string	""
	.string	"\377"
	.string	""
	.string	""
	.string	"\377"
	.string	""
	.string	""
	.string	"\377"
	.string	""
	.string	""
	.string	"\377"
	.string	""
	.string	""
	.string	"\377"
	.string	""
	.string	""
	.string	"\377"
	.string	""
	.string	""
	.string	"\377"
	.string	""
	.string	""
	.string	"\377"
	.string	""
	.string	""
	.string	"\377"
	.string	""
	.string	""
	.string	"\377"
	.string	""
	.string	""
	.string	"\377"
	.string	""
	.string	""
	.string	"\377\340\260"
	.string	"\377\340\260"
	.string	"\377\340\260"
	.string	"\377\340\260"
	.string	"\377\340\260"
	.string	"\377\340\260"
	.string	"\377\340\260"
	.string	"\377"
	.string	""
	.string	""
	.string	"\377"
	.string	""
	.string	""
	.string	"\377"
	.string	""
	.string	""
	.string	"\377"
	.string	""
	.string	""
	.string	"\377"
	.string	""
	.string	""
	.string	"\377"
	.string	""
	.string	""
	.string	"\377"
	.string	""
	.string	""
	.string	"\377"
	.string	""
	.string	""
	.string	"\377\340\260"
	.string	"\377\340\260"
	.string	"\377\340\260"
	.string	"\377\340\260"
	.string	"\377"
	.string	""
	.string	""
	.string	"\377"
	.string	""
	.string	""
	.string	"\377"
	.string	""
	.string	""
	.string	"\377"
	.string	""
	.string	""
	.string	"\377"
	.string	""
	.string	""
	.string	"\377"
	.string	""
	.string	""
	.string	"\377"
	.string	""
	.string	""
	.string	"\377"
	.string	""
	.string	""
	.string	"\377"
	.string	""
	.string	""
	.string	"\377"
	.string	""
	.string	""
	.string	"\377"
	.string	""
	.string	""
	.string	"\377"
	.string	""
	.string	""
	.string	"\377\340\260"
	.string	"\377\340\260"
	.string	"\377\340\260"
	.string	"\377\340\260"
	.string	"\377\340\260"
	.string	"\377\340\260"
	.string	"\377\340\260"
	.string	"\377\340\260"
	.string	"\377"
	.string	""
	.string	""
	.string	"\377"
	.string	""
	.string	""
	.string	"\377"
	.string	""
	.string	""
	.string	"\377"
	.string	""
	.string	""
	.string	"\377"
	.string	""
	.string	""
	.string	"\377\340\260"
	.string	"\377\340\260"
	.string	"\377\340\260"
	.string	"\377\340\260"
	.string	"\377\340\260"
	.string	"\377\340\260"
	.string	"\377\340\260"
	.string	"\377\340\260"
	.string	"\377\340\260"
	.string	"\377\340\260"
	.string	"\377\340\260"
	.string	"\377"
	.string	""
	.string	""
	.string	"\377"
	.string	""
	.string	""
	.string	"\377"
	.string	""
	.string	""
	.string	"\377"
	.string	""
	.string	""
	.string	"\377"
	.string	""
	.string	""
	.string	"\377"
	.string	""
	.string	""
	.string	"\377"
	.string	""
	.string	""
	.string	"\377"
	.string	""
	.string	""
	.string	"\377"
	.string	""
	.string	""
	.string	"\377"
	.string	""
	.string	""
	.string	"\377"
	.string	""
	.string	""
	.string	"\377"
	.string	""
	.string	""
	.string	"\377"
	.string	""
	.string	""
	.string	"\377"
	.string	""
	.string	""
	.string	"\377"
	.string	""
	.string	""
	.string	"\377"
	.string	""
	.string	""
	.string	"\377"
	.string	""
	.string	""
	.string	"\377"
	.string	""
	.string	""
	.string	"\377"
	.string	""
	.string	""
	.string	"\377"
	.string	""
	.string	""
	.string	"\377"
	.string	""
	.string	""
	.string	"\377"
	.string	""
	.string	""
	.string	"\377\340\260"
	.string	"\377\340\260"
	.string	"\377\340\260"
	.string	"\377\340\260"
	.string	"\377"
	.string	""
	.string	""
	.string	"\377"
	.string	""
	.string	""
	.string	"\377"
	.string	""
	.string	""
	.string	"\377"
	.string	""
	.string	""
	.string	"\377"
	.string	""
	.string	""
	.string	"\377"
	.string	""
	.string	""
	.string	"\377"
	.string	""
	.string	""
	.string	"\377"
	.string	""
	.string	""
	.string	"\377"
	.string	""
	.string	""
	.string	"\377"
	.string	""
	.string	""
	.string	"\377"
	.string	""
	.string	""
	.string	"\377"
	.string	""
	.string	""
	.string	"\377"
	.string	""
	.string	""
	.string	"\377"
	.string	""
	.string	""
	.string	"\377"
	.string	""
	.string	""
	.string	"\377"
	.string	""
	.string	""
	.string	"\377"
	.string	""
	.string	""
	.string	"\377"
	.string	""
	.string	""
	.string	"\377"
	.string	""
	.string	""
	.string	"\377"
	.string	""
	.string	""
	.string	"\377"
	.string	""
	.string	""
	.string	"\377"
	.string	""
	.string	""
	.string	"\377"
	.string	""
	.string	""
	.string	"\377"
	.string	""
	.string	""
	.string	"\377"
	.string	""
	.string	""
	.string	"\377"
	.string	""
	.string	""
	.string	"\377"
	.string	""
	.string	""
	.string	"\377"
	.string	""
	.string	""
	.string	"\377"
	.string	""
	.string	""
	.string	"\377"
	.string	""
	.string	""
	.string	"\377"
	.string	""
	.string	""
	.string	"\377"
	.string	""
	.string	""
	.string	"\377"
	.string	""
	.string	""
	.string	"\377"
	.string	""
	.string	""
	.string	"\377"
	.string	""
	.string	""
	.string	"\377"
	.string	""
	.string	""
	.string	"\377"
	.string	""
	.string	""
	.string	"\377"
	.string	""
	.string	""
	.string	"\377"
	.string	""
	.string	""
	.string	"\377"
	.string	""
	.string	""
	.string	"\377"
	.string	""
	.string	""
	.string	"\377"
	.string	""
	.string	""
	.string	"\377"
	.string	""
	.string	""
	.string	"\377"
	.string	""
	.string	""
	.string	"\377"
	.string	""
	.string	""
	.string	"\377"
	.string	""
	.string	""
	.string	"\377"
	.string	""
	.string	""
	.string	"\377"
	.string	""
	.string	""
	.string	"\377"
	.string	""
	.string	""
	.string	"\377"
	.string	""
	.string	""
	.string	"\377"
	.string	""
	.string	""
	.string	"\377"
	.string	""
	.string	""
	.string	"\377"
	.string	""
	.string	""
	.string	"\377"
	.string	""
	.string	""
	.string	"\377"
	.string	""
	.string	""
	.string	"\377"
	.string	""
	.string	""
	.string	"\377"
	.string	""
	.string	""
	.string	"\377"
	.string	""
	.string	""
	.string	"\377"
	.string	""
	.string	""
	.string	"\377"
	.string	""
	.string	""
	.string	"\377"
	.string	""
	.string	""
	.string	"\377"
	.string	""
	.string	""
	.string	"\377"
	.string	""
	.string	""
	.string	"\377"
	.string	""
	.string	""
	.string	"\377"
	.string	""
	.string	""
	.string	"\377"
	.string	""
	.string	""
	.string	"\377"
	.string	""
	.string	""
	.string	"\377"
	.string	""
	.string	""
	.string	"\377"
	.string	""
	.string	""
	.string	"\377"
	.string	""
	.string	""
	.string	"\377"
	.string	""
	.string	""
	.string	"\377"
	.string	""
	.string	""
	.string	"\377"
	.string	""
	.string	""
	.string	"\377"
	.string	""
	.string	""
	.string	"\377"
	.string	""
	.string	""
	.string	"\377"
	.string	""
	.string	""
	.string	"\377"
	.string	""
	.string	""
	.string	"\377"
	.string	""
	.string	""
	.string	"\377"
	.string	""
	.string	""
	.string	"\377"
	.string	""
	.string	""
	.string	"\377"
	.string	""
	.string	""
	.string	"\377"
	.string	""
	.string	""
	.string	"\377"
	.string	""
	.string	""
	.string	"\377"
	.string	""
	.string	""
	.string	"\377"
	.string	""
	.string	""
	.string	"\377"
	.string	""
	.string	""
	.string	"\377"
	.string	""
	.string	""
	.string	"\377"
	.string	""
	.string	""
	.string	"\377"
	.string	""
	.string	""
	.string	"\377"
	.string	""
	.string	""
	.string	"\377"
	.string	""
	.string	""
	.string	"\377"
	.string	""
	.string	""
	.string	"\377\340\260"
	.string	"\377\340\260"
	.string	"\377\340\260"
	.string	"\377"
	.string	""
	.string	""
	.string	"\377"
	.string	""
	.string	""
	.string	"\377"
	.string	""
	.string	""
	.string	"\377"
	.string	""
	.string	""
	.string	"\377"
	.string	""
	.string	""
	.string	"\377"
	.string	""
	.string	""
	.string	"\377"
	.string	""
	.string	""
	.string	"\377"
	.string	""
	.string	""
	.string	"\377"
	.string	""
	.string	""
	.string	"\377"
	.string	""
	.string	""
	.string	"\377"
	.string	""
	.string	""
	.string	"\377"
	.string	""
	.string	""
	.string	"\377"
	.string	""
	.string	""
	.string	"\377"
	.string	""
	.string	""
	.string	"\377"
	.string	""
	.string	""
	.string	"\377"
	.string	""
	.string	""
	.string	"\377"
	.string	""
	.string	""
	.string	"\377"
	.string	""
	.string	""
	.string	"\377"
	.string	""
	.string	""
	.string	"\377\340\260"
	.string	"\377\340\260"
	.string	"\377\340\260"
	.string	"\377\340\260"
	.string	"\377\340\260"
	.string	"\377\340\260"
	.string	"\377"
	.string	""
	.string	""
	.string	"\377"
	.string	""
	.string	""
	.string	"\377"
	.string	""
	.string	""
	.string	"\377"
	.string	""
	.string	""
	.string	"\377"
	.string	""
	.string	""
	.string	"\377\340\260"
	.string	"\377\340\260"
	.string	"\377\340\260"
	.string	"\377\340\260"
	.string	"\377\340\260"
	.string	"\377\340\260"
	.string	"\377"
	.string	""
	.string	""
	.string	"\377"
	.string	""
	.string	""
	.string	"\377"
	.string	""
	.string	""
	.string	"\377"
	.string	""
	.string	""
	.string	"\377"
	.string	""
	.string	""
	.string	"\377"
	.string	""
	.string	""
	.string	"\377"
	.string	""
	.string	""
	.string	"\377"
	.string	""
	.string	""
	.string	"\377"
	.string	""
	.string	""
	.string	"\377"
	.string	""
	.string	""
	.string	"\377"
	.string	""
	.string	""
	.string	"\377"
	.string	""
	.string	""
	.string	"\377"
	.string	""
	.string	""
	.string	"\377"
	.string	""
	.string	""
	.string	"\377"
	.string	""
	.string	""
	.string	"\377"
	.string	""
	.string	""
	.string	"\377"
	.string	""
	.string	""
	.string	"\377"
	.string	""
	.string	""
	.string	"\377"
	.string	""
	.string	""
	.string	"\377"
	.string	""
	.string	""
	.string	"\377"
	.string	""
	.string	""
	.string	"\377"
	.string	""
	.string	""
	.string	"\377"
	.string	""
	.string	""
	.string	"\377"
	.string	""
	.string	""
	.string	"\377"
	.string	""
	.string	""
	.string	"\377"
	.string	""
	.string	""
	.string	"\377"
	.string	""
	.string	""
	.string	"\377"
	.string	""
	.string	""
	.ascii	"\377"
	.string	""
	.string	""
	.string	""
	.string	"\377"
	.string	""
	.string	""
	.string	"\377"
	.string	""
	.string	""
	.string	"\377"
	.string	""
	.string	""
	.string	"\377"
	.string	""
	.string	""
	.string	"\377"
	.string	""
	.string	""
	.string	"\377"
	.string	""
	.string	""
	.string	"\377"
	.string	""
	.string	""
	.string	"\377"
	.string	""
	.string	""
	.string	"\377"
	.string	""
	.string	""
	.string	"\377"
	.string	""
	.string	""
	.string	"\377"
	.string	""
	.string	""
	.string	"\377"
	.string	""
	.string	""
	.string	"\377"
	.string	""
	.string	""
	.string	"\377"
	.string	""
	.string	""
	.string	"\377"
	.string	""
	.string	""
	.string	"\377"
	.string	""
	.string	""
	.string	"\377"
	.string	""
	.string	""
	.string	"\377"
	.string	""
	.string	""
	.string	"\377"
	.string	""
	.string	""
	.string	"\377"
	.string	""
	.string	""
	.string	"\377"
	.string	""
	.string	""
	.string	"\377"
	.string	""
	.string	""
	.string	"\377"
	.string	""
	.string	""
	.string	"\377"
	.string	""
	.string	""
	.string	"\377"
	.string	""
	.string	""
	.string	"\377"
	.string	""
	.string	""
	.string	"\377"
	.string	""
	.string	""
	.string	"\377"
	.string	""
	.string	""
	.string	"\377"
	.string	""
	.string	""
	.string	"\377"
	.string	""
	.string	""
	.string	"\377"
	.string	""
	.string	""
	.string	"\377"
	.string	""
	.string	""
	.string	"\377"
	.string	""
	.string	""
	.string	"\377"
	.string	""
	.string	""
	.string	"\377"
	.string	""
	.string	""
	.string	"\377"
	.string	""
	.string	""
	.string	"\377"
	.string	""
	.string	""
	.string	"\377"
	.string	""
	.string	""
	.string	"\377"
	.string	""
	.string	""
	.string	"\377"
	.string	""
	.string	""
	.string	"\377"
	.string	""
	.string	""
	.string	"\377"
	.string	""
	.string	""
	.string	"\377"
	.string	""
	.string	""
	.string	"\377"
	.string	""
	.string	""
	.string	"\377"
	.string	""
	.string	""
	.string	"\377"
	.string	""
	.string	""
	.string	"\377"
	.string	""
	.string	""
	.string	"\377"
	.string	""
	.string	""
	.string	"\377"
	.string	""
	.string	""
	.string	"\377"
	.string	""
	.string	""
	.string	"\377"
	.string	""
	.string	""
	.string	"\377"
	.string	""
	.string	""
	.string	"\377"
	.string	""
	.string	""
	.string	"\377"
	.string	""
	.string	""
	.string	"\377"
	.string	""
	.string	""
	.string	"\377"
	.string	""
	.string	""
	.string	"\377"
	.string	""
	.string	""
	.string	"\377"
	.string	""
	.string	""
	.string	"\377"
	.string	""
	.string	""
	.string	"\377"
	.string	""
	.string	""
	.string	"\377"
	.string	""
	.string	""
	.string	"\377"
	.string	""
	.string	""
	.string	"\377"
	.string	""
	.string	""
	.string	"\377"
	.string	""
	.string	""
	.string	"\377"
	.string	""
	.string	""
	.string	"\377"
	.string	""
	.string	""
	.string	"\377"
	.string	""
	.string	""
	.string	"\377"
	.string	""
	.string	""
	.string	"\377"
	.string	""
	.string	""
	.string	"\377"
	.string	""
	.string	""
	.string	"\377"
	.string	""
	.string	""
	.string	"\377"
	.string	""
	.string	""
	.string	"\377"
	.string	""
	.string	""
	.string	"\377"
	.string	""
	.string	""
	.string	"\377"
	.string	""
	.string	""
	.string	"\377"
	.string	""
	.string	""
	.string	"\377"
	.string	""
	.string	""
	.string	"\377\340\260"
	.string	"\377\340\260"
	.string	"\377\340\260"
	.string	"\377\340\260"
	.string	"\377\340\260"
	.string	"\377\340\260"
	.string	"\377\340\260"
	.string	"\377\340\260"
	.string	"\377\340\260"
	.string	"\377\340\260"
	.string	"\377\340\260"
	.string	"\377"
	.string	""
	.string	""
	.string	"\377"
	.string	""
	.string	""
	.string	"\377"
	.string	""
	.string	""
	.string	"\377"
	.string	""
	.string	""
	.string	"\377"
	.string	""
	.string	""
	.string	"\377\340\260"
	.string	"\377\340\260"
	.string	"\377\340\260"
	.string	"\377\340\260"
	.string	"\377\340\260"
	.string	"\377"
	.string	""
	.string	""
	.string	"\377"
	.string	""
	.string	""
	.string	"\377"
	.string	""
	.string	""
	.string	"\377"
	.string	""
	.string	""
	.string	"\377"
	.string	""
	.string	""
	.string	"\377"
	.string	""
	.string	""
	.string	"\377"
	.string	""
	.string	""
	.string	"\377"
	.string	""
	.string	""
	.string	"\377"
	.string	""
	.string	""
	.string	"\377"
	.string	""
	.string	""
	.string	"\377\340\260"
	.string	"\377\340\260"
	.string	"\377\340\260"
	.string	"\377\340\260"
	.string	"\377\340\260"
	.string	"\377\340\260"
	.string	"\377\340\260"
	.string	"\377\340\260"
	.string	"\377\340\260"
	.string	"\377\340\260"
	.string	"\377\340\260"
	.string	"\377\340\260"
	.string	"\377"
	.string	""
	.string	""
	.string	"\377"
	.string	""
	.string	""
	.string	"\377"
	.string	""
	.string	""
	.string	"\377\340\260"
	.string	"\377\340\260"
	.string	"\377\340\260"
	.string	"\377\340\260"
	.string	"\377\340\260"
	.string	"\377\340\260"
	.string	"\377\340\260"
	.string	"\377\340\260"
	.string	"\377\340\260"
	.string	"\377\340\260"
	.string	"\377\340\260"
	.string	"\377\340\260"
	.string	"\377\340\260"
	.string	"\377"
	.string	""
	.string	""
	.string	"\377"
	.string	""
	.string	""
	.string	"\377"
	.string	""
	.string	""
	.string	"\377"
	.string	""
	.string	""
	.string	"\377"
	.string	""
	.string	""
	.string	"\377"
	.string	""
	.string	""
	.string	"\377"
	.string	""
	.string	""
	.string	"\377"
	.string	""
	.string	""
	.string	"\377"
	.string	""
	.string	""
	.string	"\377"
	.string	""
	.string	""
	.string	"\377"
	.string	""
	.string	""
	.string	"\377"
	.string	""
	.string	""
	.string	"\377"
	.string	""
	.string	""
	.string	"\377"
	.string	""
	.string	""
	.string	"\377"
	.string	""
	.string	""
	.string	"\377"
	.string	""
	.string	""
	.string	"\377"
	.string	""
	.string	""
	.string	"\377"
	.string	""
	.string	""
	.string	"\377"
	.string	""
	.string	""
	.string	"\377"
	.string	""
	.string	""
	.string	"\377\340\260"
	.string	"\377\340\260"
	.string	"\377\340\260"
	.string	"\377\340\260"
	.string	"\377"
	.string	""
	.string	""
	.string	"\377"
	.string	""
	.string	""
	.string	"\377"
	.string	""
	.string	""
	.string	"\377"
	.string	""
	.string	""
	.string	"\377"
	.string	""
	.string	""
	.string	"\377"
	.string	""
	.string	""
	.string	"\377"
	.string	""
	.string	""
	.string	"\377"
	.string	""
	.string	""
	.string	"\377"
	.string	""
	.string	""
	.string	"\377"
	.string	""
	.string	""
	.string	"\377"
	.string	""
	.string	""
	.string	"\377"
	.string	""
	.string	""
	.string	"\377"
	.string	""
	.string	""
	.string	"\377"
	.string	""
	.string	""
	.string	"\377"
	.string	""
	.string	""
	.string	"\377"
	.string	""
	.string	""
	.string	"\377"
	.string	""
	.string	""
	.string	"\377"
	.string	""
	.string	""
	.string	"\377"
	.string	""
	.string	""
	.string	"\377"
	.string	""
	.string	""
	.string	"\377"
	.string	""
	.string	""
	.string	"\377"
	.string	""
	.string	""
	.string	"\377"
	.string	""
	.string	""
	.string	"\377"
	.string	""
	.string	""
	.string	"\377"
	.string	""
	.string	""
	.string	"\377"
	.string	""
	.string	""
	.string	"\377"
	.string	""
	.string	""
	.string	"\377"
	.string	""
	.string	""
	.string	"\377"
	.string	""
	.string	""
	.string	"\377"
	.string	""
	.string	""
	.string	"\377"
	.string	""
	.string	""
	.string	"\377"
	.string	""
	.string	""
	.string	"\377"
	.string	""
	.string	""
	.string	"\377"
	.string	""
	.string	""
	.string	"\377"
	.string	""
	.string	""
	.string	"\377"
	.string	""
	.string	""
	.string	"\377"
	.string	""
	.string	""
	.string	"\377"
	.string	""
	.string	""
	.string	"\377"
	.string	""
	.string	""
	.string	"\377"
	.string	""
	.string	""
	.string	"\377"
	.string	""
	.string	""
	.string	"\377"
	.string	""
	.string	""
	.string	"\377"
	.string	""
	.string	""
	.string	"\377"
	.string	""
	.string	""
	.string	"\377"
	.string	""
	.string	""
	.string	"\377"
	.string	""
	.string	""
	.string	"\377"
	.string	""
	.string	""
	.string	"\377"
	.string	""
	.string	""
	.string	"\377"
	.string	""
	.string	""
	.string	"\377"
	.string	""
	.string	""
	.string	"\377"
	.string	""
	.string	""
	.string	"\377"
	.string	""
	.string	""
	.string	"\377"
	.string	""
	.string	""
	.string	"\377"
	.string	""
	.string	""
	.string	"\377"
	.string	""
	.string	""
	.string	"\377"
	.string	""
	.string	""
	.string	"\377"
	.string	""
	.string	""
	.string	"\377"
	.string	""
	.string	""
	.string	"\377"
	.string	""
	.string	""
	.string	"\377"
	.string	""
	.string	""
	.string	"\377"
	.string	""
	.string	""
	.string	"\377"
	.string	""
	.string	""
	.string	"\377"
	.string	""
	.string	""
	.string	"\377"
	.string	""
	.string	""
	.string	"\377"
	.string	""
	.string	""
	.string	"\377"
	.string	""
	.string	""
	.string	"\377"
	.string	""
	.string	""
	.string	"\377"
	.string	""
	.string	""
	.string	"\377"
	.string	""
	.string	""
	.string	"\377"
	.string	""
	.string	""
	.string	"\377"
	.string	""
	.string	""
	.string	"\377"
	.string	""
	.string	""
	.string	"\377"
	.string	""
	.string	""
	.string	"\377"
	.string	""
	.string	""
	.string	"\377"
	.string	""
	.string	""
	.string	"\377"
	.string	""
	.string	""
	.string	"\377"
	.string	""
	.string	""
	.string	"\377"
	.string	""
	.string	""
	.string	"\377"
	.string	""
	.string	""
	.string	"\377"
	.string	""
	.string	""
	.string	"\377"
	.string	""
	.string	""
	.string	"\377"
	.string	""
	.string	""
	.string	"\377"
	.string	""
	.string	""
	.string	"\377"
	.string	""
	.string	""
	.string	"\377"
	.string	""
	.string	""
	.string	"\377"
	.string	""
	.string	""
	.string	"\377"
	.string	""
	.string	""
	.string	"\377"
	.string	""
	.string	""
	.string	"\377"
	.string	""
	.string	""
	.string	"\377"
	.string	""
	.string	""
	.string	"\377"
	.string	""
	.string	""
	.string	"\377"
	.string	""
	.string	""
	.string	"\377\340\260"
	.string	"\377\340\260"
	.string	"\377"
	.string	""
	.string	""
	.string	"\377"
	.string	""
	.string	""
	.string	"\377"
	.string	""
	.string	""
	.string	"\377"
	.string	""
	.string	""
	.string	"\377"
	.string	""
	.string	""
	.string	"\377"
	.string	""
	.string	""
	.string	"\377"
	.string	""
	.string	""
	.string	"\377"
	.string	""
	.string	""
	.string	"\377"
	.string	""
	.string	""
	.string	"\377"
	.string	""
	.string	""
	.string	"\377"
	.string	""
	.string	""
	.string	"\377"
	.string	""
	.string	""
	.string	"\377"
	.string	""
	.string	""
	.string	"\377"
	.string	""
	.string	""
	.string	"\377"
	.string	""
	.string	""
	.string	"\377"
	.string	""
	.string	""
	.string	"\377"
	.string	""
	.string	""
	.string	"\377"
	.string	""
	.string	""
	.string	"\377"
	.string	""
	.string	""
	.string	"\377\340\260"
	.string	"\377\340\260"
	.string	"\377\340\260"
	.string	"\377\340\260"
	.string	"\377\340\260"
	.string	"\377\340\260"
	.string	"\377\340\260"
	.string	"\377"
	.string	""
	.string	""
	.string	"\377"
	.string	""
	.string	""
	.string	"\377"
	.string	""
	.string	""
	.string	"\377"
	.string	""
	.string	""
	.string	"\377"
	.string	""
	.string	""
	.string	"\377\340\260"
	.string	"\377\340\260"
	.string	"\377\340\260"
	.string	"\377\340\260"
	.string	"\377\340\260"
	.string	"\377\340\260"
	.string	"\377\340\260"
	.string	"\377"
	.string	""
	.string	""
	.string	"\377"
	.string	""
	.string	""
	.string	"\377"
	.string	""
	.string	""
	.string	"\377"
	.string	""
	.string	""
	.string	"\377"
	.string	""
	.string	""
	.string	"\377"
	.string	""
	.string	""
	.string	"\377"
	.string	""
	.string	""
	.string	"\377"
	.string	""
	.string	""
	.string	"\377"
	.string	""
	.string	""
	.string	"\377"
	.string	""
	.string	""
	.string	"\377"
	.string	""
	.string	""
	.string	"\377"
	.string	""
	.string	""
	.string	"\377"
	.string	""
	.string	""
	.string	"\377"
	.string	""
	.string	""
	.string	"\377"
	.string	""
	.string	""
	.string	"\377"
	.string	""
	.string	""
	.string	"\377"
	.string	""
	.string	""
	.string	"\377"
	.string	""
	.string	""
	.string	"\377"
	.string	""
	.string	""
	.string	"\377"
	.string	""
	.string	""
	.string	"\377"
	.string	""
	.string	""
	.string	"\377"
	.string	""
	.string	""
	.string	"\377"
	.string	""
	.string	""
	.string	"\377"
	.string	""
	.string	""
	.string	"\377"
	.string	""
	.string	""
	.string	"\377"
	.string	""
	.string	""
	.string	"\377"
	.string	""
	.string	""
	.string	"\377"
	.string	""
	.string	""
	.string	"\377"
	.string	""
	.string	""
	.string	"\377"
	.string	""
	.string	""
	.string	"\377"
	.string	""
	.string	""
	.string	"\377"
	.string	""
	.string	""
	.string	"\377"
	.string	""
	.string	""
	.string	"\377"
	.string	""
	.string	""
	.string	"\377"
	.string	""
	.string	""
	.string	"\377"
	.string	""
	.string	""
	.string	"\377"
	.string	""
	.string	""
	.string	"\377"
	.string	""
	.string	""
	.string	"\377"
	.string	""
	.string	""
	.string	"\377"
	.string	""
	.string	""
	.string	"\377"
	.string	""
	.string	""
	.string	"\377"
	.string	""
	.string	""
	.string	"\377"
	.string	""
	.string	""
	.string	"\377"
	.string	""
	.string	""
	.string	"\377"
	.string	""
	.string	""
	.string	"\377"
	.string	""
	.string	""
	.string	"\377"
	.string	""
	.string	""
	.string	"\377"
	.string	""
	.string	""
	.string	"\377"
	.string	""
	.string	""
	.string	"\377"
	.string	""
	.string	""
	.string	"\377"
	.string	""
	.string	""
	.string	"\377"
	.string	""
	.string	""
	.string	"\377"
	.string	""
	.string	""
	.string	"\377"
	.string	""
	.string	""
	.string	"\377"
	.string	""
	.string	""
	.string	"\377"
	.string	""
	.string	""
	.string	"\377"
	.string	""
	.string	""
	.string	"\377"
	.string	""
	.string	""
	.string	"\377"
	.string	""
	.string	""
	.string	"\377"
	.string	""
	.string	""
	.string	"\377"
	.string	""
	.string	""
	.string	"\377"
	.string	""
	.string	""
	.string	"\377"
	.string	""
	.string	""
	.string	"\377"
	.string	""
	.string	""
	.string	"\377"
	.string	""
	.string	""
	.string	"\377"
	.string	""
	.string	""
	.string	"\377"
	.string	""
	.string	""
	.string	"\377"
	.string	""
	.string	""
	.string	"\377"
	.string	""
	.string	""
	.string	"\377"
	.string	""
	.string	""
	.string	"\377"
	.string	""
	.string	""
	.string	"\377"
	.string	""
	.string	""
	.string	"\377"
	.string	""
	.string	""
	.string	"\377"
	.string	""
	.string	""
	.string	"\377"
	.string	""
	.string	""
	.string	"\377"
	.string	""
	.string	""
	.string	"\377"
	.string	""
	.string	""
	.string	"\377"
	.string	""
	.string	""
	.string	"\377"
	.string	""
	.string	""
	.string	"\377"
	.string	""
	.string	""
	.string	"\377"
	.string	""
	.string	""
	.string	"\377"
	.string	""
	.string	""
	.string	"\377"
	.string	""
	.string	""
	.string	"\377"
	.string	""
	.string	""
	.string	"\377"
	.string	""
	.string	""
	.string	"\377"
	.string	""
	.string	""
	.string	"\377"
	.string	""
	.string	""
	.string	"\377"
	.string	""
	.string	""
	.string	"\377"
	.string	""
	.string	""
	.string	"\377"
	.string	""
	.string	""
	.string	"\377"
	.string	""
	.string	""
	.string	"\377"
	.string	""
	.string	""
	.string	"\377"
	.string	""
	.string	""
	.string	"\377"
	.string	""
	.string	""
	.string	"\377"
	.string	""
	.string	""
	.string	"\377"
	.string	""
	.string	""
	.string	"\377"
	.string	""
	.string	""
	.string	"\377"
	.string	""
	.string	""
	.string	"\377"
	.string	""
	.string	""
	.string	"\377"
	.string	""
	.string	""
	.string	"\377"
	.string	""
	.string	""
	.string	"\377"
	.string	""
	.string	""
	.string	"\377"
	.string	""
	.string	""
	.string	"\377"
	.string	""
	.string	""
	.string	"\377\340\260"
	.string	"\377\340\260"
	.string	"\377\340\260"
	.string	"\377\340\260"
	.string	"\377\340\260"
	.string	"\377\340\260"
	.string	"\377\340\260"
	.string	"\377\340\260"
	.string	"\377\340\260"
	.string	"\377\340\260"
	.string	"\377\340\260"
	.string	"\377\340\260"
	.string	"\377\340\260"
	.string	"\377"
	.string	""
	.string	""
	.string	"\377"
	.string	""
	.string	""
	.string	"\377"
	.string	""
	.string	""
	.string	"\377"
	.string	""
	.string	""
	.string	"\377\340\260"
	.string	"\377\340\260"
	.string	"\377\340\260"
	.string	"\377\340\260"
	.string	"\377\340\260"
	.string	"\377"
	.string	""
	.string	""
	.string	"\377"
	.string	""
	.string	""
	.string	"\377"
	.string	""
	.string	""
	.string	"\377"
	.string	""
	.string	""
	.string	"\377"
	.string	""
	.string	""
	.string	"\377"
	.string	""
	.string	""
	.string	"\377"
	.string	""
	.string	""
	.string	"\377"
	.string	""
	.string	""
	.string	"\377"
	.string	""
	.string	""
	.string	"\377"
	.string	""
	.string	""
	.string	"\377\340\260"
	.string	"\377\340\260"
	.string	"\377\340\260"
	.string	"\377\340\260"
	.string	"\377\340\260"
	.string	"\377\340\260"
	.string	"\377\340\260"
	.string	"\377\340\260"
	.string	"\377\340\260"
	.string	"\377\340\260"
	.string	"\377\340\260"
	.string	"\377\340\260"
	.string	"\377\340\260"
	.string	"\377"
	.string	""
	.string	""
	.string	"\377"
	.string	""
	.string	""
	.string	"\377\340\260"
	.string	"\377\340\260"
	.string	"\377\340\260"
	.string	"\377\340\260"
	.string	"\377\340\260"
	.string	"\377\340\260"
	.string	"\377\340\260"
	.string	"\377\340\260"
	.string	"\377\340\260"
	.string	"\377\340\260"
	.string	"\377\340\260"
	.string	"\377\340\260"
	.string	"\377\340\260"
	.string	"\377\340\260"
	.string	"\377"
	.string	""
	.string	""
	.string	"\377"
	.string	""
	.string	""
	.string	"\377"
	.string	""
	.string	""
	.string	"\377"
	.string	""
	.string	""
	.string	"\377"
	.string	""
	.string	""
	.string	"\377"
	.string	""
	.string	""
	.string	"\377"
	.string	""
	.string	""
	.string	"\377"
	.string	""
	.string	""
	.string	"\377"
	.string	""
	.string	""
	.string	"\377"
	.string	""
	.string	""
	.string	"\377"
	.string	""
	.string	""
	.string	"\377"
	.string	""
	.string	""
	.string	"\377"
	.string	""
	.string	""
	.string	"\377"
	.string	""
	.string	""
	.string	"\377"
	.string	""
	.string	""
	.string	"\377"
	.string	""
	.string	""
	.string	"\377"
	.string	""
	.string	""
	.string	"\377"
	.string	""
	.string	""
	.string	"\377"
	.string	""
	.string	""
	.string	"\377\340\260"
	.string	"\377\340\260"
	.string	"\377\340\260"
	.string	"\377\340\260"
	.string	"\377"
	.string	""
	.string	""
	.string	"\377"
	.string	""
	.string	""
	.string	"\377"
	.string	""
	.string	""
	.string	"\377"
	.string	""
	.string	""
	.string	"\377"
	.string	""
	.string	""
	.string	"\377"
	.string	""
	.string	""
	.string	"\377"
	.string	""
	.string	""
	.string	"\377"
	.string	""
	.string	""
	.string	"\377"
	.string	""
	.string	""
	.string	"\377"
	.string	""
	.string	""
	.string	"\377"
	.string	""
	.string	""
	.string	"\377"
	.string	""
	.string	""
	.string	"\377"
	.string	""
	.string	""
	.string	"\377"
	.string	""
	.string	""
	.string	"\377"
	.string	""
	.string	""
	.string	"\377"
	.string	""
	.string	""
	.string	"\377"
	.string	""
	.string	""
	.string	"\377"
	.string	""
	.string	""
	.string	"\377"
	.string	""
	.string	""
	.ascii	"\377"
	.string	""
	.string	""
	.string	""
	.string	"\377"
	.string	""
	.string	""
	.string	"\377"
	.string	""
	.string	""
	.string	"\377"
	.string	""
	.string	""
	.string	"\377"
	.string	""
	.string	""
	.string	"\377"
	.string	""
	.string	""
	.string	"\377"
	.string	""
	.string	""
	.string	"\377"
	.string	""
	.string	""
	.string	"\377"
	.string	""
	.string	""
	.string	"\377"
	.string	""
	.string	""
	.string	"\377"
	.string	""
	.string	""
	.string	"\377"
	.string	""
	.string	""
	.string	"\377"
	.string	""
	.string	""
	.string	"\377"
	.string	""
	.string	""
	.string	"\377"
	.string	""
	.string	""
	.string	"\377"
	.string	""
	.string	""
	.string	"\377"
	.string	""
	.string	""
	.string	"\377"
	.string	""
	.string	""
	.string	"\377"
	.string	""
	.string	""
	.string	"\377"
	.string	""
	.string	""
	.string	"\377"
	.string	""
	.string	""
	.string	"\377"
	.string	""
	.string	""
	.string	"\377"
	.string	""
	.string	""
	.string	"\377"
	.string	""
	.string	""
	.string	"\377"
	.string	""
	.string	""
	.string	"\377"
	.string	""
	.string	""
	.string	"\377"
	.string	""
	.string	""
	.string	"\377"
	.string	""
	.string	""
	.string	"\377"
	.string	""
	.string	""
	.string	"\377"
	.string	""
	.string	""
	.string	"\377"
	.string	""
	.string	""
	.string	"\377"
	.string	""
	.string	""
	.string	"\377"
	.string	""
	.string	""
	.string	"\377"
	.string	""
	.string	""
	.string	"\377"
	.string	""
	.string	""
	.string	"\377"
	.string	""
	.string	""
	.string	"\377"
	.string	""
	.string	""
	.string	"\377"
	.string	""
	.string	""
	.string	"\377"
	.string	""
	.string	""
	.string	"\377"
	.string	""
	.string	""
	.string	"\377"
	.string	""
	.string	""
	.string	"\377"
	.string	""
	.string	""
	.string	"\377"
	.string	""
	.string	""
	.string	"\377"
	.string	""
	.string	""
	.string	"\377"
	.string	""
	.string	""
	.string	"\377"
	.string	""
	.string	""
	.string	"\377"
	.string	""
	.string	""
	.string	"\377"
	.string	""
	.string	""
	.string	"\377"
	.string	""
	.string	""
	.string	"\377"
	.string	""
	.string	""
	.string	"\377"
	.string	""
	.string	""
	.string	"\377"
	.string	""
	.string	""
	.string	"\377"
	.string	""
	.string	""
	.string	"\377"
	.string	""
	.string	""
	.string	"\377"
	.string	""
	.string	""
	.string	"\377"
	.string	""
	.string	""
	.string	"\377"
	.string	""
	.string	""
	.string	"\377"
	.string	""
	.string	""
	.string	"\377"
	.string	""
	.string	""
	.string	"\377"
	.string	""
	.string	""
	.string	"\377"
	.string	""
	.string	""
	.string	"\377"
	.string	""
	.string	""
	.string	"\377"
	.string	""
	.string	""
	.string	"\377"
	.string	""
	.string	""
	.string	"\377"
	.string	""
	.string	""
	.string	"\377"
	.string	""
	.string	""
	.string	"\377"
	.string	""
	.string	""
	.string	"\377"
	.string	""
	.string	""
	.string	"\377"
	.string	""
	.string	""
	.string	"\377"
	.string	""
	.string	""
	.string	"\377"
	.string	""
	.string	""
	.string	"\377"
	.string	""
	.string	""
	.string	"\377\340\260"
	.string	"\377\340\260"
	.string	"\377\340\260"
	.string	"\377"
	.string	""
	.string	""
	.string	"\377"
	.string	""
	.string	""
	.string	"\377"
	.string	""
	.string	""
	.string	"\377"
	.string	""
	.string	""
	.string	"\377"
	.string	""
	.string	""
	.string	"\377"
	.string	""
	.string	""
	.string	"\377"
	.string	""
	.string	""
	.string	"\377"
	.string	""
	.string	""
	.string	"\377"
	.string	""
	.string	""
	.string	"\377"
	.string	""
	.string	""
	.string	"\377"
	.string	""
	.string	""
	.string	"\377"
	.string	""
	.string	""
	.string	"\377"
	.string	""
	.string	""
	.string	"\377"
	.string	""
	.string	""
	.string	"\377"
	.string	""
	.string	""
	.string	"\377"
	.string	""
	.string	""
	.string	"\377"
	.string	""
	.string	""
	.string	"\377"
	.string	""
	.string	""
	.string	"\377"
	.string	""
	.string	""
	.string	"\377\340\260"
	.string	"\377\340\260"
	.string	"\377\340\260"
	.string	"\377\340\260"
	.string	"\377\340\260"
	.string	"\377\340\260"
	.string	"\377\340\260"
	.string	"\377"
	.string	""
	.string	""
	.string	"\377"
	.string	""
	.string	""
	.string	"\377"
	.string	""
	.string	""
	.string	"\377"
	.string	""
	.string	""
	.string	"\377"
	.string	""
	.string	""
	.string	"\377\340\260"
	.string	"\377\340\260"
	.string	"\377\340\260"
	.string	"\377\340\260"
	.string	"\377\340\260"
	.string	"\377\340\260"
	.string	"\377\340\260"
	.string	"\377"
	.string	""
	.string	""
	.string	"\377"
	.string	""
	.string	""
	.string	"\377"
	.string	""
	.string	""
	.string	"\377"
	.string	""
	.string	""
	.string	"\377"
	.string	""
	.string	""
	.string	"\377"
	.string	""
	.string	""
	.string	"\377"
	.string	""
	.string	""
	.string	"\377"
	.string	""
	.string	""
	.string	"\377"
	.string	""
	.string	""
	.string	"\377"
	.string	""
	.string	""
	.string	"\377"
	.string	""
	.string	""
	.string	"\377"
	.string	""
	.string	""
	.string	"\377"
	.string	""
	.string	""
	.string	"\377"
	.string	""
	.string	""
	.string	"\377"
	.string	""
	.string	""
	.string	"\377"
	.string	""
	.string	""
	.string	"\377"
	.string	""
	.string	""
	.string	"\377"
	.string	""
	.string	""
	.string	"\377"
	.string	""
	.string	""
	.string	"\377"
	.string	""
	.string	""
	.string	"\377"
	.string	""
	.string	""
	.string	"\377"
	.string	""
	.string	""
	.string	"\377"
	.string	""
	.string	""
	.string	"\377"
	.string	""
	.string	""
	.string	"\377"
	.string	""
	.string	""
	.string	"\377"
	.string	""
	.string	""
	.string	"\377"
	.string	""
	.string	""
	.string	"\377"
	.string	""
	.string	""
	.string	"\377"
	.string	""
	.string	""
	.string	"\377"
	.string	""
	.string	""
	.string	"\377"
	.string	""
	.string	""
	.string	"\377"
	.string	""
	.string	""
	.string	"\377"
	.string	""
	.string	""
	.string	"\377"
	.string	""
	.string	""
	.string	"\377"
	.string	""
	.string	""
	.string	"\377"
	.string	""
	.string	""
	.string	"\377"
	.string	""
	.string	""
	.string	"\377"
	.string	""
	.string	""
	.string	"\377"
	.string	""
	.string	""
	.string	"\377"
	.string	""
	.string	""
	.string	"\377"
	.string	""
	.string	""
	.string	"\377"
	.string	""
	.string	""
	.string	"\377"
	.string	""
	.string	""
	.string	"\377"
	.string	""
	.string	""
	.string	"\377"
	.string	""
	.string	""
	.string	"\377"
	.string	""
	.string	""
	.string	"\377"
	.string	""
	.string	""
	.string	"\377"
	.string	""
	.string	""
	.string	"\377"
	.string	""
	.string	""
	.string	"\377"
	.string	""
	.string	""
	.string	"\377"
	.string	""
	.string	""
	.string	"\377"
	.string	""
	.string	""
	.string	"\377"
	.string	""
	.string	""
	.string	"\377"
	.string	""
	.string	""
	.string	"\377"
	.string	""
	.string	""
	.string	"\377"
	.string	""
	.string	""
	.string	"\377"
	.string	""
	.string	""
	.string	"\377"
	.string	""
	.string	""
	.string	"\377"
	.string	""
	.string	""
	.string	"\377"
	.string	""
	.string	""
	.string	"\377"
	.string	""
	.string	""
	.string	"\377"
	.string	""
	.string	""
	.string	"\377"
	.string	""
	.string	""
	.string	"\377"
	.string	""
	.string	""
	.string	"\377"
	.string	""
	.string	""
	.string	"\377"
	.string	""
	.string	""
	.string	"\377"
	.string	""
	.string	""
	.string	"\377"
	.string	""
	.string	""
	.string	"\377"
	.string	""
	.string	""
	.string	"\377"
	.string	""
	.string	""
	.string	"\377"
	.string	""
	.string	""
	.string	"\377"
	.string	""
	.string	""
	.string	"\377"
	.string	""
	.string	""
	.string	"\377"
	.string	""
	.string	""
	.string	"\377"
	.string	""
	.string	""
	.string	"\377"
	.string	""
	.string	""
	.string	"\377"
	.string	""
	.string	""
	.string	"\377"
	.string	""
	.string	""
	.string	"\377"
	.string	""
	.string	""
	.string	"\377"
	.string	""
	.string	""
	.string	"\377"
	.string	""
	.string	""
	.string	"\377"
	.string	""
	.string	""
	.string	"\377"
	.string	""
	.string	""
	.string	"\377"
	.string	""
	.string	""
	.string	"\377"
	.string	""
	.string	""
	.string	"\377"
	.string	""
	.string	""
	.string	"\377"
	.string	""
	.string	""
	.string	"\377"
	.string	""
	.string	""
	.string	"\377"
	.string	""
	.string	""
	.string	"\377"
	.string	""
	.string	""
	.string	"\377"
	.string	""
	.string	""
	.string	"\377"
	.string	""
	.string	""
	.string	"\377"
	.string	""
	.string	""
	.string	"\377"
	.string	""
	.string	""
	.string	"\377"
	.string	""
	.string	""
	.string	"\377"
	.string	""
	.string	""
	.string	"\377"
	.string	""
	.string	""
	.string	"\377"
	.string	""
	.string	""
	.string	"\377"
	.string	""
	.string	""
	.string	"\377"
	.string	""
	.string	""
	.string	"\377"
	.string	""
	.string	""
	.string	"\377"
	.string	""
	.string	""
	.string	"\377"
	.string	""
	.string	""
	.string	"\377"
	.string	""
	.string	""
	.string	"\377\340\260"
	.string	"\377\340\260"
	.string	"\377\340\260"
	.string	"\377\340\260"
	.string	"\377\340\260"
	.string	"\377\340\260"
	.string	"\377\340\260"
	.string	"\377\340\260"
	.string	"\377\340\260"
	.string	"\377\340\260"
	.string	"\377\340\260"
	.string	"\377\340\260"
	.string	"\377\340\260"
	.string	"\377"
	.string	""
	.string	""
	.string	"\377"
	.string	""
	.string	""
	.string	"\377"
	.string	""
	.string	""
	.string	"\377\340\260"
	.string	"\377\340\260"
	.string	"\377\340\260"
	.string	"\377\340\260"
	.string	"\377\340\260"
	.string	"\377\340\260"
	.string	"\377"
	.string	""
	.string	""
	.string	"\377"
	.string	""
	.string	""
	.string	"\377"
	.string	""
	.string	""
	.string	"\377"
	.string	""
	.string	""
	.string	"\377"
	.string	""
	.string	""
	.string	"\377"
	.string	""
	.string	""
	.string	"\377"
	.string	""
	.string	""
	.string	"\377"
	.string	""
	.string	""
	.string	"\377"
	.string	""
	.string	""
	.string	"\377\340\260"
	.string	"\377\340\260"
	.string	"\377\340\260"
	.string	"\377\340\260"
	.string	"\377\340\260"
	.string	"\377\340\260"
	.string	"\377\340\260"
	.string	"\377\340\260"
	.string	"\377\340\260"
	.string	"\377\340\260"
	.string	"\377\340\260"
	.string	"\377\340\260"
	.string	"\377\340\260"
	.string	"\377\340\260"
	.string	"\377"
	.string	""
	.string	""
	.string	"\377"
	.string	""
	.string	""
	.string	"\377\340\260"
	.string	"\377\340\260"
	.string	"\377\340\260"
	.string	"\377\340\260"
	.string	"\377\340\260"
	.string	"\377\340\260"
	.string	"\377\340\260"
	.string	"\377\340\260"
	.string	"\377\340\260"
	.string	"\377\340\260"
	.string	"\377\340\260"
	.string	"\377\340\260"
	.string	"\377\340\260"
	.string	"\377\340\260"
	.string	"\377"
	.string	""
	.string	""
	.string	"\377"
	.string	""
	.string	""
	.string	"\377"
	.string	""
	.string	""
	.string	"\377"
	.string	""
	.string	""
	.string	"\377"
	.string	""
	.string	""
	.string	"\377"
	.string	""
	.string	""
	.string	"\377"
	.string	""
	.string	""
	.string	"\377"
	.string	""
	.string	""
	.string	"\377"
	.string	""
	.string	""
	.string	"\377"
	.string	""
	.string	""
	.string	"\377"
	.string	""
	.string	""
	.string	"\377"
	.string	""
	.string	""
	.string	"\377"
	.string	""
	.string	""
	.string	"\377"
	.string	""
	.string	""
	.string	"\377"
	.string	""
	.string	""
	.string	"\377"
	.string	""
	.string	""
	.string	"\377"
	.string	""
	.string	""
	.string	"\377"
	.string	""
	.string	""
	.string	"\377"
	.string	""
	.string	""
	.string	"\377\340\260"
	.string	"\377\340\260"
	.string	"\377\340\260"
	.string	"\377\340\260"
	.string	"\377"
	.string	""
	.string	""
	.string	"\377"
	.string	""
	.string	""
	.string	"\377"
	.string	""
	.string	""
	.string	"\377"
	.string	""
	.string	""
	.string	"\377"
	.string	""
	.string	""
	.string	"\377"
	.string	""
	.string	""
	.string	"\377"
	.string	""
	.string	""
	.string	"\377"
	.string	""
	.string	""
	.string	"\377"
	.string	""
	.string	""
	.string	"\377"
	.string	""
	.string	""
	.string	"\377"
	.string	""
	.string	""
	.string	"\377"
	.string	""
	.string	""
	.string	"\377"
	.string	""
	.string	""
	.string	"\377"
	.string	""
	.string	""
	.string	"\377"
	.string	""
	.string	""
	.string	"\377"
	.string	""
	.string	""
	.string	"\377"
	.string	""
	.string	""
	.string	"\377"
	.string	""
	.string	""
	.string	"\377"
	.string	""
	.string	""
	.string	"\377"
	.string	""
	.string	""
	.string	"\377"
	.string	""
	.string	""
	.string	"\377"
	.string	""
	.string	""
	.string	"\377"
	.string	""
	.string	""
	.string	"\377"
	.string	""
	.string	""
	.string	"\377"
	.string	""
	.string	""
	.string	"\377"
	.string	""
	.string	""
	.string	"\377"
	.string	""
	.string	""
	.string	"\377"
	.string	""
	.string	""
	.string	"\377"
	.string	""
	.string	""
	.string	"\377"
	.string	""
	.string	""
	.string	"\377"
	.string	""
	.string	""
	.string	"\377"
	.string	""
	.string	""
	.string	"\377"
	.string	""
	.string	""
	.string	"\377"
	.string	""
	.string	""
	.string	"\377"
	.string	""
	.string	""
	.string	"\377"
	.string	""
	.string	""
	.string	"\377"
	.string	""
	.string	""
	.string	"\377"
	.string	""
	.string	""
	.string	"\377"
	.string	""
	.string	""
	.string	"\377"
	.string	""
	.string	""
	.string	"\377"
	.string	""
	.string	""
	.string	"\377"
	.string	""
	.string	""
	.string	"\377"
	.string	""
	.string	""
	.string	"\377"
	.string	""
	.string	""
	.string	"\377"
	.string	""
	.string	""
	.string	"\377"
	.string	""
	.string	""
	.string	"\377"
	.string	""
	.string	""
	.string	"\377"
	.string	""
	.string	""
	.string	"\377"
	.string	""
	.string	""
	.string	"\377"
	.string	""
	.string	""
	.string	"\377"
	.string	""
	.string	""
	.string	"\377"
	.string	""
	.string	""
	.string	"\377"
	.string	""
	.string	""
	.string	"\377"
	.string	""
	.string	""
	.string	"\377"
	.string	""
	.string	""
	.string	"\377"
	.string	""
	.string	""
	.string	"\377"
	.string	""
	.string	""
	.string	"\377"
	.string	""
	.string	""
	.string	"\377"
	.string	""
	.string	""
	.string	"\377"
	.string	""
	.string	""
	.string	"\377"
	.string	""
	.string	""
	.string	"\377"
	.string	""
	.string	""
	.string	"\377"
	.string	""
	.string	""
	.string	"\377"
	.string	""
	.string	""
	.string	"\377"
	.string	""
	.string	""
	.string	"\377"
	.string	""
	.string	""
	.string	"\377"
	.string	""
	.string	""
	.string	"\377"
	.string	""
	.string	""
	.string	"\377"
	.string	""
	.string	""
	.string	"\377"
	.string	""
	.string	""
	.string	"\377"
	.string	""
	.string	""
	.string	"\377"
	.string	""
	.string	""
	.string	"\377"
	.string	""
	.string	""
	.string	"\377"
	.string	""
	.string	""
	.string	"\377"
	.string	""
	.string	""
	.string	"\377"
	.string	""
	.string	""
	.string	"\377"
	.string	""
	.string	""
	.string	"\377"
	.string	""
	.string	""
	.string	"\377"
	.string	""
	.string	""
	.string	"\377"
	.string	""
	.string	""
	.string	"\377"
	.string	""
	.string	""
	.string	"\377"
	.string	""
	.string	""
	.string	"\377"
	.string	""
	.string	""
	.string	"\377"
	.string	""
	.string	""
	.string	"\377"
	.string	""
	.string	""
	.string	"\377"
	.string	""
	.string	""
	.string	"\377"
	.string	""
	.string	""
	.string	"\377"
	.string	""
	.string	""
	.string	"\377"
	.string	""
	.string	""
	.string	"\377"
	.string	""
	.string	""
	.string	"\377"
	.string	""
	.string	""
	.string	"\377\340\260"
	.string	"\377\340\260"
	.string	"\377"
	.string	""
	.string	""
	.string	"\377"
	.string	""
	.string	""
	.string	"\377"
	.string	""
	.string	""
	.string	"\377"
	.string	""
	.string	""
	.string	"\377"
	.string	""
	.string	""
	.string	"\377"
	.string	""
	.string	""
	.string	"\377"
	.string	""
	.string	""
	.string	"\377"
	.string	""
	.string	""
	.string	"\377"
	.string	""
	.string	""
	.string	"\377"
	.string	""
	.string	""
	.string	"\377"
	.string	""
	.string	""
	.string	"\377"
	.string	""
	.string	""
	.string	"\377"
	.string	""
	.string	""
	.string	"\377"
	.string	""
	.string	""
	.string	"\377"
	.string	""
	.string	""
	.string	"\377"
	.string	""
	.string	""
	.string	"\377"
	.string	""
	.string	""
	.string	"\377"
	.string	""
	.string	""
	.string	"\377"
	.string	""
	.string	""
	.string	"\377\340\260"
	.string	"\377\340\260"
	.string	"\377\340\260"
	.string	"\377\340\260"
	.string	"\377\340\260"
	.string	"\377"
	.string	""
	.string	""
	.string	"\377"
	.string	""
	.string	""
	.string	"\377"
	.string	""
	.string	""
	.string	"\377"
	.string	""
	.string	""
	.string	"\377"
	.string	""
	.string	""
	.string	"\377"
	.string	""
	.string	""
	.string	"\377"
	.string	""
	.string	""
	.string	"\377"
	.string	""
	.string	""
	.string	"\377"
	.string	""
	.string	""
	.string	"\377"
	.string	""
	.string	""
	.string	"\377"
	.string	""
	.string	""
	.string	"\377\340\260"
	.string	"\377\340\260"
	.string	"\377\340\260"
	.string	"\377\340\260"
	.string	"\377\340\260"
	.string	"\377"
	.string	""
	.string	""
	.string	"\377"
	.string	""
	.string	""
	.string	"\377"
	.string	""
	.string	""
	.string	"\377"
	.string	""
	.string	""
	.string	"\377"
	.string	""
	.string	""
	.string	"\377"
	.string	""
	.string	""
	.string	"\377"
	.string	""
	.string	""
	.string	"\377"
	.string	""
	.string	""
	.string	"\377"
	.string	""
	.string	""
	.string	"\377"
	.string	""
	.string	""
	.string	"\377"
	.string	""
	.string	""
	.string	"\377"
	.string	""
	.string	""
	.string	"\377"
	.string	""
	.string	""
	.string	"\377"
	.string	""
	.string	""
	.string	"\377"
	.string	""
	.string	""
	.string	"\377"
	.string	""
	.string	""
	.string	"\377"
	.string	""
	.string	""
	.string	"\377"
	.string	""
	.string	""
	.string	"\377"
	.string	""
	.string	""
	.string	"\377"
	.string	""
	.string	""
	.string	"\377"
	.string	""
	.string	""
	.string	"\377"
	.string	""
	.string	""
	.string	"\377"
	.string	""
	.string	""
	.string	"\377"
	.string	""
	.string	""
	.string	"\377"
	.string	""
	.string	""
	.string	"\377"
	.string	""
	.string	""
	.string	"\377"
	.string	""
	.string	""
	.string	"\377"
	.string	""
	.string	""
	.string	"\377"
	.string	""
	.string	""
	.string	"\377"
	.string	""
	.string	""
	.string	"\377"
	.string	""
	.string	""
	.string	"\377"
	.string	""
	.string	""
	.string	"\377"
	.string	""
	.string	""
	.string	"\377"
	.string	""
	.string	""
	.string	"\377"
	.string	""
	.string	""
	.string	"\377"
	.string	""
	.string	""
	.string	"\377"
	.string	""
	.string	""
	.string	"\377"
	.string	""
	.string	""
	.string	"\377"
	.string	""
	.string	""
	.string	"\377"
	.string	""
	.string	""
	.string	"\377"
	.string	""
	.string	""
	.string	"\377"
	.string	""
	.string	""
	.string	"\377"
	.string	""
	.string	""
	.string	"\377"
	.string	""
	.string	""
	.string	"\377"
	.string	""
	.string	""
	.string	"\377"
	.string	""
	.string	""
	.string	"\377"
	.string	""
	.string	""
	.string	"\377"
	.string	""
	.string	""
	.string	"\377"
	.string	""
	.string	""
	.string	"\377"
	.string	""
	.string	""
	.string	"\377"
	.string	""
	.string	""
	.string	"\377"
	.string	""
	.string	""
	.string	"\377"
	.string	""
	.string	""
	.string	"\377"
	.string	""
	.string	""
	.string	"\377"
	.string	""
	.string	""
	.string	"\377"
	.string	""
	.string	""
	.string	"\377"
	.string	""
	.string	""
	.string	"\377"
	.string	""
	.string	""
	.string	"\377"
	.string	""
	.string	""
	.string	"\377"
	.string	""
	.string	""
	.string	"\377"
	.string	""
	.string	""
	.string	"\377"
	.string	""
	.string	""
	.string	"\377"
	.string	""
	.string	""
	.string	"\377"
	.string	""
	.string	""
	.string	"\377"
	.string	""
	.string	""
	.string	"\377"
	.string	""
	.string	""
	.ascii	"\377"
	.string	""
	.string	""
	.string	""
	.string	"\377"
	.string	""
	.string	""
	.string	"\377"
	.string	""
	.string	""
	.string	"\377"
	.string	""
	.string	""
	.string	"\377"
	.string	""
	.string	""
	.string	"\377"
	.string	""
	.string	""
	.string	"\377"
	.string	""
	.string	""
	.string	"\377"
	.string	""
	.string	""
	.string	"\377"
	.string	""
	.string	""
	.string	"\377"
	.string	""
	.string	""
	.string	"\377"
	.string	""
	.string	""
	.string	"\377"
	.string	""
	.string	""
	.string	"\377"
	.string	""
	.string	""
	.string	"\377"
	.string	""
	.string	""
	.string	"\377"
	.string	""
	.string	""
	.string	"\377"
	.string	""
	.string	""
	.string	"\377"
	.string	""
	.string	""
	.string	"\377"
	.string	""
	.string	""
	.string	"\377"
	.string	""
	.string	""
	.string	"\377"
	.string	""
	.string	""
	.string	"\377"
	.string	""
	.string	""
	.string	"\377"
	.string	""
	.string	""
	.string	"\377"
	.string	""
	.string	""
	.string	"\377"
	.string	""
	.string	""
	.string	"\377"
	.string	""
	.string	""
	.string	"\377"
	.string	""
	.string	""
	.string	"\377"
	.string	""
	.string	""
	.string	"\377"
	.string	""
	.string	""
	.string	"\377"
	.string	""
	.string	""
	.string	"\377"
	.string	""
	.string	""
	.string	"\377"
	.string	""
	.string	""
	.string	"\377"
	.string	""
	.string	""
	.string	"\377"
	.string	""
	.string	""
	.string	"\377"
	.string	""
	.string	""
	.string	"\377"
	.string	""
	.string	""
	.string	"\377"
	.string	""
	.string	""
	.string	"\377\340\260"
	.string	"\377\340\260"
	.string	"\377\340\260"
	.string	"\377\340\260"
	.string	"\377\340\260"
	.string	"\377"
	.string	""
	.string	""
	.string	"\377"
	.string	""
	.string	""
	.string	"\377"
	.string	""
	.string	""
	.string	"\377"
	.string	""
	.string	""
	.string	"\377\340\260"
	.string	"\377\340\260"
	.string	"\377\340\260"
	.string	"\377\340\260"
	.string	"\377\340\260"
	.string	"\377\340\260"
	.string	"\377"
	.string	""
	.string	""
	.string	"\377"
	.string	""
	.string	""
	.string	"\377\340\260"
	.string	"\377\340\260"
	.string	"\377\340\260"
	.string	"\377\340\260"
	.string	"\377\340\260"
	.string	"\377\340\260"
	.string	"\377"
	.string	""
	.string	""
	.string	"\377"
	.string	""
	.string	""
	.string	"\377"
	.string	""
	.string	""
	.string	"\377"
	.string	""
	.string	""
	.string	"\377"
	.string	""
	.string	""
	.string	"\377"
	.string	""
	.string	""
	.string	"\377"
	.string	""
	.string	""
	.string	"\377"
	.string	""
	.string	""
	.string	"\377"
	.string	""
	.string	""
	.string	"\377\340\260"
	.string	"\377\340\260"
	.string	"\377\340\260"
	.string	"\377\340\260"
	.string	"\377"
	.string	""
	.string	""
	.string	"\377"
	.string	""
	.string	""
	.string	"\377"
	.string	""
	.string	""
	.string	"\377"
	.string	""
	.string	""
	.string	"\377"
	.string	""
	.string	""
	.string	"\377"
	.string	""
	.string	""
	.string	"\377"
	.string	""
	.string	""
	.string	"\377\340\260"
	.string	"\377\340\260"
	.string	"\377\340\260"
	.string	"\377\340\260"
	.string	"\377"
	.string	""
	.string	""
	.string	"\377"
	.string	""
	.string	""
	.string	"\377"
	.string	""
	.string	""
	.string	"\377"
	.string	""
	.string	""
	.string	"\377"
	.string	""
	.string	""
	.string	"\377"
	.string	""
	.string	""
	.string	"\377"
	.string	""
	.string	""
	.string	"\377"
	.string	""
	.string	""
	.string	"\377"
	.string	""
	.string	""
	.string	"\377"
	.string	""
	.string	""
	.string	"\377"
	.string	""
	.string	""
	.string	"\377\340\260"
	.string	"\377\340\260"
	.string	"\377\340\260"
	.string	"\377\340\260"
	.string	"\377\340\260"
	.string	"\377"
	.string	""
	.string	""
	.string	"\377"
	.string	""
	.string	""
	.string	"\377"
	.string	""
	.string	""
	.string	"\377"
	.string	""
	.string	""
	.string	"\377"
	.string	""
	.string	""
	.string	"\377"
	.string	""
	.string	""
	.string	"\377"
	.string	""
	.string	""
	.string	"\377"
	.string	""
	.string	""
	.string	"\377"
	.string	""
	.string	""
	.string	"\377"
	.string	""
	.string	""
	.string	"\377"
	.string	""
	.string	""
	.string	"\377"
	.string	""
	.string	""
	.string	"\377"
	.string	""
	.string	""
	.string	"\377"
	.string	""
	.string	""
	.string	"\377"
	.string	""
	.string	""
	.string	"\377"
	.string	""
	.string	""
	.string	"\377"
	.string	""
	.string	""
	.string	"\377"
	.string	""
	.string	""
	.string	"\377\340\260"
	.string	"\377\340\260"
	.string	"\377\340\260"
	.string	"\377\340\260"
	.string	"\377"
	.string	""
	.string	""
	.string	"\377"
	.string	""
	.string	""
	.string	"\377"
	.string	""
	.string	""
	.string	"\377"
	.string	""
	.string	""
	.string	"\377"
	.string	""
	.string	""
	.string	"\377"
	.string	""
	.string	""
	.string	"\377"
	.string	""
	.string	""
	.string	"\377"
	.string	""
	.string	""
	.string	"\377"
	.string	""
	.string	""
	.string	"\377"
	.string	""
	.string	""
	.string	"\377"
	.string	""
	.string	""
	.string	"\377"
	.string	""
	.string	""
	.string	"\377"
	.string	""
	.string	""
	.string	"\377"
	.string	""
	.string	""
	.string	"\377"
	.string	""
	.string	""
	.string	"\377"
	.string	""
	.string	""
	.string	"\377"
	.string	""
	.string	""
	.string	"\377"
	.string	""
	.string	""
	.string	"\377"
	.string	""
	.string	""
	.string	"\377"
	.string	""
	.string	""
	.string	"\377"
	.string	""
	.string	""
	.string	"\377"
	.string	""
	.string	""
	.string	"\377"
	.string	""
	.string	""
	.string	"\377"
	.string	""
	.string	""
	.string	"\377"
	.string	""
	.string	""
	.string	"\377"
	.string	""
	.string	""
	.string	"\377"
	.string	""
	.string	""
	.string	"\377"
	.string	""
	.string	""
	.string	"\377"
	.string	""
	.string	""
	.string	"\377"
	.string	""
	.string	""
	.string	"\377"
	.string	""
	.string	""
	.string	"\377"
	.string	""
	.string	""
	.string	"\377"
	.string	""
	.string	""
	.string	"\377"
	.string	""
	.string	""
	.string	"\377"
	.string	""
	.string	""
	.string	"\377"
	.string	""
	.string	""
	.string	"\377"
	.string	""
	.string	""
	.string	"\377"
	.string	""
	.string	""
	.string	"\377"
	.string	""
	.string	""
	.string	"\377"
	.string	""
	.string	""
	.string	"\377"
	.string	""
	.string	""
	.string	"\377"
	.string	""
	.string	""
	.string	"\377"
	.string	""
	.string	""
	.string	"\377"
	.string	""
	.string	""
	.string	"\377"
	.string	""
	.string	""
	.string	"\377"
	.string	""
	.string	""
	.string	"\377"
	.string	""
	.string	""
	.string	"\377"
	.string	""
	.string	""
	.string	"\377"
	.string	""
	.string	""
	.string	"\377"
	.string	""
	.string	""
	.string	"\377"
	.string	""
	.string	""
	.string	"\377"
	.string	""
	.string	""
	.string	"\377"
	.string	""
	.string	""
	.string	"\377"
	.string	""
	.string	""
	.string	"\377"
	.string	""
	.string	""
	.string	"\377"
	.string	""
	.string	""
	.string	"\377"
	.string	""
	.string	""
	.string	"\377"
	.string	""
	.string	""
	.string	"\377"
	.string	""
	.string	""
	.string	"\377"
	.string	""
	.string	""
	.string	"\377"
	.string	""
	.string	""
	.string	"\377"
	.string	""
	.string	""
	.string	"\377"
	.string	""
	.string	""
	.string	"\377"
	.string	""
	.string	""
	.string	"\377"
	.string	""
	.string	""
	.string	"\377"
	.string	""
	.string	""
	.string	"\377"
	.string	""
	.string	""
	.string	"\377"
	.string	""
	.string	""
	.string	"\377"
	.string	""
	.string	""
	.string	"\377"
	.string	""
	.string	""
	.string	"\377"
	.string	""
	.string	""
	.string	"\377"
	.string	""
	.string	""
	.string	"\377"
	.string	""
	.string	""
	.string	"\377"
	.string	""
	.string	""
	.string	"\377"
	.string	""
	.string	""
	.string	"\377"
	.string	""
	.string	""
	.string	"\377"
	.string	""
	.string	""
	.string	"\377"
	.string	""
	.string	""
	.string	"\377"
	.string	""
	.string	""
	.string	"\377"
	.string	""
	.string	""
	.string	"\377"
	.string	""
	.string	""
	.string	"\377"
	.string	""
	.string	""
	.string	"\377"
	.string	""
	.string	""
	.string	"\377"
	.string	""
	.string	""
	.string	"\377"
	.string	""
	.string	""
	.string	"\377"
	.string	""
	.string	""
	.string	"\377"
	.string	""
	.string	""
	.string	"\377"
	.string	""
	.string	""
	.string	"\377"
	.string	""
	.string	""
	.string	"\377"
	.string	""
	.string	""
	.string	"\377"
	.string	""
	.string	""
	.string	"\377"
	.string	""
	.string	""
	.string	"\377"
	.string	""
	.string	""
	.string	"\377"
	.string	""
	.string	""
	.string	"\377"
	.string	""
	.string	""
	.string	"\377"
	.string	""
	.string	""
	.string	"\377"
	.string	""
	.string	""
	.string	"\377"
	.string	""
	.string	""
	.string	"\377"
	.string	""
	.string	""
	.string	"\377"
	.string	""
	.string	""
	.string	"\377"
	.string	""
	.string	""
	.string	"\377"
	.string	""
	.string	""
	.string	"\377"
	.string	""
	.string	""
	.string	"\377"
	.string	""
	.string	""
	.string	"\377"
	.string	""
	.string	""
	.string	"\377"
	.string	""
	.string	""
	.string	"\377"
	.string	""
	.string	""
	.string	"\377"
	.string	""
	.string	""
	.string	"\377"
	.string	""
	.string	""
	.string	"\377"
	.string	""
	.string	""
	.string	"\377"
	.string	""
	.string	""
	.string	"\377"
	.string	""
	.string	""
	.string	"\377\340\260"
	.string	"\377\340\260"
	.string	"\377\340\260"
	.string	"\377\340\260"
	.string	"\377"
	.string	""
	.string	""
	.string	"\377"
	.string	""
	.string	""
	.string	"\377"
	.string	""
	.string	""
	.string	"\377"
	.string	""
	.string	""
	.string	"\377"
	.string	""
	.string	""
	.string	"\377"
	.string	""
	.string	""
	.string	"\377"
	.string	""
	.string	""
	.string	"\377"
	.string	""
	.string	""
	.string	"\377"
	.string	""
	.string	""
	.string	"\377"
	.string	""
	.string	""
	.string	"\377"
	.string	""
	.string	""
	.string	"\377"
	.string	""
	.string	""
	.string	"\377"
	.string	""
	.string	""
	.string	"\377\340\260"
	.string	"\377\340\260"
	.string	"\377\340\260"
	.string	"\377\340\260"
	.string	"\377"
	.string	""
	.string	""
	.string	"\377"
	.string	""
	.string	""
	.string	"\377"
	.string	""
	.string	""
	.string	"\377"
	.string	""
	.string	""
	.string	"\377"
	.string	""
	.string	""
	.string	"\377"
	.string	""
	.string	""
	.string	"\377"
	.string	""
	.string	""
	.string	"\377"
	.string	""
	.string	""
	.string	"\377"
	.string	""
	.string	""
	.string	"\377"
	.string	""
	.string	""
	.string	"\377"
	.string	""
	.string	""
	.string	"\377"
	.string	""
	.string	""
	.string	"\377"
	.string	""
	.string	""
	.string	"\377"
	.string	""
	.string	""
	.string	"\377"
	.string	""
	.string	""
	.string	"\377"
	.string	""
	.string	""
	.string	"\377"
	.string	""
	.string	""
	.string	"\377"
	.string	""
	.string	""
	.string	"\377"
	.string	""
	.string	""
	.string	"\377"
	.string	""
	.string	""
	.string	"\377"
	.string	""
	.string	""
	.string	"\377"
	.string	""
	.string	""
	.string	"\377"
	.string	""
	.string	""
	.string	"\377"
	.string	""
	.string	""
	.string	"\377"
	.string	""
	.string	""
	.string	"\377"
	.string	""
	.string	""
	.string	"\377"
	.string	""
	.string	""
	.string	"\377"
	.string	""
	.string	""
	.string	"\377"
	.string	""
	.string	""
	.string	"\377"
	.string	""
	.string	""
	.string	"\377"
	.string	""
	.string	""
	.string	"\377"
	.string	""
	.string	""
	.string	"\377"
	.string	""
	.string	""
	.string	"\377"
	.string	""
	.string	""
	.string	"\377"
	.string	""
	.string	""
	.string	"\377"
	.string	""
	.string	""
	.string	"\377"
	.string	""
	.string	""
	.string	"\377"
	.string	""
	.string	""
	.string	"\377"
	.string	""
	.string	""
	.string	"\377"
	.string	""
	.string	""
	.string	"\377"
	.string	""
	.string	""
	.string	"\377"
	.string	""
	.string	""
	.string	"\377"
	.string	""
	.string	""
	.string	"\377"
	.string	""
	.string	""
	.string	"\377"
	.string	""
	.string	""
	.string	"\377"
	.string	""
	.string	""
	.string	"\377"
	.string	""
	.string	""
	.string	"\377"
	.string	""
	.string	""
	.string	"\377"
	.string	""
	.string	""
	.string	"\377"
	.string	""
	.string	""
	.string	"\377"
	.string	""
	.string	""
	.string	"\377"
	.string	""
	.string	""
	.string	"\377"
	.string	""
	.string	""
	.string	"\377"
	.string	""
	.string	""
	.string	"\377"
	.string	""
	.string	""
	.string	"\377"
	.string	""
	.string	""
	.string	"\377"
	.string	""
	.string	""
	.string	"\377"
	.string	""
	.string	""
	.string	"\377"
	.string	""
	.string	""
	.string	"\377"
	.string	""
	.string	""
	.string	"\377"
	.string	""
	.string	""
	.string	"\377"
	.string	""
	.string	""
	.string	"\377"
	.string	""
	.string	""
	.string	"\377"
	.string	""
	.string	""
	.string	"\377"
	.string	""
	.string	""
	.string	"\377"
	.string	""
	.string	""
	.string	"\377"
	.string	""
	.string	""
	.string	"\377"
	.string	""
	.string	""
	.string	"\377"
	.string	""
	.string	""
	.string	"\377"
	.string	""
	.string	""
	.string	"\377"
	.string	""
	.string	""
	.string	"\377"
	.string	""
	.string	""
	.string	"\377"
	.string	""
	.string	""
	.string	"\377"
	.string	""
	.string	""
	.string	"\377"
	.string	""
	.string	""
	.string	"\377"
	.string	""
	.string	""
	.string	"\377"
	.string	""
	.string	""
	.string	"\377"
	.string	""
	.string	""
	.string	"\377"
	.string	""
	.string	""
	.string	"\377"
	.string	""
	.string	""
	.string	"\377"
	.string	""
	.string	""
	.string	"\377"
	.string	""
	.string	""
	.string	"\377"
	.string	""
	.string	""
	.string	"\377"
	.string	""
	.string	""
	.string	"\377"
	.string	""
	.string	""
	.string	"\377"
	.string	""
	.string	""
	.string	"\377"
	.string	""
	.string	""
	.string	"\377"
	.string	""
	.string	""
	.string	"\377"
	.string	""
	.string	""
	.string	"\377"
	.string	""
	.string	""
	.string	"\377"
	.string	""
	.string	""
	.string	"\377"
	.string	""
	.string	""
	.string	"\377"
	.string	""
	.string	""
	.string	"\377"
	.string	""
	.string	""
	.string	"\377"
	.string	""
	.string	""
	.string	"\377"
	.string	""
	.string	""
	.string	"\377"
	.string	""
	.string	""
	.string	"\377"
	.string	""
	.string	""
	.string	"\377"
	.string	""
	.string	""
	.string	"\377"
	.string	""
	.string	""
	.string	"\377"
	.string	""
	.string	""
	.string	"\377"
	.string	""
	.string	""
	.string	"\377\340\260"
	.string	"\377\340\260"
	.string	"\377\340\260"
	.string	"\377\340\260"
	.string	"\377"
	.string	""
	.string	""
	.string	"\377"
	.string	""
	.string	""
	.string	"\377"
	.string	""
	.string	""
	.string	"\377"
	.string	""
	.string	""
	.string	"\377\340\260"
	.string	"\377\340\260"
	.string	"\377\340\260"
	.string	"\377\340\260"
	.string	"\377\340\260"
	.string	"\377\340\260"
	.string	"\377\340\260"
	.string	"\377"
	.string	""
	.string	""
	.string	"\377\340\260"
	.string	"\377\340\260"
	.string	"\377\340\260"
	.string	"\377\340\260"
	.string	"\377\340\260"
	.string	"\377\340\260"
	.string	"\377\340\260"
	.string	"\377"
	.string	""
	.string	""
	.string	"\377"
	.string	""
	.string	""
	.string	"\377"
	.string	""
	.string	""
	.string	"\377"
	.string	""
	.string	""
	.string	"\377"
	.string	""
	.string	""
	.string	"\377"
	.string	""
	.string	""
	.string	"\377"
	.string	""
	.string	""
	.string	"\377"
	.string	""
	.string	""
	.string	"\377"
	.string	""
	.string	""
	.string	"\377"
	.string	""
	.string	""
	.string	"\377"
	.string	""
	.string	""
	.string	"\377"
	.string	""
	.string	""
	.string	"\377"
	.string	""
	.string	""
	.string	"\377"
	.string	""
	.string	""
	.string	"\377"
	.string	""
	.string	""
	.string	"\377"
	.string	""
	.string	""
	.string	"\377"
	.string	""
	.string	""
	.string	"\377"
	.string	""
	.string	""
	.string	"\377"
	.string	""
	.string	""
	.string	"\377"
	.string	""
	.string	""
	.string	"\377\340\260"
	.string	"\377\340\260"
	.string	"\377\340\260"
	.string	"\377\340\260"
	.string	"\377"
	.string	""
	.string	""
	.string	"\377"
	.string	""
	.string	""
	.string	"\377"
	.string	""
	.string	""
	.string	"\377"
	.string	""
	.string	""
	.string	"\377"
	.string	""
	.string	""
	.string	"\377"
	.string	""
	.string	""
	.string	"\377"
	.string	""
	.string	""
	.string	"\377"
	.string	""
	.string	""
	.string	"\377"
	.string	""
	.string	""
	.string	"\377"
	.string	""
	.string	""
	.string	"\377"
	.string	""
	.string	""
	.string	"\377"
	.string	""
	.string	""
	.string	"\377\340\260"
	.string	"\377\340\260"
	.string	"\377\340\260"
	.string	"\377\340\260"
	.string	"\377"
	.string	""
	.string	""
	.string	"\377"
	.string	""
	.string	""
	.string	"\377"
	.string	""
	.string	""
	.string	"\377"
	.string	""
	.string	""
	.string	"\377"
	.string	""
	.string	""
	.string	"\377"
	.string	""
	.string	""
	.string	"\377"
	.string	""
	.string	""
	.string	"\377"
	.string	""
	.string	""
	.string	"\377"
	.string	""
	.string	""
	.string	"\377"
	.string	""
	.string	""
	.string	"\377"
	.string	""
	.string	""
	.string	"\377"
	.string	""
	.string	""
	.string	"\377"
	.string	""
	.string	""
	.string	"\377"
	.string	""
	.string	""
	.string	"\377"
	.string	""
	.string	""
	.string	"\377"
	.string	""
	.string	""
	.string	"\377"
	.string	""
	.string	""
	.string	"\377"
	.string	""
	.string	""
	.string	"\377\340\260"
	.string	"\377\340\260"
	.string	"\377\340\260"
	.string	"\377\340\260"
	.string	"\377"
	.string	""
	.string	""
	.string	"\377"
	.string	""
	.string	""
	.string	"\377"
	.string	""
	.string	""
	.string	"\377"
	.string	""
	.string	""
	.string	"\377"
	.string	""
	.string	""
	.string	"\377"
	.string	""
	.string	""
	.string	"\377"
	.string	""
	.string	""
	.string	"\377"
	.string	""
	.string	""
	.string	"\377"
	.string	""
	.string	""
	.string	"\377"
	.string	""
	.string	""
	.string	"\377"
	.string	""
	.string	""
	.string	"\377"
	.string	""
	.string	""
	.string	"\377"
	.string	""
	.string	""
	.string	"\377"
	.string	""
	.string	""
	.string	"\377"
	.string	""
	.string	""
	.string	"\377"
	.string	""
	.string	""
	.string	"\377"
	.string	""
	.string	""
	.string	"\377"
	.string	""
	.string	""
	.string	"\377"
	.string	""
	.string	""
	.string	"\377"
	.string	""
	.string	""
	.string	"\377"
	.string	""
	.string	""
	.string	"\377"
	.string	""
	.string	""
	.string	"\377"
	.string	""
	.string	""
	.string	"\377"
	.string	""
	.string	""
	.string	"\377"
	.string	""
	.string	""
	.string	"\377"
	.string	""
	.string	""
	.string	"\377"
	.string	""
	.string	""
	.string	"\377"
	.string	""
	.string	""
	.string	"\377"
	.string	""
	.string	""
	.string	"\377"
	.string	""
	.string	""
	.string	"\377"
	.string	""
	.string	""
	.string	"\377"
	.string	""
	.string	""
	.string	"\377"
	.string	""
	.string	""
	.string	"\377"
	.string	""
	.string	""
	.string	"\377"
	.string	""
	.string	""
	.string	"\377"
	.string	""
	.string	""
	.string	"\377"
	.string	""
	.string	""
	.string	"\377"
	.string	""
	.string	""
	.string	"\377"
	.string	""
	.string	""
	.string	"\377"
	.string	""
	.string	""
	.string	"\377"
	.string	""
	.string	""
	.string	"\377"
	.string	""
	.string	""
	.string	"\377"
	.string	""
	.string	""
	.string	"\377"
	.string	""
	.string	""
	.string	"\377"
	.string	""
	.string	""
	.string	"\377"
	.string	""
	.string	""
	.string	"\377"
	.string	""
	.string	""
	.string	"\377"
	.string	""
	.string	""
	.string	"\377"
	.string	""
	.string	""
	.string	"\377"
	.string	""
	.string	""
	.string	"\377"
	.string	""
	.string	""
	.string	"\377"
	.string	""
	.string	""
	.string	"\377"
	.string	""
	.string	""
	.string	"\377"
	.string	""
	.string	""
	.string	"\377"
	.string	""
	.string	""
	.string	"\377"
	.string	""
	.string	""
	.string	"\377"
	.string	""
	.string	""
	.string	"\377"
	.string	""
	.string	""
	.string	"\377"
	.string	""
	.string	""
	.ascii	"\377"
	.string	""
	.string	""
	.string	""
	.string	"\377"
	.string	""
	.string	""
	.string	"\377"
	.string	""
	.string	""
	.string	"\377"
	.string	""
	.string	""
	.string	"\377"
	.string	""
	.string	""
	.string	"\377"
	.string	""
	.string	""
	.string	"\377"
	.string	""
	.string	""
	.string	"\377"
	.string	""
	.string	""
	.string	"\377"
	.string	""
	.string	""
	.string	"\377"
	.string	""
	.string	""
	.string	"\377"
	.string	""
	.string	""
	.string	"\377"
	.string	""
	.string	""
	.string	"\377"
	.string	""
	.string	""
	.string	"\377"
	.string	""
	.string	""
	.string	"\377"
	.string	""
	.string	""
	.string	"\377"
	.string	""
	.string	""
	.string	"\377"
	.string	""
	.string	""
	.string	"\377"
	.string	""
	.string	""
	.string	"\377"
	.string	""
	.string	""
	.string	"\377"
	.string	""
	.string	""
	.string	"\377"
	.string	""
	.string	""
	.string	"\377"
	.string	""
	.string	""
	.string	"\377"
	.string	""
	.string	""
	.string	"\377"
	.string	""
	.string	""
	.string	"\377"
	.string	""
	.string	""
	.string	"\377"
	.string	""
	.string	""
	.string	"\377"
	.string	""
	.string	""
	.string	"\377"
	.string	""
	.string	""
	.string	"\377"
	.string	""
	.string	""
	.string	"\377"
	.string	""
	.string	""
	.string	"\377"
	.string	""
	.string	""
	.string	"\377"
	.string	""
	.string	""
	.string	"\377"
	.string	""
	.string	""
	.string	"\377"
	.string	""
	.string	""
	.string	"\377"
	.string	""
	.string	""
	.string	"\377"
	.string	""
	.string	""
	.string	"\377"
	.string	""
	.string	""
	.string	"\377"
	.string	""
	.string	""
	.string	"\377"
	.string	""
	.string	""
	.string	"\377"
	.string	""
	.string	""
	.string	"\377"
	.string	""
	.string	""
	.string	"\377"
	.string	""
	.string	""
	.string	"\377"
	.string	""
	.string	""
	.string	"\377"
	.string	""
	.string	""
	.string	"\377"
	.string	""
	.string	""
	.string	"\377"
	.string	""
	.string	""
	.string	"\377"
	.string	""
	.string	""
	.string	"\377"
	.string	""
	.string	""
	.string	"\377"
	.string	""
	.string	""
	.string	"\377"
	.string	""
	.string	""
	.string	"\377"
	.string	""
	.string	""
	.string	"\377"
	.string	""
	.string	""
	.string	"\377"
	.string	""
	.string	""
	.string	"\377\340\260"
	.string	"\377\340\260"
	.string	"\377\340\260"
	.string	"\377\340\260"
	.string	"\377"
	.string	""
	.string	""
	.string	"\377"
	.string	""
	.string	""
	.string	"\377"
	.string	""
	.string	""
	.string	"\377"
	.string	""
	.string	""
	.string	"\377"
	.string	""
	.string	""
	.string	"\377"
	.string	""
	.string	""
	.string	"\377"
	.string	""
	.string	""
	.string	"\377"
	.string	""
	.string	""
	.string	"\377"
	.string	""
	.string	""
	.string	"\377"
	.string	""
	.string	""
	.string	"\377"
	.string	""
	.string	""
	.string	"\377"
	.string	""
	.string	""
	.string	"\377"
	.string	""
	.string	""
	.string	"\377\340\260"
	.string	"\377\340\260"
	.string	"\377\340\260"
	.string	"\377\340\260"
	.string	"\377"
	.string	""
	.string	""
	.string	"\377"
	.string	""
	.string	""
	.string	"\377"
	.string	""
	.string	""
	.string	"\377"
	.string	""
	.string	""
	.string	"\377"
	.string	""
	.string	""
	.string	"\377"
	.string	""
	.string	""
	.string	"\377"
	.string	""
	.string	""
	.string	"\377"
	.string	""
	.string	""
	.string	"\377"
	.string	""
	.string	""
	.string	"\377"
	.string	""
	.string	""
	.string	"\377"
	.string	""
	.string	""
	.string	"\377"
	.string	""
	.string	""
	.string	"\377"
	.string	""
	.string	""
	.string	"\377"
	.string	""
	.string	""
	.string	"\377"
	.string	""
	.string	""
	.string	"\377"
	.string	""
	.string	""
	.string	"\377"
	.string	""
	.string	""
	.string	"\377"
	.string	""
	.string	""
	.string	"\377"
	.string	""
	.string	""
	.string	"\377"
	.string	""
	.string	""
	.string	"\377"
	.string	""
	.string	""
	.string	"\377"
	.string	""
	.string	""
	.string	"\377"
	.string	""
	.string	""
	.string	"\377"
	.string	""
	.string	""
	.string	"\377"
	.string	""
	.string	""
	.string	"\377"
	.string	""
	.string	""
	.string	"\377"
	.string	""
	.string	""
	.string	"\377"
	.string	""
	.string	""
	.string	"\377"
	.string	""
	.string	""
	.string	"\377"
	.string	""
	.string	""
	.string	"\377"
	.string	""
	.string	""
	.string	"\377"
	.string	""
	.string	""
	.string	"\377"
	.string	""
	.string	""
	.string	"\377"
	.string	""
	.string	""
	.string	"\377"
	.string	""
	.string	""
	.string	"\377"
	.string	""
	.string	""
	.string	"\377"
	.string	""
	.string	""
	.string	"\377"
	.string	""
	.string	""
	.string	"\377"
	.string	""
	.string	""
	.string	"\377"
	.string	""
	.string	""
	.string	"\377"
	.string	""
	.string	""
	.string	"\377"
	.string	""
	.string	""
	.string	"\377"
	.string	""
	.string	""
	.string	"\377"
	.string	""
	.string	""
	.string	"\377"
	.string	""
	.string	""
	.string	"\377"
	.string	""
	.string	""
	.string	"\377"
	.string	""
	.string	""
	.string	"\377"
	.string	""
	.string	""
	.string	"\377"
	.string	""
	.string	""
	.string	"\377"
	.string	""
	.string	""
	.string	"\377"
	.string	""
	.string	""
	.string	"\377"
	.string	""
	.string	""
	.string	"\377"
	.string	""
	.string	""
	.string	"\377"
	.string	""
	.string	""
	.string	"\377\340\260"
	.string	"\377\340\260"
	.string	"\377\340\260"
	.string	"\377\340\260"
	.string	"\377\340\260"
	.string	"\377\340\260"
	.string	"\377\340\260"
	.string	"\377\340\260"
	.string	"\377\340\260"
	.string	"\377\340\260"
	.string	"\377\340\260"
	.string	"\377\340\260"
	.string	"\377\340\260"
	.string	"\377\340\260"
	.string	"\377\340\260"
	.string	"\377"
	.string	""
	.string	""
	.string	"\377"
	.string	""
	.string	""
	.string	"\377"
	.string	""
	.string	""
	.string	"\377"
	.string	""
	.string	""
	.string	"\377"
	.string	""
	.string	""
	.string	"\377"
	.string	""
	.string	""
	.string	"\377"
	.string	""
	.string	""
	.string	"\377"
	.string	""
	.string	""
	.string	"\377"
	.string	""
	.string	""
	.string	"\377"
	.string	""
	.string	""
	.string	"\377"
	.string	""
	.string	""
	.string	"\377"
	.string	""
	.string	""
	.string	"\377"
	.string	""
	.string	""
	.string	"\377"
	.string	""
	.string	""
	.string	"\377"
	.string	""
	.string	""
	.string	"\377"
	.string	""
	.string	""
	.string	"\377"
	.string	""
	.string	""
	.string	"\377"
	.string	""
	.string	""
	.string	"\377"
	.string	""
	.string	""
	.string	"\377"
	.string	""
	.string	""
	.string	"\377"
	.string	""
	.string	""
	.string	"\377"
	.string	""
	.string	""
	.string	"\377"
	.string	""
	.string	""
	.string	"\377"
	.string	""
	.string	""
	.string	"\377"
	.string	""
	.string	""
	.string	"\377"
	.string	""
	.string	""
	.string	"\377"
	.string	""
	.string	""
	.string	"\377"
	.string	""
	.string	""
	.string	"\377"
	.string	""
	.string	""
	.string	"\377"
	.string	""
	.string	""
	.string	"\377"
	.string	""
	.string	""
	.string	"\377"
	.string	""
	.string	""
	.string	"\377"
	.string	""
	.string	""
	.string	"\377\340\260"
	.string	"\377\340\260"
	.string	"\377\340\260"
	.string	"\377\340\260"
	.string	"\377"
	.string	""
	.string	""
	.string	"\377"
	.string	""
	.string	""
	.string	"\377"
	.string	""
	.string	""
	.string	"\377\340\260"
	.string	"\377\340\260"
	.string	"\377\340\260"
	.string	"\377\340\260"
	.string	"\377\340\260"
	.string	"\377\340\260"
	.string	"\377\340\260"
	.string	"\377\340\260"
	.string	"\377"
	.string	""
	.string	""
	.string	"\377\340\260"
	.string	"\377\340\260"
	.string	"\377\340\260"
	.string	"\377\340\260"
	.string	"\377\340\260"
	.string	"\377\340\260"
	.string	"\377\340\260"
	.string	"\377"
	.string	""
	.string	""
	.string	"\377"
	.string	""
	.string	""
	.string	"\377"
	.string	""
	.string	""
	.string	"\377"
	.string	""
	.string	""
	.string	"\377"
	.string	""
	.string	""
	.string	"\377"
	.string	""
	.string	""
	.string	"\377"
	.string	""
	.string	""
	.string	"\377"
	.string	""
	.string	""
	.string	"\377"
	.string	""
	.string	""
	.string	"\377"
	.string	""
	.string	""
	.string	"\377"
	.string	""
	.string	""
	.string	"\377"
	.string	""
	.string	""
	.string	"\377"
	.string	""
	.string	""
	.string	"\377\340\260"
	.string	"\377\340\260"
	.string	"\377\340\260"
	.string	"\377\340\260"
	.string	"\377\340\260"
	.string	"\377\340\260"
	.string	"\377\340\260"
	.string	"\377\340\260"
	.string	"\377\340\260"
	.string	"\377\340\260"
	.string	"\377"
	.string	""
	.string	""
	.string	"\377"
	.string	""
	.string	""
	.string	"\377"
	.string	""
	.string	""
	.string	"\377"
	.string	""
	.string	""
	.string	"\377"
	.string	""
	.string	""
	.string	"\377"
	.string	""
	.string	""
	.string	"\377"
	.string	""
	.string	""
	.string	"\377"
	.string	""
	.string	""
	.string	"\377\340\260"
	.string	"\377\340\260"
	.string	"\377\340\260"
	.string	"\377\340\260"
	.string	"\377\340\260"
	.string	"\377\340\260"
	.string	"\377\340\260"
	.string	"\377\340\260"
	.string	"\377\340\260"
	.string	"\377"
	.string	""
	.string	""
	.string	"\377"
	.string	""
	.string	""
	.string	"\377"
	.string	""
	.string	""
	.string	"\377"
	.string	""
	.string	""
	.string	"\377"
	.string	""
	.string	""
	.string	"\377"
	.string	""
	.string	""
	.string	"\377"
	.string	""
	.string	""
	.string	"\377"
	.string	""
	.string	""
	.string	"\377"
	.string	""
	.string	""
	.string	"\377"
	.string	""
	.string	""
	.string	"\377"
	.string	""
	.string	""
	.string	"\377"
	.string	""
	.string	""
	.string	"\377"
	.string	""
	.string	""
	.string	"\377"
	.string	""
	.string	""
	.string	"\377"
	.string	""
	.string	""
	.string	"\377"
	.string	""
	.string	""
	.string	"\377"
	.string	""
	.string	""
	.string	"\377"
	.string	""
	.string	""
	.string	"\377\340\260"
	.string	"\377\340\260"
	.string	"\377\340\260"
	.string	"\377\340\260"
	.string	"\377"
	.string	""
	.string	""
	.string	"\377"
	.string	""
	.string	""
	.string	"\377"
	.string	""
	.string	""
	.string	"\377"
	.string	""
	.string	""
	.string	"\377"
	.string	""
	.string	""
	.string	"\377"
	.string	""
	.string	""
	.string	"\377"
	.string	""
	.string	""
	.string	"\377"
	.string	""
	.string	""
	.string	"\377"
	.string	""
	.string	""
	.string	"\377"
	.string	""
	.string	""
	.string	"\377"
	.string	""
	.string	""
	.string	"\377"
	.string	""
	.string	""
	.string	"\377"
	.string	""
	.string	""
	.string	"\377"
	.string	""
	.string	""
	.string	"\377"
	.string	""
	.string	""
	.string	"\377"
	.string	""
	.string	""
	.string	"\377"
	.string	""
	.string	""
	.string	"\377"
	.string	""
	.string	""
	.string	"\377"
	.string	""
	.string	""
	.string	"\377"
	.string	""
	.string	""
	.string	"\377"
	.string	""
	.string	""
	.string	"\377"
	.string	""
	.string	""
	.string	"\377"
	.string	""
	.string	""
	.string	"\377"
	.string	""
	.string	""
	.string	"\377"
	.string	""
	.string	""
	.string	"\377"
	.string	""
	.string	""
	.string	"\377"
	.string	""
	.string	""
	.string	"\377"
	.string	""
	.string	""
	.string	"\377"
	.string	""
	.string	""
	.string	"\377"
	.string	""
	.string	""
	.string	"\377"
	.string	""
	.string	""
	.string	"\377"
	.string	""
	.string	""
	.string	"\377"
	.string	""
	.string	""
	.string	"\377"
	.string	""
	.string	""
	.string	"\377"
	.string	""
	.string	""
	.string	"\377"
	.string	""
	.string	""
	.string	"\377"
	.string	""
	.string	""
	.string	"\377"
	.string	""
	.string	""
	.string	"\377"
	.string	""
	.string	""
	.string	"\377"
	.string	""
	.string	""
	.string	"\377"
	.string	""
	.string	""
	.string	"\377"
	.string	""
	.string	""
	.string	"\377"
	.string	""
	.string	""
	.string	"\377"
	.string	""
	.string	""
	.string	"\377"
	.string	""
	.string	""
	.string	"\377"
	.string	""
	.string	""
	.string	"\377"
	.string	""
	.string	""
	.string	"\377"
	.string	""
	.string	""
	.string	"\377"
	.string	""
	.string	""
	.string	"\377"
	.string	""
	.string	""
	.string	"\377"
	.string	""
	.string	""
	.string	"\377"
	.string	""
	.string	""
	.string	"\377"
	.string	""
	.string	""
	.string	"\377"
	.string	""
	.string	""
	.string	"\377"
	.string	""
	.string	""
	.string	"\377"
	.string	""
	.string	""
	.string	"\377"
	.string	""
	.string	""
	.string	"\377"
	.string	""
	.string	""
	.string	"\377"
	.string	""
	.string	""
	.string	"\377"
	.string	""
	.string	""
	.string	"\377"
	.string	""
	.string	""
	.string	"\377"
	.string	""
	.string	""
	.string	"\377"
	.string	""
	.string	""
	.string	"\377"
	.string	""
	.string	""
	.string	"\377"
	.string	""
	.string	""
	.string	"\377"
	.string	""
	.string	""
	.string	"\377"
	.string	""
	.string	""
	.string	"\377"
	.string	""
	.string	""
	.string	"\377"
	.string	""
	.string	""
	.string	"\377"
	.string	""
	.string	""
	.string	"\377"
	.string	""
	.string	""
	.string	"\377"
	.string	""
	.string	""
	.string	"\377"
	.string	""
	.string	""
	.string	"\377"
	.string	""
	.string	""
	.string	"\377"
	.string	""
	.string	""
	.string	"\377"
	.string	""
	.string	""
	.string	"\377"
	.string	""
	.string	""
	.string	"\377"
	.string	""
	.string	""
	.string	"\377"
	.string	""
	.string	""
	.string	"\377"
	.string	""
	.string	""
	.string	"\377"
	.string	""
	.string	""
	.string	"\377"
	.string	""
	.string	""
	.string	"\377"
	.string	""
	.string	""
	.string	"\377"
	.string	""
	.string	""
	.string	"\377"
	.string	""
	.string	""
	.string	"\377"
	.string	""
	.string	""
	.string	"\377"
	.string	""
	.string	""
	.string	"\377"
	.string	""
	.string	""
	.string	"\377"
	.string	""
	.string	""
	.string	"\377"
	.string	""
	.string	""
	.string	"\377"
	.string	""
	.string	""
	.string	"\377"
	.string	""
	.string	""
	.string	"\377"
	.string	""
	.string	""
	.string	"\377"
	.string	""
	.string	""
	.string	"\377"
	.string	""
	.string	""
	.string	"\377"
	.string	""
	.string	""
	.string	"\377"
	.string	""
	.string	""
	.string	"\377"
	.string	""
	.string	""
	.string	"\377"
	.string	""
	.string	""
	.string	"\377"
	.string	""
	.string	""
	.string	"\377"
	.string	""
	.string	""
	.string	"\377"
	.string	""
	.string	""
	.string	"\377"
	.string	""
	.string	""
	.string	"\377"
	.string	""
	.string	""
	.string	"\377"
	.string	""
	.string	""
	.string	"\377"
	.string	""
	.string	""
	.string	"\377"
	.string	""
	.string	""
	.string	"\377"
	.string	""
	.string	""
	.string	"\377"
	.string	""
	.string	""
	.string	"\377"
	.string	""
	.string	""
	.string	"\377"
	.string	""
	.string	""
	.string	"\377"
	.string	""
	.string	""
	.string	"\377\340\260"
	.string	"\377\340\260"
	.string	"\377\340\260"
	.string	"\377\340\260"
	.string	"\377"
	.string	""
	.string	""
	.string	"\377"
	.string	""
	.string	""
	.string	"\377"
	.string	""
	.string	""
	.string	"\377"
	.string	""
	.string	""
	.string	"\377"
	.string	""
	.string	""
	.string	"\377"
	.string	""
	.string	""
	.string	"\377"
	.string	""
	.string	""
	.string	"\377"
	.string	""
	.string	""
	.string	"\377"
	.string	""
	.string	""
	.string	"\377"
	.string	""
	.string	""
	.string	"\377"
	.string	""
	.string	""
	.string	"\377"
	.string	""
	.string	""
	.string	"\377"
	.string	""
	.string	""
	.string	"\377\340\260"
	.string	"\377\340\260"
	.string	"\377\340\260"
	.string	"\377\340\260"
	.string	"\377"
	.string	""
	.string	""
	.string	"\377"
	.string	""
	.string	""
	.string	"\377"
	.string	""
	.string	""
	.string	"\377"
	.string	""
	.string	""
	.string	"\377"
	.string	""
	.string	""
	.string	"\377"
	.string	""
	.string	""
	.string	"\377"
	.string	""
	.string	""
	.string	"\377"
	.string	""
	.string	""
	.string	"\377"
	.string	""
	.string	""
	.string	"\377"
	.string	""
	.string	""
	.string	"\377"
	.string	""
	.string	""
	.string	"\377"
	.string	""
	.string	""
	.string	"\377"
	.string	""
	.string	""
	.string	"\377"
	.string	""
	.string	""
	.string	"\377"
	.string	""
	.string	""
	.string	"\377"
	.string	""
	.string	""
	.string	"\377"
	.string	""
	.string	""
	.string	"\377"
	.string	""
	.string	""
	.string	"\377"
	.string	""
	.string	""
	.string	"\377"
	.string	""
	.string	""
	.string	"\377"
	.string	""
	.string	""
	.string	"\377"
	.string	""
	.string	""
	.string	"\377"
	.string	""
	.string	""
	.string	"\377"
	.string	""
	.string	""
	.string	"\377"
	.string	""
	.string	""
	.string	"\377"
	.string	""
	.string	""
	.string	"\377"
	.string	""
	.string	""
	.string	"\377"
	.string	""
	.string	""
	.string	"\377"
	.string	""
	.string	""
	.string	"\377"
	.string	""
	.string	""
	.string	"\377"
	.string	""
	.string	""
	.string	"\377"
	.string	""
	.string	""
	.string	"\377"
	.string	""
	.string	""
	.string	"\377"
	.string	""
	.string	""
	.string	"\377"
	.string	""
	.string	""
	.string	"\377"
	.string	""
	.string	""
	.string	"\377"
	.string	""
	.string	""
	.string	"\377"
	.string	""
	.string	""
	.string	"\377"
	.string	""
	.string	""
	.string	"\377"
	.string	""
	.string	""
	.string	"\377"
	.string	""
	.string	""
	.string	"\377"
	.string	""
	.string	""
	.string	"\377"
	.string	""
	.string	""
	.string	"\377"
	.string	""
	.string	""
	.string	"\377"
	.string	""
	.string	""
	.string	"\377"
	.string	""
	.string	""
	.string	"\377"
	.string	""
	.string	""
	.string	"\377"
	.string	""
	.string	""
	.string	"\377"
	.string	""
	.string	""
	.string	"\377"
	.string	""
	.string	""
	.string	"\377"
	.string	""
	.string	""
	.string	"\377"
	.string	""
	.string	""
	.string	"\377"
	.string	""
	.string	""
	.string	"\377"
	.string	""
	.string	""
	.string	"\377\340\260"
	.string	"\377\340\260"
	.string	"\377\340\260"
	.string	"\377\340\260"
	.string	"\377\340\260"
	.string	"\377\340\260"
	.string	"\377\340\260"
	.string	"\377\340\260"
	.string	"\377\340\260"
	.string	"\377\340\260"
	.string	"\377\340\260"
	.string	"\377\340\260"
	.string	"\377\340\260"
	.string	"\377\340\260"
	.string	"\377\340\260"
	.string	"\377"
	.string	""
	.string	""
	.string	"\377"
	.string	""
	.string	""
	.string	"\377"
	.string	""
	.string	""
	.string	"\377"
	.string	""
	.string	""
	.string	"\377"
	.string	""
	.string	""
	.string	"\377"
	.string	""
	.string	""
	.string	"\377"
	.string	""
	.string	""
	.string	"\377"
	.string	""
	.string	""
	.string	"\377"
	.string	""
	.string	""
	.string	"\377"
	.string	""
	.string	""
	.string	"\377"
	.string	""
	.string	""
	.string	"\377"
	.string	""
	.string	""
	.string	"\377"
	.string	""
	.string	""
	.string	"\377"
	.string	""
	.string	""
	.string	"\377"
	.string	""
	.string	""
	.string	"\377"
	.string	""
	.string	""
	.string	"\377"
	.string	""
	.string	""
	.string	"\377"
	.string	""
	.string	""
	.string	"\377"
	.string	""
	.string	""
	.string	"\377"
	.string	""
	.string	""
	.string	"\377"
	.string	""
	.string	""
	.string	"\377"
	.string	""
	.string	""
	.string	"\377"
	.string	""
	.string	""
	.string	"\377"
	.string	""
	.string	""
	.string	"\377"
	.string	""
	.string	""
	.string	"\377"
	.string	""
	.string	""
	.string	"\377"
	.string	""
	.string	""
	.string	"\377"
	.string	""
	.string	""
	.string	"\377"
	.string	""
	.string	""
	.string	"\377"
	.string	""
	.string	""
	.string	"\377"
	.string	""
	.string	""
	.string	"\377"
	.string	""
	.string	""
	.string	"\377"
	.string	""
	.string	""
	.string	"\377\340\260"
	.string	"\377\340\260"
	.string	"\377\340\260"
	.string	"\377\340\260"
	.ascii	"\377"
	.string	""
	.string	""
	.string	""
	.string	"\377"
	.string	""
	.string	""
	.string	"\377\340\260"
	.string	"\377\340\260"
	.string	"\377\340\260"
	.string	"\377\340\260"
	.string	"\377"
	.string	""
	.string	""
	.string	"\377\340\260"
	.string	"\377\340\260"
	.string	"\377\340\260"
	.string	"\377\340\260"
	.string	"\377"
	.string	""
	.string	""
	.string	"\377"
	.string	""
	.string	""
	.string	"\377"
	.string	""
	.string	""
	.string	"\377"
	.string	""
	.string	""
	.string	"\377\340\260"
	.string	"\377\340\260"
	.string	"\377\340\260"
	.string	"\377\340\260"
	.string	"\377"
	.string	""
	.string	""
	.string	"\377"
	.string	""
	.string	""
	.string	"\377"
	.string	""
	.string	""
	.string	"\377"
	.string	""
	.string	""
	.string	"\377"
	.string	""
	.string	""
	.string	"\377"
	.string	""
	.string	""
	.string	"\377"
	.string	""
	.string	""
	.string	"\377"
	.string	""
	.string	""
	.string	"\377"
	.string	""
	.string	""
	.string	"\377"
	.string	""
	.string	""
	.string	"\377"
	.string	""
	.string	""
	.string	"\377\340\260"
	.string	"\377\340\260"
	.string	"\377\340\260"
	.string	"\377\340\260"
	.string	"\377\340\260"
	.string	"\377\340\260"
	.string	"\377\340\260"
	.string	"\377\340\260"
	.string	"\377\340\260"
	.string	"\377\340\260"
	.string	"\377\340\260"
	.string	"\377\340\260"
	.string	"\377"
	.string	""
	.string	""
	.string	"\377"
	.string	""
	.string	""
	.string	"\377"
	.string	""
	.string	""
	.string	"\377"
	.string	""
	.string	""
	.string	"\377"
	.string	""
	.string	""
	.string	"\377"
	.string	""
	.string	""
	.string	"\377"
	.string	""
	.string	""
	.string	"\377"
	.string	""
	.string	""
	.string	"\377\340\260"
	.string	"\377\340\260"
	.string	"\377\340\260"
	.string	"\377\340\260"
	.string	"\377\340\260"
	.string	"\377\340\260"
	.string	"\377\340\260"
	.string	"\377\340\260"
	.string	"\377"
	.string	""
	.string	""
	.string	"\377"
	.string	""
	.string	""
	.string	"\377"
	.string	""
	.string	""
	.string	"\377"
	.string	""
	.string	""
	.string	"\377"
	.string	""
	.string	""
	.string	"\377"
	.string	""
	.string	""
	.string	"\377"
	.string	""
	.string	""
	.string	"\377"
	.string	""
	.string	""
	.string	"\377"
	.string	""
	.string	""
	.string	"\377"
	.string	""
	.string	""
	.string	"\377"
	.string	""
	.string	""
	.string	"\377"
	.string	""
	.string	""
	.string	"\377"
	.string	""
	.string	""
	.string	"\377"
	.string	""
	.string	""
	.string	"\377"
	.string	""
	.string	""
	.string	"\377"
	.string	""
	.string	""
	.string	"\377"
	.string	""
	.string	""
	.string	"\377"
	.string	""
	.string	""
	.string	"\377"
	.string	""
	.string	""
	.string	"\377\340\260"
	.string	"\377\340\260"
	.string	"\377\340\260"
	.string	"\377\340\260"
	.string	"\377"
	.string	""
	.string	""
	.string	"\377"
	.string	""
	.string	""
	.string	"\377"
	.string	""
	.string	""
	.string	"\377"
	.string	""
	.string	""
	.string	"\377"
	.string	""
	.string	""
	.string	"\377"
	.string	""
	.string	""
	.string	"\377"
	.string	""
	.string	""
	.string	"\377"
	.string	""
	.string	""
	.string	"\377"
	.string	""
	.string	""
	.string	"\377"
	.string	""
	.string	""
	.string	"\377"
	.string	""
	.string	""
	.string	"\377"
	.string	""
	.string	""
	.string	"\377"
	.string	""
	.string	""
	.string	"\377"
	.string	""
	.string	""
	.string	"\377"
	.string	""
	.string	""
	.string	"\377"
	.string	""
	.string	""
	.string	"\377"
	.string	""
	.string	""
	.string	"\377"
	.string	""
	.string	""
	.string	"\377"
	.string	""
	.string	""
	.string	"\377"
	.string	""
	.string	""
	.string	"\377"
	.string	""
	.string	""
	.string	"\377"
	.string	""
	.string	""
	.string	"\377"
	.string	""
	.string	""
	.string	"\377"
	.string	""
	.string	""
	.string	"\377"
	.string	""
	.string	""
	.string	"\377"
	.string	""
	.string	""
	.string	"\377"
	.string	""
	.string	""
	.string	"\377"
	.string	""
	.string	""
	.string	"\377"
	.string	""
	.string	""
	.string	"\377"
	.string	""
	.string	""
	.string	"\377"
	.string	""
	.string	""
	.string	"\377"
	.string	""
	.string	""
	.string	"\377"
	.string	""
	.string	""
	.string	"\377"
	.string	""
	.string	""
	.string	"\377"
	.string	""
	.string	""
	.string	"\377"
	.string	""
	.string	""
	.string	"\377"
	.string	""
	.string	""
	.string	"\377"
	.string	""
	.string	""
	.string	"\377"
	.string	""
	.string	""
	.string	"\377"
	.string	""
	.string	""
	.string	"\377"
	.string	""
	.string	""
	.string	"\377"
	.string	""
	.string	""
	.string	"\377"
	.string	""
	.string	""
	.string	"\377"
	.string	""
	.string	""
	.string	"\377"
	.string	""
	.string	""
	.string	"\377"
	.string	""
	.string	""
	.string	"\377"
	.string	""
	.string	""
	.string	"\377"
	.string	""
	.string	""
	.string	"\377"
	.string	""
	.string	""
	.string	"\377"
	.string	""
	.string	""
	.string	"\377"
	.string	""
	.string	""
	.string	"\377"
	.string	""
	.string	""
	.string	"\377"
	.string	""
	.string	""
	.string	"\377"
	.string	""
	.string	""
	.string	"\377"
	.string	""
	.string	""
	.string	"\377"
	.string	""
	.string	""
	.string	"\377"
	.string	""
	.string	""
	.string	"\377"
	.string	""
	.string	""
	.string	"\377"
	.string	""
	.string	""
	.string	"\377"
	.string	""
	.string	""
	.string	"\377"
	.string	""
	.string	""
	.string	"\377"
	.string	""
	.string	""
	.string	"\377"
	.string	""
	.string	""
	.string	"\377"
	.string	""
	.string	""
	.string	"\377"
	.string	""
	.string	""
	.string	"\377"
	.string	""
	.string	""
	.string	"\377"
	.string	""
	.string	""
	.string	"\377"
	.string	""
	.string	""
	.string	"\377"
	.string	""
	.string	""
	.string	"\377"
	.string	""
	.string	""
	.string	"\377"
	.string	""
	.string	""
	.string	"\377"
	.string	""
	.string	""
	.string	"\377"
	.string	""
	.string	""
	.string	"\377"
	.string	""
	.string	""
	.string	"\377"
	.string	""
	.string	""
	.string	"\377"
	.string	""
	.string	""
	.string	"\377"
	.string	""
	.string	""
	.string	"\377"
	.string	""
	.string	""
	.string	"\377"
	.string	""
	.string	""
	.string	"\377"
	.string	""
	.string	""
	.string	"\377"
	.string	""
	.string	""
	.string	"\377"
	.string	""
	.string	""
	.string	"\377"
	.string	""
	.string	""
	.string	"\377"
	.string	""
	.string	""
	.string	"\377"
	.string	""
	.string	""
	.string	"\377"
	.string	""
	.string	""
	.string	"\377"
	.string	""
	.string	""
	.string	"\377"
	.string	""
	.string	""
	.string	"\377"
	.string	""
	.string	""
	.string	"\377"
	.string	""
	.string	""
	.string	"\377"
	.string	""
	.string	""
	.string	"\377"
	.string	""
	.string	""
	.string	"\377"
	.string	""
	.string	""
	.string	"\377"
	.string	""
	.string	""
	.string	"\377"
	.string	""
	.string	""
	.string	"\377"
	.string	""
	.string	""
	.string	"\377"
	.string	""
	.string	""
	.string	"\377"
	.string	""
	.string	""
	.string	"\377"
	.string	""
	.string	""
	.string	"\377"
	.string	""
	.string	""
	.string	"\377"
	.string	""
	.string	""
	.string	"\377"
	.string	""
	.string	""
	.string	"\377"
	.string	""
	.string	""
	.string	"\377"
	.string	""
	.string	""
	.string	"\377"
	.string	""
	.string	""
	.string	"\377"
	.string	""
	.string	""
	.string	"\377"
	.string	""
	.string	""
	.string	"\377"
	.string	""
	.string	""
	.string	"\377"
	.string	""
	.string	""
	.string	"\377"
	.string	""
	.string	""
	.string	"\377"
	.string	""
	.string	""
	.string	"\377"
	.string	""
	.string	""
	.string	"\377\340\260"
	.string	"\377\340\260"
	.string	"\377\340\260"
	.string	"\377\340\260"
	.string	"\377"
	.string	""
	.string	""
	.string	"\377"
	.string	""
	.string	""
	.string	"\377"
	.string	""
	.string	""
	.string	"\377"
	.string	""
	.string	""
	.string	"\377"
	.string	""
	.string	""
	.string	"\377"
	.string	""
	.string	""
	.string	"\377"
	.string	""
	.string	""
	.string	"\377"
	.string	""
	.string	""
	.string	"\377"
	.string	""
	.string	""
	.string	"\377"
	.string	""
	.string	""
	.string	"\377"
	.string	""
	.string	""
	.string	"\377"
	.string	""
	.string	""
	.string	"\377"
	.string	""
	.string	""
	.string	"\377\340\260"
	.string	"\377\340\260"
	.string	"\377\340\260"
	.string	"\377\340\260"
	.string	"\377"
	.string	""
	.string	""
	.string	"\377"
	.string	""
	.string	""
	.string	"\377"
	.string	""
	.string	""
	.string	"\377"
	.string	""
	.string	""
	.string	"\377"
	.string	""
	.string	""
	.string	"\377"
	.string	""
	.string	""
	.string	"\377"
	.string	""
	.string	""
	.string	"\377"
	.string	""
	.string	""
	.string	"\377"
	.string	""
	.string	""
	.string	"\377"
	.string	""
	.string	""
	.string	"\377"
	.string	""
	.string	""
	.string	"\377"
	.string	""
	.string	""
	.string	"\377"
	.string	""
	.string	""
	.string	"\377"
	.string	""
	.string	""
	.string	"\377"
	.string	""
	.string	""
	.string	"\377"
	.string	""
	.string	""
	.string	"\377"
	.string	""
	.string	""
	.string	"\377"
	.string	""
	.string	""
	.string	"\377"
	.string	""
	.string	""
	.string	"\377"
	.string	""
	.string	""
	.string	"\377"
	.string	""
	.string	""
	.string	"\377"
	.string	""
	.string	""
	.string	"\377"
	.string	""
	.string	""
	.string	"\377"
	.string	""
	.string	""
	.string	"\377"
	.string	""
	.string	""
	.string	"\377"
	.string	""
	.string	""
	.string	"\377"
	.string	""
	.string	""
	.string	"\377"
	.string	""
	.string	""
	.string	"\377"
	.string	""
	.string	""
	.string	"\377"
	.string	""
	.string	""
	.string	"\377"
	.string	""
	.string	""
	.string	"\377"
	.string	""
	.string	""
	.string	"\377"
	.string	""
	.string	""
	.string	"\377"
	.string	""
	.string	""
	.string	"\377"
	.string	""
	.string	""
	.string	"\377"
	.string	""
	.string	""
	.string	"\377"
	.string	""
	.string	""
	.string	"\377"
	.string	""
	.string	""
	.string	"\377"
	.string	""
	.string	""
	.string	"\377"
	.string	""
	.string	""
	.string	"\377"
	.string	""
	.string	""
	.string	"\377"
	.string	""
	.string	""
	.string	"\377"
	.string	""
	.string	""
	.string	"\377"
	.string	""
	.string	""
	.string	"\377"
	.string	""
	.string	""
	.string	"\377"
	.string	""
	.string	""
	.string	"\377"
	.string	""
	.string	""
	.string	"\377"
	.string	""
	.string	""
	.string	"\377"
	.string	""
	.string	""
	.string	"\377"
	.string	""
	.string	""
	.string	"\377"
	.string	""
	.string	""
	.string	"\377"
	.string	""
	.string	""
	.string	"\377"
	.string	""
	.string	""
	.string	"\377"
	.string	""
	.string	""
	.string	"\377\340\260"
	.string	"\377\340\260"
	.string	"\377\340\260"
	.string	"\377\340\260"
	.string	"\377\340\260"
	.string	"\377\340\260"
	.string	"\377\340\260"
	.string	"\377\340\260"
	.string	"\377\340\260"
	.string	"\377\340\260"
	.string	"\377\340\260"
	.string	"\377\340\260"
	.string	"\377\340\260"
	.string	"\377\340\260"
	.string	"\377\340\260"
	.string	"\377"
	.string	""
	.string	""
	.string	"\377"
	.string	""
	.string	""
	.string	"\377"
	.string	""
	.string	""
	.string	"\377"
	.string	""
	.string	""
	.string	"\377"
	.string	""
	.string	""
	.string	"\377"
	.string	""
	.string	""
	.string	"\377"
	.string	""
	.string	""
	.string	"\377"
	.string	""
	.string	""
	.string	"\377"
	.string	""
	.string	""
	.string	"\377"
	.string	""
	.string	""
	.string	"\377"
	.string	""
	.string	""
	.string	"\377"
	.string	""
	.string	""
	.string	"\377"
	.string	""
	.string	""
	.string	"\377"
	.string	""
	.string	""
	.string	"\377"
	.string	""
	.string	""
	.string	"\377"
	.string	""
	.string	""
	.string	"\377"
	.string	""
	.string	""
	.string	"\377"
	.string	""
	.string	""
	.string	"\377"
	.string	""
	.string	""
	.string	"\377"
	.string	""
	.string	""
	.string	"\377"
	.string	""
	.string	""
	.string	"\377"
	.string	""
	.string	""
	.string	"\377"
	.string	""
	.string	""
	.string	"\377"
	.string	""
	.string	""
	.string	"\377"
	.string	""
	.string	""
	.string	"\377"
	.string	""
	.string	""
	.string	"\377"
	.string	""
	.string	""
	.string	"\377"
	.string	""
	.string	""
	.string	"\377"
	.string	""
	.string	""
	.string	"\377"
	.string	""
	.string	""
	.string	"\377"
	.string	""
	.string	""
	.string	"\377"
	.string	""
	.string	""
	.string	"\377"
	.string	""
	.string	""
	.string	"\377\340\260"
	.string	"\377\340\260"
	.string	"\377\340\260"
	.string	"\377\340\260"
	.string	"\377"
	.string	""
	.string	""
	.string	"\377\340\260"
	.string	"\377\340\260"
	.string	"\377\340\260"
	.string	"\377\340\260"
	.string	"\377"
	.string	""
	.string	""
	.string	"\377"
	.string	""
	.string	""
	.string	"\377\340\260"
	.string	"\377\340\260"
	.string	"\377\340\260"
	.string	"\377\340\260"
	.string	"\377"
	.string	""
	.string	""
	.string	"\377"
	.string	""
	.string	""
	.string	"\377"
	.string	""
	.string	""
	.string	"\377"
	.string	""
	.string	""
	.string	"\377\340\260"
	.string	"\377\340\260"
	.string	"\377\340\260"
	.string	"\377\340\260"
	.string	"\377"
	.string	""
	.string	""
	.string	"\377"
	.string	""
	.string	""
	.string	"\377"
	.string	""
	.string	""
	.string	"\377"
	.string	""
	.string	""
	.string	"\377"
	.string	""
	.string	""
	.string	"\377"
	.string	""
	.string	""
	.string	"\377"
	.string	""
	.string	""
	.string	"\377"
	.string	""
	.string	""
	.string	"\377"
	.string	""
	.string	""
	.string	"\377"
	.string	""
	.string	""
	.string	"\377\340\260"
	.string	"\377\340\260"
	.string	"\377\340\260"
	.string	"\377\340\260"
	.string	"\377\340\260"
	.string	"\377\340\260"
	.string	"\377\340\260"
	.string	"\377\340\260"
	.string	"\377\340\260"
	.string	"\377\340\260"
	.string	"\377\340\260"
	.string	"\377\340\260"
	.string	"\377"
	.string	""
	.string	""
	.string	"\377"
	.string	""
	.string	""
	.string	"\377"
	.string	""
	.string	""
	.string	"\377"
	.string	""
	.string	""
	.string	"\377"
	.string	""
	.string	""
	.string	"\377"
	.string	""
	.string	""
	.string	"\377"
	.string	""
	.string	""
	.string	"\377"
	.string	""
	.string	""
	.string	"\377"
	.string	""
	.string	""
	.string	"\377\340\260"
	.string	"\377\340\260"
	.string	"\377\340\260"
	.string	"\377\340\260"
	.string	"\377\340\260"
	.string	"\377\340\260"
	.string	"\377\340\260"
	.string	"\377\340\260"
	.string	"\377"
	.string	""
	.string	""
	.string	"\377"
	.string	""
	.string	""
	.string	"\377"
	.string	""
	.string	""
	.string	"\377"
	.string	""
	.string	""
	.string	"\377"
	.string	""
	.string	""
	.string	"\377"
	.string	""
	.string	""
	.string	"\377"
	.string	""
	.string	""
	.string	"\377"
	.string	""
	.string	""
	.string	"\377"
	.string	""
	.string	""
	.string	"\377"
	.string	""
	.string	""
	.string	"\377"
	.string	""
	.string	""
	.string	"\377"
	.string	""
	.string	""
	.string	"\377"
	.string	""
	.string	""
	.string	"\377"
	.string	""
	.string	""
	.string	"\377"
	.string	""
	.string	""
	.string	"\377"
	.string	""
	.string	""
	.string	"\377"
	.string	""
	.string	""
	.string	"\377"
	.string	""
	.string	""
	.string	"\377"
	.string	""
	.string	""
	.string	"\377\340\260"
	.string	"\377\340\260"
	.string	"\377\340\260"
	.string	"\377\340\260"
	.string	"\377"
	.string	""
	.string	""
	.string	"\377"
	.string	""
	.string	""
	.string	"\377"
	.string	""
	.string	""
	.string	"\377"
	.string	""
	.string	""
	.string	"\377"
	.string	""
	.string	""
	.string	"\377"
	.string	""
	.string	""
	.string	"\377"
	.string	""
	.string	""
	.string	"\377"
	.string	""
	.string	""
	.string	"\377"
	.string	""
	.string	""
	.string	"\377"
	.string	""
	.string	""
	.string	"\377"
	.string	""
	.string	""
	.string	"\377"
	.string	""
	.string	""
	.string	"\377"
	.string	""
	.string	""
	.string	"\377"
	.string	""
	.string	""
	.string	"\377"
	.string	""
	.string	""
	.string	"\377"
	.string	""
	.string	""
	.string	"\377"
	.string	""
	.string	""
	.string	"\377"
	.string	""
	.string	""
	.string	"\377"
	.string	""
	.string	""
	.string	"\377"
	.string	""
	.string	""
	.string	"\377"
	.string	""
	.string	""
	.string	"\377"
	.string	""
	.string	""
	.string	"\377"
	.string	""
	.string	""
	.string	"\377"
	.string	""
	.string	""
	.string	"\377"
	.string	""
	.string	""
	.string	"\377"
	.string	""
	.string	""
	.string	"\377"
	.string	""
	.string	""
	.string	"\377"
	.string	""
	.string	""
	.string	"\377"
	.string	""
	.string	""
	.string	"\377"
	.string	""
	.string	""
	.string	"\377"
	.string	""
	.string	""
	.string	"\377"
	.string	""
	.string	""
	.string	"\377"
	.string	""
	.string	""
	.string	"\377"
	.string	""
	.string	""
	.string	"\377"
	.string	""
	.string	""
	.string	"\377"
	.string	""
	.string	""
	.string	"\377"
	.string	""
	.string	""
	.string	"\377"
	.string	""
	.string	""
	.string	"\377"
	.string	""
	.string	""
	.string	"\377"
	.string	""
	.string	""
	.string	"\377"
	.string	""
	.string	""
	.string	"\377"
	.string	""
	.string	""
	.string	"\377"
	.string	""
	.string	""
	.string	"\377"
	.string	""
	.string	""
	.string	"\377"
	.string	""
	.string	""
	.string	"\377"
	.string	""
	.string	""
	.string	"\377"
	.string	""
	.string	""
	.string	"\377"
	.string	""
	.string	""
	.string	"\377"
	.string	""
	.string	""
	.string	"\377"
	.string	""
	.string	""
	.string	"\377"
	.string	""
	.string	""
	.string	"\377"
	.string	""
	.string	""
	.string	"\377"
	.string	""
	.string	""
	.string	"\377"
	.string	""
	.string	""
	.string	"\377"
	.string	""
	.string	""
	.string	"\377"
	.string	""
	.string	""
	.string	"\377"
	.string	""
	.string	""
	.string	"\377"
	.string	""
	.string	""
	.string	"\377"
	.string	""
	.string	""
	.string	"\377"
	.string	""
	.string	""
	.string	"\377"
	.string	""
	.string	""
	.string	"\377"
	.string	""
	.string	""
	.string	"\377"
	.string	""
	.string	""
	.string	"\377"
	.string	""
	.string	""
	.string	"\377"
	.string	""
	.string	""
	.string	"\377"
	.string	""
	.string	""
	.string	"\377"
	.string	""
	.string	""
	.string	"\377"
	.string	""
	.string	""
	.string	"\377"
	.string	""
	.string	""
	.string	"\377"
	.string	""
	.string	""
	.string	"\377"
	.string	""
	.string	""
	.string	"\377"
	.string	""
	.string	""
	.string	"\377"
	.string	""
	.string	""
	.string	"\377"
	.string	""
	.string	""
	.string	"\377"
	.string	""
	.string	""
	.string	"\377"
	.string	""
	.string	""
	.string	"\377"
	.string	""
	.string	""
	.string	"\377"
	.string	""
	.string	""
	.string	"\377"
	.string	""
	.string	""
	.string	"\377"
	.string	""
	.string	""
	.string	"\377"
	.string	""
	.string	""
	.string	"\377"
	.string	""
	.string	""
	.string	"\377"
	.string	""
	.string	""
	.string	"\377"
	.string	""
	.string	""
	.string	"\377"
	.string	""
	.string	""
	.string	"\377"
	.string	""
	.string	""
	.string	"\377"
	.string	""
	.string	""
	.string	"\377"
	.string	""
	.string	""
	.string	"\377"
	.string	""
	.string	""
	.string	"\377"
	.string	""
	.string	""
	.string	"\377"
	.string	""
	.string	""
	.string	"\377"
	.string	""
	.string	""
	.string	"\377"
	.string	""
	.string	""
	.string	"\377"
	.string	""
	.string	""
	.string	"\377"
	.string	""
	.string	""
	.string	"\377"
	.string	""
	.string	""
	.string	"\377"
	.string	""
	.string	""
	.string	"\377"
	.string	""
	.string	""
	.string	"\377"
	.string	""
	.string	""
	.ascii	"\377"
	.string	""
	.string	""
	.string	""
	.string	"\377"
	.string	""
	.string	""
	.string	"\377"
	.string	""
	.string	""
	.string	"\377"
	.string	""
	.string	""
	.string	"\377"
	.string	""
	.string	""
	.string	"\377"
	.string	""
	.string	""
	.string	"\377"
	.string	""
	.string	""
	.string	"\377"
	.string	""
	.string	""
	.string	"\377"
	.string	""
	.string	""
	.string	"\377"
	.string	""
	.string	""
	.string	"\377"
	.string	""
	.string	""
	.string	"\377"
	.string	""
	.string	""
	.string	"\377"
	.string	""
	.string	""
	.string	"\377\340\260"
	.string	"\377\340\260"
	.string	"\377\340\260"
	.string	"\377\340\260"
	.string	"\377"
	.string	""
	.string	""
	.string	"\377"
	.string	""
	.string	""
	.string	"\377"
	.string	""
	.string	""
	.string	"\377"
	.string	""
	.string	""
	.string	"\377"
	.string	""
	.string	""
	.string	"\377"
	.string	""
	.string	""
	.string	"\377"
	.string	""
	.string	""
	.string	"\377"
	.string	""
	.string	""
	.string	"\377"
	.string	""
	.string	""
	.string	"\377"
	.string	""
	.string	""
	.string	"\377"
	.string	""
	.string	""
	.string	"\377"
	.string	""
	.string	""
	.string	"\377"
	.string	""
	.string	""
	.string	"\377\340\260"
	.string	"\377\340\260"
	.string	"\377\340\260"
	.string	"\377\340\260"
	.string	"\377"
	.string	""
	.string	""
	.string	"\377"
	.string	""
	.string	""
	.string	"\377"
	.string	""
	.string	""
	.string	"\377"
	.string	""
	.string	""
	.string	"\377"
	.string	""
	.string	""
	.string	"\377"
	.string	""
	.string	""
	.string	"\377"
	.string	""
	.string	""
	.string	"\377"
	.string	""
	.string	""
	.string	"\377"
	.string	""
	.string	""
	.string	"\377"
	.string	""
	.string	""
	.string	"\377"
	.string	""
	.string	""
	.string	"\377"
	.string	""
	.string	""
	.string	"\377"
	.string	""
	.string	""
	.string	"\377"
	.string	""
	.string	""
	.string	"\377"
	.string	""
	.string	""
	.string	"\377"
	.string	""
	.string	""
	.string	"\377"
	.string	""
	.string	""
	.string	"\377"
	.string	""
	.string	""
	.string	"\377"
	.string	""
	.string	""
	.string	"\377"
	.string	""
	.string	""
	.string	"\377"
	.string	""
	.string	""
	.string	"\377"
	.string	""
	.string	""
	.string	"\377"
	.string	""
	.string	""
	.string	"\377"
	.string	""
	.string	""
	.string	"\377"
	.string	""
	.string	""
	.string	"\377"
	.string	""
	.string	""
	.string	"\377"
	.string	""
	.string	""
	.string	"\377"
	.string	""
	.string	""
	.string	"\377"
	.string	""
	.string	""
	.string	"\377"
	.string	""
	.string	""
	.string	"\377"
	.string	""
	.string	""
	.string	"\377"
	.string	""
	.string	""
	.string	"\377"
	.string	""
	.string	""
	.string	"\377"
	.string	""
	.string	""
	.string	"\377"
	.string	""
	.string	""
	.string	"\377"
	.string	""
	.string	""
	.string	"\377"
	.string	""
	.string	""
	.string	"\377"
	.string	""
	.string	""
	.string	"\377"
	.string	""
	.string	""
	.string	"\377"
	.string	""
	.string	""
	.string	"\377"
	.string	""
	.string	""
	.string	"\377"
	.string	""
	.string	""
	.string	"\377"
	.string	""
	.string	""
	.string	"\377"
	.string	""
	.string	""
	.string	"\377"
	.string	""
	.string	""
	.string	"\377"
	.string	""
	.string	""
	.string	"\377"
	.string	""
	.string	""
	.string	"\377"
	.string	""
	.string	""
	.string	"\377"
	.string	""
	.string	""
	.string	"\377"
	.string	""
	.string	""
	.string	"\377"
	.string	""
	.string	""
	.string	"\377"
	.string	""
	.string	""
	.string	"\377"
	.string	""
	.string	""
	.string	"\377"
	.string	""
	.string	""
	.string	"\377\340\260"
	.string	"\377\340\260"
	.string	"\377\340\260"
	.string	"\377\340\260"
	.string	"\377\340\260"
	.string	"\377\340\260"
	.string	"\377\340\260"
	.string	"\377\340\260"
	.string	"\377\340\260"
	.string	"\377\340\260"
	.string	"\377\340\260"
	.string	"\377\340\260"
	.string	"\377\340\260"
	.string	"\377\340\260"
	.string	"\377\340\260"
	.string	"\377"
	.string	""
	.string	""
	.string	"\377"
	.string	""
	.string	""
	.string	"\377"
	.string	""
	.string	""
	.string	"\377"
	.string	""
	.string	""
	.string	"\377"
	.string	""
	.string	""
	.string	"\377"
	.string	""
	.string	""
	.string	"\377"
	.string	""
	.string	""
	.string	"\377"
	.string	""
	.string	""
	.string	"\377"
	.string	""
	.string	""
	.string	"\377"
	.string	""
	.string	""
	.string	"\377"
	.string	""
	.string	""
	.string	"\377"
	.string	""
	.string	""
	.string	"\377"
	.string	""
	.string	""
	.string	"\377"
	.string	""
	.string	""
	.string	"\377"
	.string	""
	.string	""
	.string	"\377"
	.string	""
	.string	""
	.string	"\377"
	.string	""
	.string	""
	.string	"\377"
	.string	""
	.string	""
	.string	"\377"
	.string	""
	.string	""
	.string	"\377"
	.string	""
	.string	""
	.string	"\377"
	.string	""
	.string	""
	.string	"\377"
	.string	""
	.string	""
	.string	"\377"
	.string	""
	.string	""
	.string	"\377"
	.string	""
	.string	""
	.string	"\377"
	.string	""
	.string	""
	.string	"\377"
	.string	""
	.string	""
	.string	"\377"
	.string	""
	.string	""
	.string	"\377"
	.string	""
	.string	""
	.string	"\377"
	.string	""
	.string	""
	.string	"\377"
	.string	""
	.string	""
	.string	"\377"
	.string	""
	.string	""
	.string	"\377"
	.string	""
	.string	""
	.string	"\377"
	.string	""
	.string	""
	.string	"\377\340\260"
	.string	"\377\340\260"
	.string	"\377\340\260"
	.string	"\377\340\260"
	.string	"\377\340\260"
	.string	"\377\340\260"
	.string	"\377\340\260"
	.string	"\377\340\260"
	.string	"\377"
	.string	""
	.string	""
	.string	"\377"
	.string	""
	.string	""
	.string	"\377"
	.string	""
	.string	""
	.string	"\377\340\260"
	.string	"\377\340\260"
	.string	"\377\340\260"
	.string	"\377\340\260"
	.string	"\377"
	.string	""
	.string	""
	.string	"\377"
	.string	""
	.string	""
	.string	"\377"
	.string	""
	.string	""
	.string	"\377"
	.string	""
	.string	""
	.string	"\377\340\260"
	.string	"\377\340\260"
	.string	"\377\340\260"
	.string	"\377\340\260"
	.string	"\377"
	.string	""
	.string	""
	.string	"\377"
	.string	""
	.string	""
	.string	"\377"
	.string	""
	.string	""
	.string	"\377"
	.string	""
	.string	""
	.string	"\377"
	.string	""
	.string	""
	.string	"\377"
	.string	""
	.string	""
	.string	"\377"
	.string	""
	.string	""
	.string	"\377"
	.string	""
	.string	""
	.string	"\377"
	.string	""
	.string	""
	.string	"\377"
	.string	""
	.string	""
	.string	"\377\340\260"
	.string	"\377\340\260"
	.string	"\377\340\260"
	.string	"\377\340\260"
	.string	"\377\340\260"
	.string	"\377\340\260"
	.string	"\377\340\260"
	.string	"\377\340\260"
	.string	"\377\340\260"
	.string	"\377\340\260"
	.string	"\377"
	.string	""
	.string	""
	.string	"\377"
	.string	""
	.string	""
	.string	"\377"
	.string	""
	.string	""
	.string	"\377"
	.string	""
	.string	""
	.string	"\377"
	.string	""
	.string	""
	.string	"\377"
	.string	""
	.string	""
	.string	"\377"
	.string	""
	.string	""
	.string	"\377"
	.string	""
	.string	""
	.string	"\377"
	.string	""
	.string	""
	.string	"\377"
	.string	""
	.string	""
	.string	"\377"
	.string	""
	.string	""
	.string	"\377\340\260"
	.string	"\377\340\260"
	.string	"\377\340\260"
	.string	"\377\340\260"
	.string	"\377\340\260"
	.string	"\377\340\260"
	.string	"\377\340\260"
	.string	"\377\340\260"
	.string	"\377\340\260"
	.string	"\377"
	.string	""
	.string	""
	.string	"\377"
	.string	""
	.string	""
	.string	"\377"
	.string	""
	.string	""
	.string	"\377"
	.string	""
	.string	""
	.string	"\377"
	.string	""
	.string	""
	.string	"\377"
	.string	""
	.string	""
	.string	"\377"
	.string	""
	.string	""
	.string	"\377"
	.string	""
	.string	""
	.string	"\377"
	.string	""
	.string	""
	.string	"\377"
	.string	""
	.string	""
	.string	"\377"
	.string	""
	.string	""
	.string	"\377"
	.string	""
	.string	""
	.string	"\377"
	.string	""
	.string	""
	.string	"\377"
	.string	""
	.string	""
	.string	"\377"
	.string	""
	.string	""
	.string	"\377"
	.string	""
	.string	""
	.string	"\377"
	.string	""
	.string	""
	.string	"\377"
	.string	""
	.string	""
	.string	"\377\340\260"
	.string	"\377\340\260"
	.string	"\377\340\260"
	.string	"\377\340\260"
	.string	"\377"
	.string	""
	.string	""
	.string	"\377"
	.string	""
	.string	""
	.string	"\377"
	.string	""
	.string	""
	.string	"\377"
	.string	""
	.string	""
	.string	"\377"
	.string	""
	.string	""
	.string	"\377"
	.string	""
	.string	""
	.string	"\377"
	.string	""
	.string	""
	.string	"\377"
	.string	""
	.string	""
	.string	"\377"
	.string	""
	.string	""
	.string	"\377"
	.string	""
	.string	""
	.string	"\377"
	.string	""
	.string	""
	.string	"\377"
	.string	""
	.string	""
	.string	"\377"
	.string	""
	.string	""
	.string	"\377"
	.string	""
	.string	""
	.string	"\377"
	.string	""
	.string	""
	.string	"\377"
	.string	""
	.string	""
	.string	"\377"
	.string	""
	.string	""
	.string	"\377"
	.string	""
	.string	""
	.string	"\377"
	.string	""
	.string	""
	.string	"\377"
	.string	""
	.string	""
	.string	"\377"
	.string	""
	.string	""
	.string	"\377"
	.string	""
	.string	""
	.string	"\377"
	.string	""
	.string	""
	.string	"\377"
	.string	""
	.string	""
	.string	"\377"
	.string	""
	.string	""
	.string	"\377"
	.string	""
	.string	""
	.string	"\377"
	.string	""
	.string	""
	.string	"\377"
	.string	""
	.string	""
	.string	"\377"
	.string	""
	.string	""
	.string	"\377"
	.string	""
	.string	""
	.string	"\377"
	.string	""
	.string	""
	.string	"\377"
	.string	""
	.string	""
	.string	"\377"
	.string	""
	.string	""
	.string	"\377"
	.string	""
	.string	""
	.string	"\377"
	.string	""
	.string	""
	.string	"\377"
	.string	""
	.string	""
	.string	"\377"
	.string	""
	.string	""
	.string	"\377"
	.string	""
	.string	""
	.string	"\377"
	.string	""
	.string	""
	.string	"\377"
	.string	""
	.string	""
	.string	"\377"
	.string	""
	.string	""
	.string	"\377"
	.string	""
	.string	""
	.string	"\377"
	.string	""
	.string	""
	.string	"\377"
	.string	""
	.string	""
	.string	"\377"
	.string	""
	.string	""
	.string	"\377"
	.string	""
	.string	""
	.string	"\377"
	.string	""
	.string	""
	.string	"\377"
	.string	""
	.string	""
	.string	"\377"
	.string	""
	.string	""
	.string	"\377"
	.string	""
	.string	""
	.string	"\377"
	.string	""
	.string	""
	.string	"\377"
	.string	""
	.string	""
	.string	"\377"
	.string	""
	.string	""
	.string	"\377"
	.string	""
	.string	""
	.string	"\377"
	.string	""
	.string	""
	.string	"\377"
	.string	""
	.string	""
	.string	"\377"
	.string	""
	.string	""
	.string	"\377"
	.string	""
	.string	""
	.string	"\377"
	.string	""
	.string	""
	.string	"\377"
	.string	""
	.string	""
	.string	"\377"
	.string	""
	.string	""
	.string	"\377"
	.string	""
	.string	""
	.string	"\377"
	.string	""
	.string	""
	.string	"\377"
	.string	""
	.string	""
	.string	"\377"
	.string	""
	.string	""
	.string	"\377"
	.string	""
	.string	""
	.string	"\377"
	.string	""
	.string	""
	.string	"\377"
	.string	""
	.string	""
	.string	"\377"
	.string	""
	.string	""
	.string	"\377"
	.string	""
	.string	""
	.string	"\377"
	.string	""
	.string	""
	.string	"\377"
	.string	""
	.string	""
	.string	"\377"
	.string	""
	.string	""
	.string	"\377"
	.string	""
	.string	""
	.string	"\377"
	.string	""
	.string	""
	.string	"\377"
	.string	""
	.string	""
	.string	"\377"
	.string	""
	.string	""
	.string	"\377"
	.string	""
	.string	""
	.string	"\377"
	.string	""
	.string	""
	.string	"\377"
	.string	""
	.string	""
	.string	"\377"
	.string	""
	.string	""
	.string	"\377"
	.string	""
	.string	""
	.string	"\377"
	.string	""
	.string	""
	.string	"\377"
	.string	""
	.string	""
	.string	"\377"
	.string	""
	.string	""
	.string	"\377"
	.string	""
	.string	""
	.string	"\377"
	.string	""
	.string	""
	.string	"\377"
	.string	""
	.string	""
	.string	"\377"
	.string	""
	.string	""
	.string	"\377"
	.string	""
	.string	""
	.string	"\377"
	.string	""
	.string	""
	.string	"\377"
	.string	""
	.string	""
	.string	"\377"
	.string	""
	.string	""
	.string	"\377"
	.string	""
	.string	""
	.string	"\377"
	.string	""
	.string	""
	.string	"\377"
	.string	""
	.string	""
	.string	"\377"
	.string	""
	.string	""
	.string	"\377"
	.string	""
	.string	""
	.string	"\377"
	.string	""
	.string	""
	.string	"\377"
	.string	""
	.string	""
	.string	"\377"
	.string	""
	.string	""
	.string	"\377"
	.string	""
	.string	""
	.string	"\377"
	.string	""
	.string	""
	.string	"\377"
	.string	""
	.string	""
	.string	"\377"
	.string	""
	.string	""
	.string	"\377"
	.string	""
	.string	""
	.string	"\377"
	.string	""
	.string	""
	.string	"\377"
	.string	""
	.string	""
	.string	"\377"
	.string	""
	.string	""
	.string	"\377"
	.string	""
	.string	""
	.string	"\377"
	.string	""
	.string	""
	.string	"\377"
	.string	""
	.string	""
	.string	"\377\340\260"
	.string	"\377\340\260"
	.string	"\377\340\260"
	.string	"\377\340\260"
	.string	"\377"
	.string	""
	.string	""
	.string	"\377"
	.string	""
	.string	""
	.string	"\377"
	.string	""
	.string	""
	.string	"\377"
	.string	""
	.string	""
	.string	"\377"
	.string	""
	.string	""
	.string	"\377"
	.string	""
	.string	""
	.string	"\377"
	.string	""
	.string	""
	.string	"\377"
	.string	""
	.string	""
	.string	"\377"
	.string	""
	.string	""
	.string	"\377"
	.string	""
	.string	""
	.string	"\377"
	.string	""
	.string	""
	.string	"\377"
	.string	""
	.string	""
	.string	"\377"
	.string	""
	.string	""
	.string	"\377\340\260"
	.string	"\377\340\260"
	.string	"\377\340\260"
	.string	"\377\340\260"
	.string	"\377"
	.string	""
	.string	""
	.string	"\377"
	.string	""
	.string	""
	.string	"\377"
	.string	""
	.string	""
	.string	"\377"
	.string	""
	.string	""
	.string	"\377"
	.string	""
	.string	""
	.string	"\377"
	.string	""
	.string	""
	.string	"\377"
	.string	""
	.string	""
	.string	"\377"
	.string	""
	.string	""
	.string	"\377"
	.string	""
	.string	""
	.string	"\377"
	.string	""
	.string	""
	.string	"\377"
	.string	""
	.string	""
	.string	"\377"
	.string	""
	.string	""
	.string	"\377"
	.string	""
	.string	""
	.string	"\377"
	.string	""
	.string	""
	.string	"\377"
	.string	""
	.string	""
	.string	"\377"
	.string	""
	.string	""
	.string	"\377"
	.string	""
	.string	""
	.string	"\377"
	.string	""
	.string	""
	.string	"\377"
	.string	""
	.string	""
	.string	"\377"
	.string	""
	.string	""
	.string	"\377"
	.string	""
	.string	""
	.string	"\377"
	.string	""
	.string	""
	.string	"\377"
	.string	""
	.string	""
	.string	"\377"
	.string	""
	.string	""
	.string	"\377"
	.string	""
	.string	""
	.string	"\377"
	.string	""
	.string	""
	.string	"\377"
	.string	""
	.string	""
	.string	"\377"
	.string	""
	.string	""
	.string	"\377"
	.string	""
	.string	""
	.string	"\377"
	.string	""
	.string	""
	.string	"\377"
	.string	""
	.string	""
	.string	"\377"
	.string	""
	.string	""
	.string	"\377"
	.string	""
	.string	""
	.string	"\377"
	.string	""
	.string	""
	.string	"\377"
	.string	""
	.string	""
	.string	"\377"
	.string	""
	.string	""
	.string	"\377"
	.string	""
	.string	""
	.string	"\377"
	.string	""
	.string	""
	.string	"\377\340\260"
	.string	"\377\340\260"
	.string	"\377\340\260"
	.string	"\377\340\260"
	.string	"\377"
	.string	""
	.string	""
	.string	"\377"
	.string	""
	.string	""
	.string	"\377"
	.string	""
	.string	""
	.string	"\377"
	.string	""
	.string	""
	.string	"\377"
	.string	""
	.string	""
	.string	"\377"
	.string	""
	.string	""
	.string	"\377"
	.string	""
	.string	""
	.string	"\377"
	.string	""
	.string	""
	.string	"\377"
	.string	""
	.string	""
	.string	"\377"
	.string	""
	.string	""
	.string	"\377"
	.string	""
	.string	""
	.string	"\377"
	.string	""
	.string	""
	.string	"\377"
	.string	""
	.string	""
	.string	"\377"
	.string	""
	.string	""
	.string	"\377"
	.string	""
	.string	""
	.string	"\377"
	.string	""
	.string	""
	.string	"\377"
	.string	""
	.string	""
	.string	"\377"
	.string	""
	.string	""
	.string	"\377"
	.string	""
	.string	""
	.string	"\377"
	.string	""
	.string	""
	.string	"\377"
	.string	""
	.string	""
	.string	"\377"
	.string	""
	.string	""
	.string	"\377"
	.string	""
	.string	""
	.string	"\377"
	.string	""
	.string	""
	.string	"\377"
	.string	""
	.string	""
	.string	"\377"
	.string	""
	.string	""
	.string	"\377"
	.string	""
	.string	""
	.string	"\377"
	.string	""
	.string	""
	.string	"\377"
	.string	""
	.string	""
	.string	"\377"
	.string	""
	.string	""
	.string	"\377"
	.string	""
	.string	""
	.string	"\377"
	.string	""
	.string	""
	.string	"\377"
	.string	""
	.string	""
	.string	"\377"
	.string	""
	.string	""
	.string	"\377"
	.string	""
	.string	""
	.string	"\377"
	.string	""
	.string	""
	.string	"\377"
	.string	""
	.string	""
	.string	"\377"
	.string	""
	.string	""
	.string	"\377"
	.string	""
	.string	""
	.string	"\377"
	.string	""
	.string	""
	.string	"\377"
	.string	""
	.string	""
	.string	"\377"
	.string	""
	.string	""
	.string	"\377"
	.string	""
	.string	""
	.string	"\377"
	.string	""
	.string	""
	.string	"\377"
	.string	""
	.string	""
	.string	"\377"
	.string	""
	.string	""
	.string	"\377"
	.string	""
	.string	""
	.string	"\377"
	.string	""
	.string	""
	.string	"\377"
	.string	""
	.string	""
	.string	"\377"
	.string	""
	.string	""
	.string	"\377"
	.string	""
	.string	""
	.string	"\377"
	.string	""
	.string	""
	.string	"\377"
	.string	""
	.string	""
	.string	"\377"
	.string	""
	.string	""
	.string	"\377"
	.string	""
	.string	""
	.string	"\377"
	.string	""
	.string	""
	.string	"\377"
	.string	""
	.string	""
	.string	"\377"
	.string	""
	.string	""
	.string	"\377"
	.string	""
	.string	""
	.string	"\377"
	.string	""
	.string	""
	.string	"\377\340\260"
	.string	"\377\340\260"
	.string	"\377\340\260"
	.string	"\377\340\260"
	.string	"\377\340\260"
	.string	"\377\340\260"
	.string	"\377\340\260"
	.string	"\377"
	.string	""
	.string	""
	.string	"\377"
	.string	""
	.string	""
	.string	"\377"
	.string	""
	.string	""
	.string	"\377"
	.string	""
	.string	""
	.string	"\377\340\260"
	.string	"\377\340\260"
	.string	"\377\340\260"
	.string	"\377\340\260"
	.string	"\377"
	.string	""
	.string	""
	.string	"\377"
	.string	""
	.string	""
	.string	"\377"
	.string	""
	.string	""
	.string	"\377"
	.string	""
	.string	""
	.string	"\377\340\260"
	.string	"\377\340\260"
	.string	"\377\340\260"
	.string	"\377\340\260"
	.string	"\377"
	.string	""
	.string	""
	.string	"\377"
	.string	""
	.string	""
	.string	"\377"
	.string	""
	.string	""
	.string	"\377"
	.string	""
	.string	""
	.string	"\377"
	.string	""
	.string	""
	.string	"\377"
	.string	""
	.string	""
	.string	"\377"
	.string	""
	.string	""
	.string	"\377"
	.string	""
	.string	""
	.string	"\377"
	.string	""
	.string	""
	.string	"\377\340\260"
	.string	"\377\340\260"
	.string	"\377\340\260"
	.string	"\377\340\260"
	.string	"\377\340\260"
	.string	"\377"
	.string	""
	.string	""
	.string	"\377"
	.string	""
	.string	""
	.string	"\377"
	.string	""
	.string	""
	.string	"\377"
	.string	""
	.string	""
	.string	"\377"
	.string	""
	.string	""
	.string	"\377"
	.string	""
	.string	""
	.string	"\377"
	.string	""
	.string	""
	.ascii	"\377"
	.string	""
	.string	""
	.string	""
	.string	"\377"
	.string	""
	.string	""
	.string	"\377"
	.string	""
	.string	""
	.string	"\377"
	.string	""
	.string	""
	.string	"\377"
	.string	""
	.string	""
	.string	"\377"
	.string	""
	.string	""
	.string	"\377"
	.string	""
	.string	""
	.string	"\377"
	.string	""
	.string	""
	.string	"\377"
	.string	""
	.string	""
	.string	"\377"
	.string	""
	.string	""
	.string	"\377"
	.string	""
	.string	""
	.string	"\377"
	.string	""
	.string	""
	.string	"\377"
	.string	""
	.string	""
	.string	"\377"
	.string	""
	.string	""
	.string	"\377"
	.string	""
	.string	""
	.string	"\377\340\260"
	.string	"\377\340\260"
	.string	"\377\340\260"
	.string	"\377\340\260"
	.string	"\377"
	.string	""
	.string	""
	.string	"\377"
	.string	""
	.string	""
	.string	"\377"
	.string	""
	.string	""
	.string	"\377"
	.string	""
	.string	""
	.string	"\377"
	.string	""
	.string	""
	.string	"\377"
	.string	""
	.string	""
	.string	"\377"
	.string	""
	.string	""
	.string	"\377"
	.string	""
	.string	""
	.string	"\377"
	.string	""
	.string	""
	.string	"\377"
	.string	""
	.string	""
	.string	"\377"
	.string	""
	.string	""
	.string	"\377"
	.string	""
	.string	""
	.string	"\377"
	.string	""
	.string	""
	.string	"\377"
	.string	""
	.string	""
	.string	"\377"
	.string	""
	.string	""
	.string	"\377"
	.string	""
	.string	""
	.string	"\377"
	.string	""
	.string	""
	.string	"\377"
	.string	""
	.string	""
	.string	"\377"
	.string	""
	.string	""
	.string	"\377"
	.string	""
	.string	""
	.string	"\377"
	.string	""
	.string	""
	.string	"\377"
	.string	""
	.string	""
	.string	"\377"
	.string	""
	.string	""
	.string	"\377"
	.string	""
	.string	""
	.string	"\377"
	.string	""
	.string	""
	.string	"\377"
	.string	""
	.string	""
	.string	"\377"
	.string	""
	.string	""
	.string	"\377"
	.string	""
	.string	""
	.string	"\377"
	.string	""
	.string	""
	.string	"\377"
	.string	""
	.string	""
	.string	"\377"
	.string	""
	.string	""
	.string	"\377"
	.string	""
	.string	""
	.string	"\377"
	.string	""
	.string	""
	.string	"\377"
	.string	""
	.string	""
	.string	"\377"
	.string	""
	.string	""
	.string	"\377"
	.string	""
	.string	""
	.string	"\377"
	.string	""
	.string	""
	.string	"\377"
	.string	""
	.string	""
	.string	"\377"
	.string	""
	.string	""
	.string	"\377"
	.string	""
	.string	""
	.string	"\377"
	.string	""
	.string	""
	.string	"\377"
	.string	""
	.string	""
	.string	"\377"
	.string	""
	.string	""
	.string	"\377"
	.string	""
	.string	""
	.string	"\377"
	.string	""
	.string	""
	.string	"\377"
	.string	""
	.string	""
	.string	"\377"
	.string	""
	.string	""
	.string	"\377"
	.string	""
	.string	""
	.string	"\377"
	.string	""
	.string	""
	.string	"\377"
	.string	""
	.string	""
	.string	"\377"
	.string	""
	.string	""
	.string	"\377"
	.string	""
	.string	""
	.string	"\377"
	.string	""
	.string	""
	.string	"\377"
	.string	""
	.string	""
	.string	"\377"
	.string	""
	.string	""
	.string	"\377"
	.string	""
	.string	""
	.string	"\377"
	.string	""
	.string	""
	.string	"\377"
	.string	""
	.string	""
	.string	"\377"
	.string	""
	.string	""
	.string	"\377"
	.string	""
	.string	""
	.string	"\377"
	.string	""
	.string	""
	.string	"\377"
	.string	""
	.string	""
	.string	"\377"
	.string	""
	.string	""
	.string	"\377"
	.string	""
	.string	""
	.string	"\377"
	.string	""
	.string	""
	.string	"\377"
	.string	""
	.string	""
	.string	"\377"
	.string	""
	.string	""
	.string	"\377"
	.string	""
	.string	""
	.string	"\377"
	.string	""
	.string	""
	.string	"\377"
	.string	""
	.string	""
	.string	"\377"
	.string	""
	.string	""
	.string	"\377"
	.string	""
	.string	""
	.string	"\377"
	.string	""
	.string	""
	.string	"\377"
	.string	""
	.string	""
	.string	"\377"
	.string	""
	.string	""
	.string	"\377"
	.string	""
	.string	""
	.string	"\377"
	.string	""
	.string	""
	.string	"\377"
	.string	""
	.string	""
	.string	"\377"
	.string	""
	.string	""
	.string	"\377"
	.string	""
	.string	""
	.string	"\377"
	.string	""
	.string	""
	.string	"\377"
	.string	""
	.string	""
	.string	"\377"
	.string	""
	.string	""
	.string	"\377"
	.string	""
	.string	""
	.string	"\377"
	.string	""
	.string	""
	.string	"\377"
	.string	""
	.string	""
	.string	"\377"
	.string	""
	.string	""
	.string	"\377"
	.string	""
	.string	""
	.string	"\377"
	.string	""
	.string	""
	.string	"\377"
	.string	""
	.string	""
	.string	"\377"
	.string	""
	.string	""
	.string	"\377"
	.string	""
	.string	""
	.string	"\377"
	.string	""
	.string	""
	.string	"\377"
	.string	""
	.string	""
	.string	"\377"
	.string	""
	.string	""
	.string	"\377"
	.string	""
	.string	""
	.string	"\377"
	.string	""
	.string	""
	.string	"\377"
	.string	""
	.string	""
	.string	"\377"
	.string	""
	.string	""
	.string	"\377"
	.string	""
	.string	""
	.string	"\377"
	.string	""
	.string	""
	.string	"\377"
	.string	""
	.string	""
	.string	"\377"
	.string	""
	.string	""
	.string	"\377"
	.string	""
	.string	""
	.string	"\377"
	.string	""
	.string	""
	.string	"\377"
	.string	""
	.string	""
	.string	"\377"
	.string	""
	.string	""
	.string	"\377"
	.string	""
	.string	""
	.string	"\377"
	.string	""
	.string	""
	.string	"\377"
	.string	""
	.string	""
	.string	"\377"
	.string	""
	.string	""
	.string	"\377"
	.string	""
	.string	""
	.string	"\377"
	.string	""
	.string	""
	.string	"\377"
	.string	""
	.string	""
	.string	"\377"
	.string	""
	.string	""
	.string	"\377"
	.string	""
	.string	""
	.string	"\377"
	.string	""
	.string	""
	.string	"\377"
	.string	""
	.string	""
	.string	"\377"
	.string	""
	.string	""
	.string	"\377"
	.string	""
	.string	""
	.string	"\377"
	.string	""
	.string	""
	.string	"\377"
	.string	""
	.string	""
	.string	"\377"
	.string	""
	.string	""
	.string	"\377"
	.string	""
	.string	""
	.string	"\377"
	.string	""
	.string	""
	.string	"\377"
	.string	""
	.string	""
	.string	"\377"
	.string	""
	.string	""
	.string	"\377"
	.string	""
	.string	""
	.string	"\377"
	.string	""
	.string	""
	.string	"\377"
	.string	""
	.string	""
	.string	"\377"
	.string	""
	.string	""
	.string	"\377"
	.string	""
	.string	""
	.string	"\377"
	.string	""
	.string	""
	.string	"\377"
	.string	""
	.string	""
	.string	"\377\340\260"
	.string	"\377\340\260"
	.string	"\377\340\260"
	.string	"\377\340\260"
	.string	"\377\340\260"
	.string	"\377"
	.string	""
	.string	""
	.string	"\377"
	.string	""
	.string	""
	.string	"\377"
	.string	""
	.string	""
	.string	"\377"
	.string	""
	.string	""
	.string	"\377"
	.string	""
	.string	""
	.string	"\377"
	.string	""
	.string	""
	.string	"\377"
	.string	""
	.string	""
	.string	"\377"
	.string	""
	.string	""
	.string	"\377"
	.string	""
	.string	""
	.string	"\377"
	.string	""
	.string	""
	.string	"\377"
	.string	""
	.string	""
	.string	"\377\340\260"
	.string	"\377\340\260"
	.string	"\377\340\260"
	.string	"\377\340\260"
	.string	"\377\340\260"
	.string	"\377"
	.string	""
	.string	""
	.string	"\377"
	.string	""
	.string	""
	.string	"\377"
	.string	""
	.string	""
	.string	"\377"
	.string	""
	.string	""
	.string	"\377"
	.string	""
	.string	""
	.string	"\377"
	.string	""
	.string	""
	.string	"\377"
	.string	""
	.string	""
	.string	"\377"
	.string	""
	.string	""
	.string	"\377"
	.string	""
	.string	""
	.string	"\377"
	.string	""
	.string	""
	.string	"\377"
	.string	""
	.string	""
	.string	"\377"
	.string	""
	.string	""
	.string	"\377"
	.string	""
	.string	""
	.string	"\377"
	.string	""
	.string	""
	.string	"\377"
	.string	""
	.string	""
	.string	"\377"
	.string	""
	.string	""
	.string	"\377"
	.string	""
	.string	""
	.string	"\377"
	.string	""
	.string	""
	.string	"\377"
	.string	""
	.string	""
	.string	"\377"
	.string	""
	.string	""
	.string	"\377"
	.string	""
	.string	""
	.string	"\377"
	.string	""
	.string	""
	.string	"\377"
	.string	""
	.string	""
	.string	"\377"
	.string	""
	.string	""
	.string	"\377"
	.string	""
	.string	""
	.string	"\377"
	.string	""
	.string	""
	.string	"\377"
	.string	""
	.string	""
	.string	"\377"
	.string	""
	.string	""
	.string	"\377"
	.string	""
	.string	""
	.string	"\377"
	.string	""
	.string	""
	.string	"\377"
	.string	""
	.string	""
	.string	"\377"
	.string	""
	.string	""
	.string	"\377"
	.string	""
	.string	""
	.string	"\377"
	.string	""
	.string	""
	.string	"\377"
	.string	""
	.string	""
	.string	"\377"
	.string	""
	.string	""
	.string	"\377"
	.string	""
	.string	""
	.string	"\377"
	.string	""
	.string	""
	.string	"\377\340\260"
	.string	"\377\340\260"
	.string	"\377\340\260"
	.string	"\377\340\260"
	.string	"\377"
	.string	""
	.string	""
	.string	"\377"
	.string	""
	.string	""
	.string	"\377"
	.string	""
	.string	""
	.string	"\377"
	.string	""
	.string	""
	.string	"\377"
	.string	""
	.string	""
	.string	"\377"
	.string	""
	.string	""
	.string	"\377"
	.string	""
	.string	""
	.string	"\377"
	.string	""
	.string	""
	.string	"\377"
	.string	""
	.string	""
	.string	"\377"
	.string	""
	.string	""
	.string	"\377"
	.string	""
	.string	""
	.string	"\377"
	.string	""
	.string	""
	.string	"\377"
	.string	""
	.string	""
	.string	"\377"
	.string	""
	.string	""
	.string	"\377"
	.string	""
	.string	""
	.string	"\377"
	.string	""
	.string	""
	.string	"\377"
	.string	""
	.string	""
	.string	"\377"
	.string	""
	.string	""
	.string	"\377"
	.string	""
	.string	""
	.string	"\377"
	.string	""
	.string	""
	.string	"\377"
	.string	""
	.string	""
	.string	"\377"
	.string	""
	.string	""
	.string	"\377"
	.string	""
	.string	""
	.string	"\377"
	.string	""
	.string	""
	.string	"\377"
	.string	""
	.string	""
	.string	"\377"
	.string	""
	.string	""
	.string	"\377"
	.string	""
	.string	""
	.string	"\377"
	.string	""
	.string	""
	.string	"\377"
	.string	""
	.string	""
	.string	"\377"
	.string	""
	.string	""
	.string	"\377"
	.string	""
	.string	""
	.string	"\377"
	.string	""
	.string	""
	.string	"\377"
	.string	""
	.string	""
	.string	"\377"
	.string	""
	.string	""
	.string	"\377"
	.string	""
	.string	""
	.string	"\377"
	.string	""
	.string	""
	.string	"\377"
	.string	""
	.string	""
	.string	"\377"
	.string	""
	.string	""
	.string	"\377"
	.string	""
	.string	""
	.string	"\377"
	.string	""
	.string	""
	.string	"\377"
	.string	""
	.string	""
	.string	"\377"
	.string	""
	.string	""
	.string	"\377"
	.string	""
	.string	""
	.string	"\377"
	.string	""
	.string	""
	.string	"\377"
	.string	""
	.string	""
	.string	"\377"
	.string	""
	.string	""
	.string	"\377"
	.string	""
	.string	""
	.string	"\377"
	.string	""
	.string	""
	.string	"\377"
	.string	""
	.string	""
	.string	"\377"
	.string	""
	.string	""
	.string	"\377"
	.string	""
	.string	""
	.string	"\377"
	.string	""
	.string	""
	.string	"\377"
	.string	""
	.string	""
	.string	"\377"
	.string	""
	.string	""
	.string	"\377"
	.string	""
	.string	""
	.string	"\377"
	.string	""
	.string	""
	.string	"\377"
	.string	""
	.string	""
	.string	"\377"
	.string	""
	.string	""
	.string	"\377"
	.string	""
	.string	""
	.string	"\377"
	.string	""
	.string	""
	.string	"\377\340\260"
	.string	"\377\340\260"
	.string	"\377\340\260"
	.string	"\377\340\260"
	.string	"\377\340\260"
	.string	"\377\340\260"
	.string	"\377"
	.string	""
	.string	""
	.string	"\377"
	.string	""
	.string	""
	.string	"\377"
	.string	""
	.string	""
	.string	"\377"
	.string	""
	.string	""
	.string	"\377\340\260"
	.string	"\377\340\260"
	.string	"\377\340\260"
	.string	"\377\340\260"
	.string	"\377\340\260"
	.string	"\377"
	.string	""
	.string	""
	.string	"\377"
	.string	""
	.string	""
	.string	"\377"
	.string	""
	.string	""
	.string	"\377"
	.string	""
	.string	""
	.string	"\377\340\260"
	.string	"\377\340\260"
	.string	"\377\340\260"
	.string	"\377\340\260"
	.string	"\377"
	.string	""
	.string	""
	.string	"\377"
	.string	""
	.string	""
	.string	"\377"
	.string	""
	.string	""
	.string	"\377"
	.string	""
	.string	""
	.string	"\377"
	.string	""
	.string	""
	.string	"\377"
	.string	""
	.string	""
	.string	"\377"
	.string	""
	.string	""
	.string	"\377"
	.string	""
	.string	""
	.string	"\377"
	.string	""
	.string	""
	.string	"\377\340\260"
	.string	"\377\340\260"
	.string	"\377\340\260"
	.string	"\377\340\260"
	.string	"\377"
	.string	""
	.string	""
	.string	"\377"
	.string	""
	.string	""
	.string	"\377"
	.string	""
	.string	""
	.string	"\377"
	.string	""
	.string	""
	.string	"\377"
	.string	""
	.string	""
	.string	"\377"
	.string	""
	.string	""
	.string	"\377"
	.string	""
	.string	""
	.string	"\377"
	.string	""
	.string	""
	.string	"\377"
	.string	""
	.string	""
	.string	"\377"
	.string	""
	.string	""
	.string	"\377"
	.string	""
	.string	""
	.string	"\377"
	.string	""
	.string	""
	.string	"\377"
	.string	""
	.string	""
	.string	"\377"
	.string	""
	.string	""
	.string	"\377"
	.string	""
	.string	""
	.string	"\377"
	.string	""
	.string	""
	.string	"\377"
	.string	""
	.string	""
	.string	"\377"
	.string	""
	.string	""
	.string	"\377"
	.string	""
	.string	""
	.string	"\377"
	.string	""
	.string	""
	.string	"\377"
	.string	""
	.string	""
	.string	"\377"
	.string	""
	.string	""
	.string	"\377\340\260"
	.string	"\377\340\260"
	.string	"\377\340\260"
	.string	"\377\340\260"
	.string	"\377\340\260"
	.string	"\377"
	.string	""
	.string	""
	.string	"\377"
	.string	""
	.string	""
	.string	"\377"
	.string	""
	.string	""
	.string	"\377"
	.string	""
	.string	""
	.string	"\377"
	.string	""
	.string	""
	.string	"\377"
	.string	""
	.string	""
	.string	"\377"
	.string	""
	.string	""
	.string	"\377"
	.string	""
	.string	""
	.string	"\377"
	.string	""
	.string	""
	.string	"\377"
	.string	""
	.string	""
	.string	"\377"
	.string	""
	.string	""
	.string	"\377"
	.string	""
	.string	""
	.string	"\377"
	.string	""
	.string	""
	.string	"\377"
	.string	""
	.string	""
	.string	"\377"
	.string	""
	.string	""
	.string	"\377"
	.string	""
	.string	""
	.string	"\377"
	.string	""
	.string	""
	.string	"\377"
	.string	""
	.string	""
	.string	"\377\340\260"
	.string	"\377\340\260"
	.string	"\377\340\260"
	.string	"\377\340\260"
	.string	"\377"
	.string	""
	.string	""
	.string	"\377"
	.string	""
	.string	""
	.string	"\377"
	.string	""
	.string	""
	.string	"\377"
	.string	""
	.string	""
	.string	"\377"
	.string	""
	.string	""
	.string	"\377"
	.string	""
	.string	""
	.string	"\377"
	.string	""
	.string	""
	.string	"\377"
	.string	""
	.string	""
	.string	"\377"
	.string	""
	.string	""
	.string	"\377"
	.string	""
	.string	""
	.string	"\377"
	.string	""
	.string	""
	.string	"\377"
	.string	""
	.string	""
	.string	"\377"
	.string	""
	.string	""
	.string	"\377"
	.string	""
	.string	""
	.string	"\377"
	.string	""
	.string	""
	.string	"\377"
	.string	""
	.string	""
	.string	"\377"
	.string	""
	.string	""
	.string	"\377"
	.string	""
	.string	""
	.string	"\377"
	.string	""
	.string	""
	.string	"\377"
	.string	""
	.string	""
	.string	"\377"
	.string	""
	.string	""
	.string	"\377"
	.string	""
	.string	""
	.string	"\377"
	.string	""
	.string	""
	.string	"\377"
	.string	""
	.string	""
	.string	"\377"
	.string	""
	.string	""
	.string	"\377"
	.string	""
	.string	""
	.string	"\377"
	.string	""
	.string	""
	.string	"\377"
	.string	""
	.string	""
	.string	"\377"
	.string	""
	.string	""
	.string	"\377"
	.string	""
	.string	""
	.string	"\377"
	.string	""
	.string	""
	.string	"\377"
	.string	""
	.string	""
	.string	"\377"
	.string	""
	.string	""
	.string	"\377"
	.string	""
	.string	""
	.string	"\377"
	.string	""
	.string	""
	.string	"\377"
	.string	""
	.string	""
	.string	"\377"
	.string	""
	.string	""
	.string	"\377"
	.string	""
	.string	""
	.string	"\377"
	.string	""
	.string	""
	.string	"\377"
	.string	""
	.string	""
	.string	"\377"
	.string	""
	.string	""
	.string	"\377"
	.string	""
	.string	""
	.string	"\377"
	.string	""
	.string	""
	.string	"\377"
	.string	""
	.string	""
	.string	"\377"
	.string	""
	.string	""
	.string	"\377"
	.string	""
	.string	""
	.string	"\377"
	.string	""
	.string	""
	.string	"\377"
	.string	""
	.string	""
	.string	"\377"
	.string	""
	.string	""
	.string	"\377"
	.string	""
	.string	""
	.string	"\377"
	.string	""
	.string	""
	.string	"\377"
	.string	""
	.string	""
	.string	"\377"
	.string	""
	.string	""
	.string	"\377"
	.string	""
	.string	""
	.string	"\377"
	.string	""
	.string	""
	.string	"\377"
	.string	""
	.string	""
	.string	"\377"
	.string	""
	.string	""
	.string	"\377"
	.string	""
	.string	""
	.string	"\377"
	.string	""
	.string	""
	.string	"\377"
	.string	""
	.string	""
	.string	"\377"
	.string	""
	.string	""
	.string	"\377"
	.string	""
	.string	""
	.string	"\377"
	.string	""
	.string	""
	.string	"\377"
	.string	""
	.string	""
	.string	"\377"
	.string	""
	.string	""
	.string	"\377"
	.string	""
	.string	""
	.string	"\377"
	.string	""
	.string	""
	.string	"\377"
	.string	""
	.string	""
	.string	"\377"
	.string	""
	.string	""
	.string	"\377"
	.string	""
	.string	""
	.string	"\377"
	.string	""
	.string	""
	.string	"\377"
	.string	""
	.string	""
	.string	"\377"
	.string	""
	.string	""
	.string	"\377"
	.string	""
	.string	""
	.string	"\377"
	.string	""
	.string	""
	.string	"\377"
	.string	""
	.string	""
	.string	"\377"
	.string	""
	.string	""
	.string	"\377"
	.string	""
	.string	""
	.string	"\377"
	.string	""
	.string	""
	.string	"\377"
	.string	""
	.string	""
	.string	"\377"
	.string	""
	.string	""
	.string	"\377"
	.string	""
	.string	""
	.string	"\377"
	.string	""
	.string	""
	.string	"\377"
	.string	""
	.string	""
	.string	"\377"
	.string	""
	.string	""
	.string	"\377"
	.string	""
	.string	""
	.string	"\377"
	.string	""
	.string	""
	.string	"\377"
	.string	""
	.string	""
	.string	"\377"
	.string	""
	.string	""
	.string	"\377"
	.string	""
	.string	""
	.string	"\377"
	.string	""
	.string	""
	.string	"\377"
	.string	""
	.string	""
	.string	"\377"
	.string	""
	.string	""
	.string	"\377"
	.string	""
	.string	""
	.string	"\377"
	.string	""
	.string	""
	.string	"\377"
	.string	""
	.string	""
	.string	"\377"
	.string	""
	.string	""
	.string	"\377"
	.string	""
	.string	""
	.string	"\377"
	.string	""
	.string	""
	.string	"\377"
	.string	""
	.string	""
	.string	"\377"
	.string	""
	.string	""
	.string	"\377"
	.string	""
	.string	""
	.string	"\377"
	.string	""
	.string	""
	.string	"\377"
	.string	""
	.string	""
	.string	"\377"
	.string	""
	.string	""
	.string	"\377"
	.string	""
	.string	""
	.string	"\377"
	.string	""
	.string	""
	.string	"\377"
	.string	""
	.string	""
	.string	"\377"
	.string	""
	.string	""
	.string	"\377"
	.string	""
	.string	""
	.string	"\377"
	.string	""
	.string	""
	.string	"\377"
	.string	""
	.string	""
	.string	"\377"
	.string	""
	.string	""
	.string	"\377\340\260"
	.string	"\377\340\260"
	.string	"\377\340\260"
	.string	"\377\340\260"
	.string	"\377\340\260"
	.string	"\377\340\260"
	.string	"\377\340\260"
	.string	"\377"
	.string	""
	.string	""
	.string	"\377"
	.string	""
	.string	""
	.string	"\377"
	.string	""
	.string	""
	.string	"\377"
	.string	""
	.string	""
	.string	"\377"
	.string	""
	.string	""
	.string	"\377\340\260"
	.string	"\377\340\260"
	.string	"\377\340\260"
	.string	"\377\340\260"
	.string	"\377\340\260"
	.string	"\377\340\260"
	.string	"\377\340\260"
	.string	"\377"
	.string	""
	.string	""
	.string	"\377"
	.string	""
	.string	""
	.string	"\377"
	.string	""
	.string	""
	.string	"\377"
	.string	""
	.string	""
	.string	"\377"
	.string	""
	.string	""
	.string	"\377"
	.string	""
	.string	""
	.string	"\377"
	.string	""
	.string	""
	.ascii	"\377"
	.string	""
	.string	""
	.string	""
	.string	"\377"
	.string	""
	.string	""
	.string	"\377"
	.string	""
	.string	""
	.string	"\377"
	.string	""
	.string	""
	.string	"\377"
	.string	""
	.string	""
	.string	"\377"
	.string	""
	.string	""
	.string	"\377"
	.string	""
	.string	""
	.string	"\377"
	.string	""
	.string	""
	.string	"\377"
	.string	""
	.string	""
	.string	"\377"
	.string	""
	.string	""
	.string	"\377"
	.string	""
	.string	""
	.string	"\377"
	.string	""
	.string	""
	.string	"\377"
	.string	""
	.string	""
	.string	"\377"
	.string	""
	.string	""
	.string	"\377"
	.string	""
	.string	""
	.string	"\377"
	.string	""
	.string	""
	.string	"\377"
	.string	""
	.string	""
	.string	"\377"
	.string	""
	.string	""
	.string	"\377"
	.string	""
	.string	""
	.string	"\377"
	.string	""
	.string	""
	.string	"\377"
	.string	""
	.string	""
	.string	"\377"
	.string	""
	.string	""
	.string	"\377"
	.string	""
	.string	""
	.string	"\377"
	.string	""
	.string	""
	.string	"\377"
	.string	""
	.string	""
	.string	"\377"
	.string	""
	.string	""
	.string	"\377"
	.string	""
	.string	""
	.string	"\377"
	.string	""
	.string	""
	.string	"\377"
	.string	""
	.string	""
	.string	"\377"
	.string	""
	.string	""
	.string	"\377"
	.string	""
	.string	""
	.string	"\377"
	.string	""
	.string	""
	.string	"\377\340\260"
	.string	"\377\340\260"
	.string	"\377\340\260"
	.string	"\377\340\260"
	.string	"\377"
	.string	""
	.string	""
	.string	"\377"
	.string	""
	.string	""
	.string	"\377"
	.string	""
	.string	""
	.string	"\377"
	.string	""
	.string	""
	.string	"\377"
	.string	""
	.string	""
	.string	"\377"
	.string	""
	.string	""
	.string	"\377"
	.string	""
	.string	""
	.string	"\377"
	.string	""
	.string	""
	.string	"\377"
	.string	""
	.string	""
	.string	"\377"
	.string	""
	.string	""
	.string	"\377"
	.string	""
	.string	""
	.string	"\377"
	.string	""
	.string	""
	.string	"\377"
	.string	""
	.string	""
	.string	"\377"
	.string	""
	.string	""
	.string	"\377"
	.string	""
	.string	""
	.string	"\377"
	.string	""
	.string	""
	.string	"\377"
	.string	""
	.string	""
	.string	"\377"
	.string	""
	.string	""
	.string	"\377"
	.string	""
	.string	""
	.string	"\377"
	.string	""
	.string	""
	.string	"\377"
	.string	""
	.string	""
	.string	"\377"
	.string	""
	.string	""
	.string	"\377"
	.string	""
	.string	""
	.string	"\377"
	.string	""
	.string	""
	.string	"\377"
	.string	""
	.string	""
	.string	"\377"
	.string	""
	.string	""
	.string	"\377"
	.string	""
	.string	""
	.string	"\377"
	.string	""
	.string	""
	.string	"\377\340\260"
	.string	"\377\340\260"
	.string	"\377\340\260"
	.string	"\377\340\260"
	.string	"\377"
	.string	""
	.string	""
	.string	"\377"
	.string	""
	.string	""
	.string	"\377"
	.string	""
	.string	""
	.string	"\377"
	.string	""
	.string	""
	.string	"\377"
	.string	""
	.string	""
	.string	"\377"
	.string	""
	.string	""
	.string	"\377"
	.string	""
	.string	""
	.string	"\377"
	.string	""
	.string	""
	.string	"\377"
	.string	""
	.string	""
	.string	"\377"
	.string	""
	.string	""
	.string	"\377"
	.string	""
	.string	""
	.string	"\377"
	.string	""
	.string	""
	.string	"\377"
	.string	""
	.string	""
	.string	"\377"
	.string	""
	.string	""
	.string	"\377"
	.string	""
	.string	""
	.string	"\377"
	.string	""
	.string	""
	.string	"\377"
	.string	""
	.string	""
	.string	"\377"
	.string	""
	.string	""
	.string	"\377"
	.string	""
	.string	""
	.string	"\377"
	.string	""
	.string	""
	.string	"\377"
	.string	""
	.string	""
	.string	"\377"
	.string	""
	.string	""
	.string	"\377"
	.string	""
	.string	""
	.string	"\377"
	.string	""
	.string	""
	.string	"\377"
	.string	""
	.string	""
	.string	"\377"
	.string	""
	.string	""
	.string	"\377"
	.string	""
	.string	""
	.string	"\377"
	.string	""
	.string	""
	.string	"\377"
	.string	""
	.string	""
	.string	"\377\340\260"
	.string	"\377\340\260"
	.string	"\377\340\260"
	.string	"\377\340\260"
	.string	"\377\340\260"
	.string	"\377\340\260"
	.string	"\377\340\260"
	.string	"\377\340\260"
	.string	"\377\340\260"
	.string	"\377\340\260"
	.string	"\377\340\260"
	.string	"\377\340\260"
	.string	"\377\340\260"
	.string	"\377"
	.string	""
	.string	""
	.string	"\377"
	.string	""
	.string	""
	.string	"\377"
	.string	""
	.string	""
	.string	"\377"
	.string	""
	.string	""
	.string	"\377"
	.string	""
	.string	""
	.string	"\377\340\260"
	.string	"\377\340\260"
	.string	"\377\340\260"
	.string	"\377\340\260"
	.string	"\377"
	.string	""
	.string	""
	.string	"\377"
	.string	""
	.string	""
	.string	"\377"
	.string	""
	.string	""
	.string	"\377"
	.string	""
	.string	""
	.string	"\377"
	.string	""
	.string	""
	.string	"\377"
	.string	""
	.string	""
	.string	"\377"
	.string	""
	.string	""
	.string	"\377"
	.string	""
	.string	""
	.string	"\377"
	.string	""
	.string	""
	.string	"\377\340\260"
	.string	"\377\340\260"
	.string	"\377\340\260"
	.string	"\377\340\260"
	.string	"\377\340\260"
	.string	"\377\340\260"
	.string	"\377\340\260"
	.string	"\377\340\260"
	.string	"\377\340\260"
	.string	"\377\340\260"
	.string	"\377\340\260"
	.string	"\377\340\260"
	.string	"\377\340\260"
	.string	"\377\340\260"
	.string	"\377\340\260"
	.string	"\377"
	.string	""
	.string	""
	.string	"\377\340\260"
	.string	"\377\340\260"
	.string	"\377\340\260"
	.string	"\377\340\260"
	.string	"\377\340\260"
	.string	"\377\340\260"
	.string	"\377\340\260"
	.string	"\377\340\260"
	.string	"\377\340\260"
	.string	"\377\340\260"
	.string	"\377\340\260"
	.string	"\377\340\260"
	.string	"\377\340\260"
	.string	"\377\340\260"
	.string	"\377"
	.string	""
	.string	""
	.string	"\377"
	.string	""
	.string	""
	.string	"\377"
	.string	""
	.string	""
	.string	"\377"
	.string	""
	.string	""
	.string	"\377"
	.string	""
	.string	""
	.string	"\377"
	.string	""
	.string	""
	.string	"\377"
	.string	""
	.string	""
	.string	"\377"
	.string	""
	.string	""
	.string	"\377"
	.string	""
	.string	""
	.string	"\377"
	.string	""
	.string	""
	.string	"\377"
	.string	""
	.string	""
	.string	"\377"
	.string	""
	.string	""
	.string	"\377"
	.string	""
	.string	""
	.string	"\377"
	.string	""
	.string	""
	.string	"\377"
	.string	""
	.string	""
	.string	"\377"
	.string	""
	.string	""
	.string	"\377"
	.string	""
	.string	""
	.string	"\377"
	.string	""
	.string	""
	.string	"\377"
	.string	""
	.string	""
	.string	"\377\340\260"
	.string	"\377\340\260"
	.string	"\377\340\260"
	.string	"\377\340\260"
	.string	"\377"
	.string	""
	.string	""
	.string	"\377"
	.string	""
	.string	""
	.string	"\377"
	.string	""
	.string	""
	.string	"\377"
	.string	""
	.string	""
	.string	"\377"
	.string	""
	.string	""
	.string	"\377"
	.string	""
	.string	""
	.string	"\377"
	.string	""
	.string	""
	.string	"\377"
	.string	""
	.string	""
	.string	"\377"
	.string	""
	.string	""
	.string	"\377"
	.string	""
	.string	""
	.string	"\377"
	.string	""
	.string	""
	.string	"\377"
	.string	""
	.string	""
	.string	"\377"
	.string	""
	.string	""
	.string	"\377"
	.string	""
	.string	""
	.string	"\377"
	.string	""
	.string	""
	.string	"\377"
	.string	""
	.string	""
	.string	"\377"
	.string	""
	.string	""
	.string	"\377"
	.string	""
	.string	""
	.string	"\377"
	.string	""
	.string	""
	.string	"\377"
	.string	""
	.string	""
	.string	"\377"
	.string	""
	.string	""
	.string	"\377"
	.string	""
	.string	""
	.string	"\377"
	.string	""
	.string	""
	.string	"\377"
	.string	""
	.string	""
	.string	"\377"
	.string	""
	.string	""
	.string	"\377"
	.string	""
	.string	""
	.string	"\377"
	.string	""
	.string	""
	.string	"\377"
	.string	""
	.string	""
	.string	"\377"
	.string	""
	.string	""
	.string	"\377"
	.string	""
	.string	""
	.string	"\377"
	.string	""
	.string	""
	.string	"\377"
	.string	""
	.string	""
	.string	"\377"
	.string	""
	.string	""
	.string	"\377"
	.string	""
	.string	""
	.string	"\377"
	.string	""
	.string	""
	.string	"\377"
	.string	""
	.string	""
	.string	"\377"
	.string	""
	.string	""
	.string	"\377"
	.string	""
	.string	""
	.string	"\377"
	.string	""
	.string	""
	.string	"\377"
	.string	""
	.string	""
	.string	"\377"
	.string	""
	.string	""
	.string	"\377"
	.string	""
	.string	""
	.string	"\377"
	.string	""
	.string	""
	.string	"\377"
	.string	""
	.string	""
	.string	"\377"
	.string	""
	.string	""
	.string	"\377"
	.string	""
	.string	""
	.string	"\377"
	.string	""
	.string	""
	.string	"\377"
	.string	""
	.string	""
	.string	"\377"
	.string	""
	.string	""
	.string	"\377"
	.string	""
	.string	""
	.string	"\377"
	.string	""
	.string	""
	.string	"\377"
	.string	""
	.string	""
	.string	"\377"
	.string	""
	.string	""
	.string	"\377"
	.string	""
	.string	""
	.string	"\377"
	.string	""
	.string	""
	.string	"\377"
	.string	""
	.string	""
	.string	"\377"
	.string	""
	.string	""
	.string	"\377"
	.string	""
	.string	""
	.string	"\377"
	.string	""
	.string	""
	.string	"\377"
	.string	""
	.string	""
	.string	"\377"
	.string	""
	.string	""
	.string	"\377"
	.string	""
	.string	""
	.string	"\377"
	.string	""
	.string	""
	.string	"\377"
	.string	""
	.string	""
	.string	"\377"
	.string	""
	.string	""
	.string	"\377"
	.string	""
	.string	""
	.string	"\377"
	.string	""
	.string	""
	.string	"\377"
	.string	""
	.string	""
	.string	"\377"
	.string	""
	.string	""
	.string	"\377"
	.string	""
	.string	""
	.string	"\377"
	.string	""
	.string	""
	.string	"\377"
	.string	""
	.string	""
	.string	"\377"
	.string	""
	.string	""
	.string	"\377"
	.string	""
	.string	""
	.string	"\377"
	.string	""
	.string	""
	.string	"\377"
	.string	""
	.string	""
	.string	"\377"
	.string	""
	.string	""
	.string	"\377"
	.string	""
	.string	""
	.string	"\377"
	.string	""
	.string	""
	.string	"\377"
	.string	""
	.string	""
	.string	"\377"
	.string	""
	.string	""
	.string	"\377"
	.string	""
	.string	""
	.string	"\377"
	.string	""
	.string	""
	.string	"\377"
	.string	""
	.string	""
	.string	"\377"
	.string	""
	.string	""
	.string	"\377"
	.string	""
	.string	""
	.string	"\377"
	.string	""
	.string	""
	.string	"\377"
	.string	""
	.string	""
	.string	"\377"
	.string	""
	.string	""
	.string	"\377"
	.string	""
	.string	""
	.string	"\377"
	.string	""
	.string	""
	.string	"\377"
	.string	""
	.string	""
	.string	"\377"
	.string	""
	.string	""
	.string	"\377"
	.string	""
	.string	""
	.string	"\377"
	.string	""
	.string	""
	.string	"\377"
	.string	""
	.string	""
	.string	"\377"
	.string	""
	.string	""
	.string	"\377"
	.string	""
	.string	""
	.string	"\377"
	.string	""
	.string	""
	.string	"\377"
	.string	""
	.string	""
	.string	"\377"
	.string	""
	.string	""
	.string	"\377"
	.string	""
	.string	""
	.string	"\377"
	.string	""
	.string	""
	.string	"\377"
	.string	""
	.string	""
	.string	"\377"
	.string	""
	.string	""
	.string	"\377"
	.string	""
	.string	""
	.string	"\377"
	.string	""
	.string	""
	.string	"\377"
	.string	""
	.string	""
	.string	"\377"
	.string	""
	.string	""
	.string	"\377"
	.string	""
	.string	""
	.string	"\377"
	.string	""
	.string	""
	.string	"\377"
	.string	""
	.string	""
	.string	"\377"
	.string	""
	.string	""
	.string	"\377\340\260"
	.string	"\377\340\260"
	.string	"\377\340\260"
	.string	"\377\340\260"
	.string	"\377\340\260"
	.string	"\377\340\260"
	.string	"\377\340\260"
	.string	"\377"
	.string	""
	.string	""
	.string	"\377"
	.string	""
	.string	""
	.string	"\377"
	.string	""
	.string	""
	.string	"\377"
	.string	""
	.string	""
	.string	"\377"
	.string	""
	.string	""
	.string	"\377\340\260"
	.string	"\377\340\260"
	.string	"\377\340\260"
	.string	"\377\340\260"
	.string	"\377\340\260"
	.string	"\377\340\260"
	.string	"\377\340\260"
	.string	"\377"
	.string	""
	.string	""
	.string	"\377"
	.string	""
	.string	""
	.string	"\377"
	.string	""
	.string	""
	.string	"\377"
	.string	""
	.string	""
	.string	"\377"
	.string	""
	.string	""
	.string	"\377"
	.string	""
	.string	""
	.string	"\377"
	.string	""
	.string	""
	.string	"\377"
	.string	""
	.string	""
	.string	"\377"
	.string	""
	.string	""
	.string	"\377"
	.string	""
	.string	""
	.string	"\377"
	.string	""
	.string	""
	.string	"\377"
	.string	""
	.string	""
	.string	"\377"
	.string	""
	.string	""
	.string	"\377"
	.string	""
	.string	""
	.string	"\377"
	.string	""
	.string	""
	.string	"\377"
	.string	""
	.string	""
	.string	"\377"
	.string	""
	.string	""
	.string	"\377"
	.string	""
	.string	""
	.string	"\377"
	.string	""
	.string	""
	.string	"\377"
	.string	""
	.string	""
	.string	"\377"
	.string	""
	.string	""
	.string	"\377"
	.string	""
	.string	""
	.string	"\377"
	.string	""
	.string	""
	.string	"\377"
	.string	""
	.string	""
	.string	"\377"
	.string	""
	.string	""
	.string	"\377"
	.string	""
	.string	""
	.string	"\377"
	.string	""
	.string	""
	.string	"\377"
	.string	""
	.string	""
	.string	"\377"
	.string	""
	.string	""
	.string	"\377"
	.string	""
	.string	""
	.string	"\377"
	.string	""
	.string	""
	.string	"\377"
	.string	""
	.string	""
	.string	"\377"
	.string	""
	.string	""
	.string	"\377"
	.string	""
	.string	""
	.string	"\377"
	.string	""
	.string	""
	.string	"\377"
	.string	""
	.string	""
	.string	"\377"
	.string	""
	.string	""
	.string	"\377"
	.string	""
	.string	""
	.string	"\377"
	.string	""
	.string	""
	.string	"\377"
	.string	""
	.string	""
	.string	"\377\340\260"
	.string	"\377\340\260"
	.string	"\377\340\260"
	.string	"\377"
	.string	""
	.string	""
	.string	"\377"
	.string	""
	.string	""
	.string	"\377"
	.string	""
	.string	""
	.string	"\377"
	.string	""
	.string	""
	.string	"\377"
	.string	""
	.string	""
	.string	"\377"
	.string	""
	.string	""
	.string	"\377"
	.string	""
	.string	""
	.string	"\377"
	.string	""
	.string	""
	.string	"\377"
	.string	""
	.string	""
	.string	"\377"
	.string	""
	.string	""
	.string	"\377"
	.string	""
	.string	""
	.string	"\377"
	.string	""
	.string	""
	.string	"\377"
	.string	""
	.string	""
	.string	"\377"
	.string	""
	.string	""
	.string	"\377"
	.string	""
	.string	""
	.string	"\377"
	.string	""
	.string	""
	.string	"\377"
	.string	""
	.string	""
	.string	"\377"
	.string	""
	.string	""
	.string	"\377"
	.string	""
	.string	""
	.string	"\377"
	.string	""
	.string	""
	.string	"\377"
	.string	""
	.string	""
	.string	"\377"
	.string	""
	.string	""
	.string	"\377"
	.string	""
	.string	""
	.string	"\377"
	.string	""
	.string	""
	.string	"\377"
	.string	""
	.string	""
	.string	"\377"
	.string	""
	.string	""
	.string	"\377"
	.string	""
	.string	""
	.string	"\377"
	.string	""
	.string	""
	.string	"\377\340\260"
	.string	"\377\340\260"
	.string	"\377\340\260"
	.string	"\377\340\260"
	.string	"\377"
	.string	""
	.string	""
	.string	"\377"
	.string	""
	.string	""
	.string	"\377"
	.string	""
	.string	""
	.string	"\377"
	.string	""
	.string	""
	.string	"\377"
	.string	""
	.string	""
	.string	"\377"
	.string	""
	.string	""
	.string	"\377"
	.string	""
	.string	""
	.string	"\377"
	.string	""
	.string	""
	.string	"\377"
	.string	""
	.string	""
	.string	"\377"
	.string	""
	.string	""
	.string	"\377"
	.string	""
	.string	""
	.string	"\377"
	.string	""
	.string	""
	.string	"\377"
	.string	""
	.string	""
	.string	"\377"
	.string	""
	.string	""
	.string	"\377"
	.string	""
	.string	""
	.string	"\377"
	.string	""
	.string	""
	.string	"\377"
	.string	""
	.string	""
	.string	"\377"
	.string	""
	.string	""
	.string	"\377"
	.string	""
	.string	""
	.string	"\377"
	.string	""
	.string	""
	.string	"\377"
	.string	""
	.string	""
	.string	"\377"
	.string	""
	.string	""
	.string	"\377"
	.string	""
	.string	""
	.string	"\377"
	.string	""
	.string	""
	.string	"\377"
	.string	""
	.string	""
	.string	"\377"
	.string	""
	.string	""
	.string	"\377"
	.string	""
	.string	""
	.string	"\377"
	.string	""
	.string	""
	.string	"\377"
	.string	""
	.string	""
	.string	"\377\340\260"
	.string	"\377\340\260"
	.string	"\377\340\260"
	.string	"\377\340\260"
	.string	"\377\340\260"
	.string	"\377\340\260"
	.string	"\377\340\260"
	.string	"\377\340\260"
	.string	"\377\340\260"
	.string	"\377\340\260"
	.string	"\377\340\260"
	.string	"\377\340\260"
	.string	"\377\340\260"
	.string	"\377"
	.string	""
	.string	""
	.string	"\377"
	.string	""
	.string	""
	.string	"\377"
	.string	""
	.string	""
	.string	"\377"
	.string	""
	.string	""
	.string	"\377"
	.string	""
	.string	""
	.string	"\377\340\260"
	.string	"\377\340\260"
	.string	"\377\340\260"
	.string	"\377\340\260"
	.string	"\377"
	.string	""
	.string	""
	.string	"\377"
	.string	""
	.string	""
	.string	"\377"
	.string	""
	.string	""
	.string	"\377"
	.string	""
	.string	""
	.string	"\377"
	.string	""
	.string	""
	.string	"\377"
	.string	""
	.string	""
	.string	"\377"
	.string	""
	.string	""
	.string	"\377"
	.string	""
	.string	""
	.string	"\377"
	.string	""
	.string	""
	.string	"\377\340\260"
	.string	"\377\340\260"
	.string	"\377\340\260"
	.string	"\377\340\260"
	.string	"\377\340\260"
	.string	"\377\340\260"
	.string	"\377\340\260"
	.string	"\377\340\260"
	.string	"\377\340\260"
	.string	"\377\340\260"
	.string	"\377\340\260"
	.string	"\377\340\260"
	.string	"\377\340\260"
	.string	"\377\340\260"
	.string	"\377\340\260"
	.string	"\377"
	.string	""
	.string	""
	.string	"\377\340\260"
	.string	"\377\340\260"
	.string	"\377\340\260"
	.string	"\377\340\260"
	.string	"\377\340\260"
	.string	"\377\340\260"
	.string	"\377\340\260"
	.string	"\377\340\260"
	.string	"\377\340\260"
	.string	"\377\340\260"
	.string	"\377\340\260"
	.string	"\377\340\260"
	.string	"\377\340\260"
	.string	"\377\340\260"
	.string	"\377"
	.string	""
	.string	""
	.string	"\377"
	.string	""
	.string	""
	.string	"\377"
	.string	""
	.string	""
	.string	"\377"
	.string	""
	.string	""
	.string	"\377"
	.string	""
	.string	""
	.string	"\377"
	.string	""
	.string	""
	.string	"\377"
	.string	""
	.string	""
	.string	"\377"
	.string	""
	.string	""
	.string	"\377"
	.string	""
	.string	""
	.string	"\377"
	.string	""
	.string	""
	.string	"\377"
	.string	""
	.string	""
	.string	"\377"
	.string	""
	.string	""
	.string	"\377"
	.string	""
	.string	""
	.string	"\377"
	.string	""
	.string	""
	.string	"\377"
	.string	""
	.string	""
	.string	"\377"
	.string	""
	.string	""
	.string	"\377"
	.string	""
	.string	""
	.string	"\377"
	.string	""
	.string	""
	.string	"\377"
	.string	""
	.string	""
	.string	"\377\340\260"
	.string	"\377\340\260"
	.string	"\377\340\260"
	.ascii	"\377"
	.string	"\340\260"
	.string	"\377"
	.string	""
	.string	""
	.string	"\377"
	.string	""
	.string	""
	.string	"\377"
	.string	""
	.string	""
	.string	"\377"
	.string	""
	.string	""
	.string	"\377"
	.string	""
	.string	""
	.string	"\377"
	.string	""
	.string	""
	.string	"\377"
	.string	""
	.string	""
	.string	"\377"
	.string	""
	.string	""
	.string	"\377"
	.string	""
	.string	""
	.string	"\377"
	.string	""
	.string	""
	.string	"\377"
	.string	""
	.string	""
	.string	"\377"
	.string	""
	.string	""
	.string	"\377"
	.string	""
	.string	""
	.string	"\377"
	.string	""
	.string	""
	.string	"\377"
	.string	""
	.string	""
	.string	"\377"
	.string	""
	.string	""
	.string	"\377"
	.string	""
	.string	""
	.string	"\377"
	.string	""
	.string	""
	.string	"\377"
	.string	""
	.string	""
	.string	"\377"
	.string	""
	.string	""
	.string	"\377"
	.string	""
	.string	""
	.string	"\377"
	.string	""
	.string	""
	.string	"\377"
	.string	""
	.string	""
	.string	"\377"
	.string	""
	.string	""
	.string	"\377"
	.string	""
	.string	""
	.string	"\377"
	.string	""
	.string	""
	.string	"\377"
	.string	""
	.string	""
	.string	"\377"
	.string	""
	.string	""
	.string	"\377"
	.string	""
	.string	""
	.string	"\377"
	.string	""
	.string	""
	.string	"\377"
	.string	""
	.string	""
	.string	"\377"
	.string	""
	.string	""
	.string	"\377"
	.string	""
	.string	""
	.string	"\377"
	.string	""
	.string	""
	.string	"\377"
	.string	""
	.string	""
	.string	"\377"
	.string	""
	.string	""
	.string	"\377"
	.string	""
	.string	""
	.string	"\377"
	.string	""
	.string	""
	.string	"\377"
	.string	""
	.string	""
	.string	"\377"
	.string	""
	.string	""
	.string	"\377"
	.string	""
	.string	""
	.string	"\377"
	.string	""
	.string	""
	.string	"\377"
	.string	""
	.string	""
	.string	"\377"
	.string	""
	.string	""
	.string	"\377"
	.string	""
	.string	""
	.string	"\377"
	.string	""
	.string	""
	.string	"\377"
	.string	""
	.string	""
	.string	"\377"
	.string	""
	.string	""
	.string	"\377"
	.string	""
	.string	""
	.string	"\377"
	.string	""
	.string	""
	.string	"\377"
	.string	""
	.string	""
	.string	"\377"
	.string	""
	.string	""
	.string	"\377"
	.string	""
	.string	""
	.string	"\377"
	.string	""
	.string	""
	.string	"\377"
	.string	""
	.string	""
	.string	"\377"
	.string	""
	.string	""
	.string	"\377"
	.string	""
	.string	""
	.string	"\377"
	.string	""
	.string	""
	.string	"\377"
	.string	""
	.string	""
	.string	"\377"
	.string	""
	.string	""
	.string	"\377"
	.string	""
	.string	""
	.string	"\377"
	.string	""
	.string	""
	.string	"\377"
	.string	""
	.string	""
	.string	"\377"
	.string	""
	.string	""
	.string	"\377"
	.string	""
	.string	""
	.string	"\377"
	.string	""
	.string	""
	.string	"\377"
	.string	""
	.string	""
	.string	"\377"
	.string	""
	.string	""
	.string	"\377"
	.string	""
	.string	""
	.string	"\377"
	.string	""
	.string	""
	.string	"\377"
	.string	""
	.string	""
	.string	"\377"
	.string	""
	.string	""
	.string	"\377"
	.string	""
	.string	""
	.string	"\377"
	.string	""
	.string	""
	.string	"\377"
	.string	""
	.string	""
	.string	"\377"
	.string	""
	.string	""
	.string	"\377"
	.string	""
	.string	""
	.string	"\377"
	.string	""
	.string	""
	.string	"\377"
	.string	""
	.string	""
	.string	"\377"
	.string	""
	.string	""
	.string	"\377"
	.string	""
	.string	""
	.string	"\377"
	.string	""
	.string	""
	.string	"\377"
	.string	""
	.string	""
	.string	"\377"
	.string	""
	.string	""
	.string	"\377"
	.string	""
	.string	""
	.string	"\377"
	.string	""
	.string	""
	.string	"\377"
	.string	""
	.string	""
	.string	"\377"
	.string	""
	.string	""
	.string	"\377"
	.string	""
	.string	""
	.string	"\377"
	.string	""
	.string	""
	.string	"\377"
	.string	""
	.string	""
	.string	"\377"
	.string	""
	.string	""
	.string	"\377"
	.string	""
	.string	""
	.string	"\377"
	.string	""
	.string	""
	.string	"\377"
	.string	""
	.string	""
	.string	"\377"
	.string	""
	.string	""
	.string	"\377"
	.string	""
	.string	""
	.string	"\377"
	.string	""
	.string	""
	.string	"\377"
	.string	""
	.string	""
	.string	"\377"
	.string	""
	.string	""
	.string	"\377"
	.string	""
	.string	""
	.string	"\377"
	.string	""
	.string	""
	.string	"\377"
	.string	""
	.string	""
	.string	"\377"
	.string	""
	.string	""
	.string	"\377"
	.string	""
	.string	""
	.string	"\377"
	.string	""
	.string	""
	.string	"\377"
	.string	""
	.string	""
	.string	"\377"
	.string	""
	.string	""
	.string	"\377"
	.string	""
	.string	""
	.string	"\377"
	.string	""
	.string	""
	.string	"\377"
	.string	""
	.string	""
	.string	"\377"
	.string	""
	.string	""
	.string	"\377"
	.string	""
	.string	""
	.string	"\377"
	.string	""
	.string	""
	.string	"\377\340\260"
	.string	"\377\340\260"
	.string	"\377\340\260"
	.string	"\377\340\260"
	.string	"\377\340\260"
	.string	"\377\340\260"
	.string	"\377"
	.string	""
	.string	""
	.string	"\377"
	.string	""
	.string	""
	.string	"\377"
	.string	""
	.string	""
	.string	"\377"
	.string	""
	.string	""
	.string	"\377"
	.string	""
	.string	""
	.string	"\377\340\260"
	.string	"\377\340\260"
	.string	"\377\340\260"
	.string	"\377\340\260"
	.string	"\377\340\260"
	.string	"\377\340\260"
	.string	"\377"
	.string	""
	.string	""
	.string	"\377"
	.string	""
	.string	""
	.string	"\377"
	.string	""
	.string	""
	.string	"\377"
	.string	""
	.string	""
	.string	"\377"
	.string	""
	.string	""
	.string	"\377"
	.string	""
	.string	""
	.string	"\377"
	.string	""
	.string	""
	.string	"\377"
	.string	""
	.string	""
	.string	"\377"
	.string	""
	.string	""
	.string	"\377"
	.string	""
	.string	""
	.string	"\377"
	.string	""
	.string	""
	.string	"\377"
	.string	""
	.string	""
	.string	"\377"
	.string	""
	.string	""
	.string	"\377"
	.string	""
	.string	""
	.string	"\377"
	.string	""
	.string	""
	.string	"\377"
	.string	""
	.string	""
	.string	"\377"
	.string	""
	.string	""
	.string	"\377"
	.string	""
	.string	""
	.string	"\377"
	.string	""
	.string	""
	.string	"\377"
	.string	""
	.string	""
	.string	"\377"
	.string	""
	.string	""
	.string	"\377"
	.string	""
	.string	""
	.string	"\377"
	.string	""
	.string	""
	.string	"\377"
	.string	""
	.string	""
	.string	"\377"
	.string	""
	.string	""
	.string	"\377"
	.string	""
	.string	""
	.string	"\377"
	.string	""
	.string	""
	.string	"\377"
	.string	""
	.string	""
	.string	"\377"
	.string	""
	.string	""
	.string	"\377"
	.string	""
	.string	""
	.string	"\377"
	.string	""
	.string	""
	.string	"\377"
	.string	""
	.string	""
	.string	"\377"
	.string	""
	.string	""
	.string	"\377"
	.string	""
	.string	""
	.string	"\377"
	.string	""
	.string	""
	.string	"\377"
	.string	""
	.string	""
	.string	"\377"
	.string	""
	.string	""
	.string	"\377"
	.string	""
	.string	""
	.string	"\377"
	.string	""
	.string	""
	.string	"\377"
	.string	""
	.string	""
	.string	"\377"
	.string	""
	.string	""
	.string	"\377\340\260"
	.string	"\377\340\260"
	.string	"\377"
	.string	""
	.string	""
	.string	"\377"
	.string	""
	.string	""
	.string	"\377"
	.string	""
	.string	""
	.string	"\377"
	.string	""
	.string	""
	.string	"\377"
	.string	""
	.string	""
	.string	"\377"
	.string	""
	.string	""
	.string	"\377"
	.string	""
	.string	""
	.string	"\377"
	.string	""
	.string	""
	.string	"\377"
	.string	""
	.string	""
	.string	"\377"
	.string	""
	.string	""
	.string	"\377"
	.string	""
	.string	""
	.string	"\377"
	.string	""
	.string	""
	.string	"\377"
	.string	""
	.string	""
	.string	"\377"
	.string	""
	.string	""
	.string	"\377"
	.string	""
	.string	""
	.string	"\377"
	.string	""
	.string	""
	.string	"\377"
	.string	""
	.string	""
	.string	"\377"
	.string	""
	.string	""
	.string	"\377"
	.string	""
	.string	""
	.string	"\377"
	.string	""
	.string	""
	.string	"\377"
	.string	""
	.string	""
	.string	"\377"
	.string	""
	.string	""
	.string	"\377"
	.string	""
	.string	""
	.string	"\377"
	.string	""
	.string	""
	.string	"\377"
	.string	""
	.string	""
	.string	"\377"
	.string	""
	.string	""
	.string	"\377"
	.string	""
	.string	""
	.string	"\377"
	.string	""
	.string	""
	.string	"\377"
	.string	""
	.string	""
	.string	"\377\340\260"
	.string	"\377\340\260"
	.string	"\377\340\260"
	.string	"\377\340\260"
	.string	"\377"
	.string	""
	.string	""
	.string	"\377"
	.string	""
	.string	""
	.string	"\377"
	.string	""
	.string	""
	.string	"\377"
	.string	""
	.string	""
	.string	"\377"
	.string	""
	.string	""
	.string	"\377"
	.string	""
	.string	""
	.string	"\377"
	.string	""
	.string	""
	.string	"\377"
	.string	""
	.string	""
	.string	"\377"
	.string	""
	.string	""
	.string	"\377"
	.string	""
	.string	""
	.string	"\377"
	.string	""
	.string	""
	.string	"\377"
	.string	""
	.string	""
	.string	"\377"
	.string	""
	.string	""
	.string	"\377"
	.string	""
	.string	""
	.string	"\377"
	.string	""
	.string	""
	.string	"\377"
	.string	""
	.string	""
	.string	"\377"
	.string	""
	.string	""
	.string	"\377"
	.string	""
	.string	""
	.string	"\377"
	.string	""
	.string	""
	.string	"\377"
	.string	""
	.string	""
	.string	"\377"
	.string	""
	.string	""
	.string	"\377"
	.string	""
	.string	""
	.string	"\377"
	.string	""
	.string	""
	.string	"\377"
	.string	""
	.string	""
	.string	"\377"
	.string	""
	.string	""
	.string	"\377"
	.string	""
	.string	""
	.string	"\377"
	.string	""
	.string	""
	.string	"\377"
	.string	""
	.string	""
	.string	"\377"
	.string	""
	.string	""
	.string	"\377"
	.string	""
	.string	""
	.string	"\377\340\260"
	.string	"\377\340\260"
	.string	"\377\340\260"
	.string	"\377\340\260"
	.string	"\377\340\260"
	.string	"\377\340\260"
	.string	"\377\340\260"
	.string	"\377\340\260"
	.string	"\377\340\260"
	.string	"\377\340\260"
	.string	"\377\340\260"
	.string	"\377"
	.string	""
	.string	""
	.string	"\377"
	.string	""
	.string	""
	.string	"\377"
	.string	""
	.string	""
	.string	"\377"
	.string	""
	.string	""
	.string	"\377"
	.string	""
	.string	""
	.string	"\377"
	.string	""
	.string	""
	.string	"\377\340\260"
	.string	"\377\340\260"
	.string	"\377\340\260"
	.string	"\377\340\260"
	.string	"\377"
	.string	""
	.string	""
	.string	"\377"
	.string	""
	.string	""
	.string	"\377"
	.string	""
	.string	""
	.string	"\377"
	.string	""
	.string	""
	.string	"\377"
	.string	""
	.string	""
	.string	"\377"
	.string	""
	.string	""
	.string	"\377"
	.string	""
	.string	""
	.string	"\377"
	.string	""
	.string	""
	.string	"\377"
	.string	""
	.string	""
	.string	"\377\340\260"
	.string	"\377\340\260"
	.string	"\377\340\260"
	.string	"\377\340\260"
	.string	"\377\340\260"
	.string	"\377\340\260"
	.string	"\377\340\260"
	.string	"\377\340\260"
	.string	"\377\340\260"
	.string	"\377\340\260"
	.string	"\377\340\260"
	.string	"\377\340\260"
	.string	"\377\340\260"
	.string	"\377\340\260"
	.string	"\377\340\260"
	.string	"\377"
	.string	""
	.string	""
	.string	"\377\340\260"
	.string	"\377\340\260"
	.string	"\377\340\260"
	.string	"\377\340\260"
	.string	"\377\340\260"
	.string	"\377\340\260"
	.string	"\377\340\260"
	.string	"\377\340\260"
	.string	"\377\340\260"
	.string	"\377\340\260"
	.string	"\377\340\260"
	.string	"\377\340\260"
	.string	"\377\340\260"
	.string	"\377"
	.string	""
	.string	""
	.string	"\377"
	.string	""
	.string	""
	.string	"\377"
	.string	""
	.string	""
	.string	"\377"
	.string	""
	.string	""
	.string	"\377"
	.string	""
	.string	""
	.string	"\377"
	.string	""
	.string	""
	.string	"\377"
	.string	""
	.string	""
	.string	"\377"
	.string	""
	.string	""
	.string	"\377"
	.string	""
	.string	""
	.string	"\377"
	.string	""
	.string	""
	.string	"\377"
	.string	""
	.string	""
	.string	"\377"
	.string	""
	.string	""
	.string	"\377"
	.string	""
	.string	""
	.string	"\377"
	.string	""
	.string	""
	.string	"\377"
	.string	""
	.string	""
	.string	"\377"
	.string	""
	.string	""
	.string	"\377"
	.string	""
	.string	""
	.string	"\377"
	.string	""
	.string	""
	.string	"\377"
	.string	""
	.string	""
	.string	"\377"
	.string	""
	.string	""
	.string	"\377\340\260"
	.string	"\377\340\260"
	.string	"\377\340\260"
	.string	"\377\340\260"
	.string	"\377"
	.string	""
	.string	""
	.string	"\377"
	.string	""
	.string	""
	.string	"\377"
	.string	""
	.string	""
	.string	"\377"
	.string	""
	.string	""
	.string	"\377"
	.string	""
	.string	""
	.string	"\377"
	.string	""
	.string	""
	.string	"\377"
	.string	""
	.string	""
	.string	"\377"
	.string	""
	.string	""
	.string	"\377"
	.string	""
	.string	""
	.string	"\377"
	.string	""
	.string	""
	.string	"\377"
	.string	""
	.string	""
	.string	"\377"
	.string	""
	.string	""
	.string	"\377"
	.string	""
	.string	""
	.string	"\377"
	.string	""
	.string	""
	.string	"\377"
	.string	""
	.string	""
	.string	"\377"
	.string	""
	.string	""
	.string	"\377"
	.string	""
	.string	""
	.string	"\377"
	.string	""
	.string	""
	.string	"\377"
	.string	""
	.string	""
	.string	"\377"
	.string	""
	.string	""
	.string	"\377"
	.string	""
	.string	""
	.string	"\377"
	.string	""
	.string	""
	.string	"\377"
	.string	""
	.string	""
	.string	"\377"
	.string	""
	.string	""
	.string	"\377"
	.string	""
	.string	""
	.string	"\377"
	.string	""
	.string	""
	.string	"\377"
	.string	""
	.string	""
	.string	"\377"
	.string	""
	.string	""
	.string	"\377"
	.string	""
	.string	""
	.string	"\377"
	.string	""
	.string	""
	.string	"\377"
	.string	""
	.string	""
	.string	"\377"
	.string	""
	.string	""
	.string	"\377"
	.string	""
	.string	""
	.string	"\377"
	.string	""
	.string	""
	.string	"\377"
	.string	""
	.string	""
	.string	"\377"
	.string	""
	.string	""
	.string	"\377"
	.string	""
	.string	""
	.string	"\377"
	.string	""
	.string	""
	.string	"\377"
	.string	""
	.string	""
	.string	"\377"
	.string	""
	.string	""
	.string	"\377"
	.string	""
	.string	""
	.string	"\377"
	.string	""
	.string	""
	.string	"\377"
	.string	""
	.string	""
	.string	"\377"
	.string	""
	.string	""
	.string	"\377"
	.string	""
	.string	""
	.string	"\377"
	.string	""
	.string	""
	.string	"\377"
	.string	""
	.string	""
	.string	"\377"
	.string	""
	.string	""
	.string	"\377"
	.string	""
	.string	""
	.string	"\377"
	.string	""
	.string	""
	.string	"\377"
	.string	""
	.string	""
	.string	"\377"
	.string	""
	.string	""
	.string	"\377"
	.string	""
	.string	""
	.string	"\377"
	.string	""
	.string	""
	.string	"\377"
	.string	""
	.string	""
	.string	"\377"
	.string	""
	.string	""
	.string	"\377"
	.string	""
	.string	""
	.string	"\377"
	.string	""
	.string	""
	.string	"\377"
	.string	""
	.string	""
	.string	"\377"
	.string	""
	.string	""
	.string	"\377"
	.string	""
	.string	""
	.string	"\377"
	.string	""
	.string	""
	.string	"\377"
	.string	""
	.string	""
	.string	"\377"
	.string	""
	.string	""
	.string	"\377"
	.string	""
	.string	""
	.string	"\377"
	.string	""
	.string	""
	.string	"\377"
	.string	""
	.string	""
	.string	"\377"
	.string	""
	.string	""
	.string	"\377"
	.string	""
	.string	""
	.string	"\377"
	.string	""
	.string	""
	.string	"\377"
	.string	""
	.string	""
	.string	"\377"
	.string	""
	.string	""
	.string	"\377"
	.string	""
	.string	""
	.string	"\377"
	.string	""
	.string	""
	.string	"\377"
	.string	""
	.string	""
	.string	"\377"
	.string	""
	.string	""
	.string	"\377"
	.string	""
	.string	""
	.string	"\377"
	.string	""
	.string	""
	.string	"\377"
	.string	""
	.string	""
	.string	"\377"
	.string	""
	.string	""
	.string	"\377"
	.string	""
	.string	""
	.string	"\377"
	.string	""
	.string	""
	.string	"\377"
	.string	""
	.string	""
	.string	"\377"
	.string	""
	.string	""
	.string	"\377"
	.string	""
	.string	""
	.string	"\377"
	.string	""
	.string	""
	.string	"\377"
	.string	""
	.string	""
	.string	"\377"
	.string	""
	.string	""
	.string	"\377"
	.string	""
	.string	""
	.string	"\377"
	.string	""
	.string	""
	.string	"\377"
	.string	""
	.string	""
	.string	"\377"
	.string	""
	.string	""
	.string	"\377"
	.string	""
	.string	""
	.string	"\377"
	.string	""
	.string	""
	.string	"\377"
	.string	""
	.string	""
	.string	"\377"
	.string	""
	.string	""
	.string	"\377"
	.string	""
	.string	""
	.string	"\377"
	.string	""
	.string	""
	.string	"\377"
	.string	""
	.string	""
	.string	"\377"
	.string	""
	.string	""
	.string	"\377"
	.string	""
	.string	""
	.string	"\377"
	.string	""
	.string	""
	.string	"\377"
	.string	""
	.string	""
	.string	"\377"
	.string	""
	.string	""
	.string	"\377"
	.string	""
	.string	""
	.string	"\377"
	.string	""
	.string	""
	.string	"\377"
	.string	""
	.string	""
	.string	"\377"
	.string	""
	.string	""
	.string	"\377"
	.string	""
	.string	""
	.string	"\377"
	.string	""
	.string	""
	.string	"\377"
	.string	""
	.string	""
	.string	"\377"
	.string	""
	.string	""
	.string	"\377"
	.string	""
	.string	""
	.string	"\377"
	.string	""
	.string	""
	.string	"\377"
	.string	""
	.string	""
	.string	"\377"
	.string	""
	.string	""
	.string	"\377\340\260"
	.string	"\377\340\260"
	.string	"\377\340\260"
	.string	"\377\340\260"
	.string	"\377"
	.string	""
	.string	""
	.string	"\377"
	.string	""
	.string	""
	.string	"\377"
	.string	""
	.string	""
	.string	"\377"
	.string	""
	.string	""
	.string	"\377"
	.string	""
	.string	""
	.string	"\377\340\260"
	.string	"\377\340\260"
	.string	"\377\340\260"
	.string	"\377\340\260"
	.string	"\377"
	.string	""
	.string	""
	.string	"\377"
	.string	""
	.string	""
	.string	"\377"
	.string	""
	.string	""
	.string	"\377"
	.string	""
	.string	""
	.string	"\377"
	.string	""
	.string	""
	.string	"\377"
	.string	""
	.string	""
	.string	"\377"
	.string	""
	.string	""
	.string	"\377"
	.string	""
	.string	""
	.string	"\377"
	.string	""
	.string	""
	.string	"\377"
	.string	""
	.string	""
	.string	"\377"
	.string	""
	.string	""
	.string	"\377"
	.string	""
	.string	""
	.string	"\377"
	.string	""
	.string	""
	.string	"\377"
	.string	""
	.string	""
	.string	"\377"
	.string	""
	.string	""
	.string	"\377"
	.string	""
	.string	""
	.string	"\377"
	.string	""
	.string	""
	.string	"\377"
	.string	""
	.string	""
	.string	"\377"
	.string	""
	.string	""
	.string	"\377"
	.string	""
	.string	""
	.string	"\377"
	.string	""
	.string	""
	.string	"\377"
	.string	""
	.string	""
	.string	"\377"
	.string	""
	.string	""
	.string	"\377"
	.string	""
	.string	""
	.string	"\377"
	.string	""
	.string	""
	.string	"\377"
	.string	""
	.string	""
	.string	"\377"
	.string	""
	.string	""
	.string	"\377"
	.string	""
	.string	""
	.string	"\377"
	.string	""
	.string	""
	.string	"\377"
	.string	""
	.string	""
	.string	"\377"
	.string	""
	.string	""
	.string	"\377"
	.string	""
	.string	""
	.string	"\377"
	.string	""
	.string	""
	.string	"\377"
	.string	""
	.string	""
	.string	"\377"
	.string	""
	.string	""
	.string	"\377"
	.string	""
	.string	""
	.string	"\377"
	.string	""
	.string	""
	.string	"\377"
	.string	""
	.string	""
	.string	"\377"
	.string	""
	.string	""
	.string	"\377"
	.string	""
	.string	""
	.string	"\377"
	.string	""
	.string	""
	.string	"\377"
	.string	""
	.string	""
	.string	"\377\340\260"
	.string	"\377\340\260"
	.string	"\377\340\260"
	.string	"\377"
	.string	""
	.string	""
	.string	"\377"
	.string	""
	.string	""
	.string	"\377"
	.string	""
	.string	""
	.string	"\377"
	.string	""
	.string	""
	.string	"\377"
	.string	""
	.string	""
	.ascii	"\377"
	.string	""
	.string	""
	.string	""
	.string	"\377"
	.string	""
	.string	""
	.string	"\377"
	.string	""
	.string	""
	.string	"\377"
	.string	""
	.string	""
	.string	"\377"
	.string	""
	.string	""
	.string	"\377"
	.string	""
	.string	""
	.string	"\377"
	.string	""
	.string	""
	.string	"\377"
	.string	""
	.string	""
	.string	"\377"
	.string	""
	.string	""
	.string	"\377"
	.string	""
	.string	""
	.string	"\377"
	.string	""
	.string	""
	.string	"\377"
	.string	""
	.string	""
	.string	"\377"
	.string	""
	.string	""
	.string	"\377"
	.string	""
	.string	""
	.string	"\377"
	.string	""
	.string	""
	.string	"\377"
	.string	""
	.string	""
	.string	"\377"
	.string	""
	.string	""
	.string	"\377"
	.string	""
	.string	""
	.string	"\377"
	.string	""
	.string	""
	.string	"\377"
	.string	""
	.string	""
	.string	"\377"
	.string	""
	.string	""
	.string	"\377"
	.string	""
	.string	""
	.string	"\377"
	.string	""
	.string	""
	.string	"\377"
	.string	""
	.string	""
	.string	"\377\340\260"
	.string	"\377\340\260"
	.string	"\377\340\260"
	.string	"\377\340\260"
	.string	"\377"
	.string	""
	.string	""
	.string	"\377"
	.string	""
	.string	""
	.string	"\377"
	.string	""
	.string	""
	.string	"\377"
	.string	""
	.string	""
	.string	"\377"
	.string	""
	.string	""
	.string	"\377"
	.string	""
	.string	""
	.string	"\377"
	.string	""
	.string	""
	.string	"\377"
	.string	""
	.string	""
	.string	"\377"
	.string	""
	.string	""
	.string	"\377"
	.string	""
	.string	""
	.string	"\377"
	.string	""
	.string	""
	.string	"\377"
	.string	""
	.string	""
	.string	"\377"
	.string	""
	.string	""
	.string	"\377"
	.string	""
	.string	""
	.string	"\377"
	.string	""
	.string	""
	.string	"\377"
	.string	""
	.string	""
	.string	"\377"
	.string	""
	.string	""
	.string	"\377"
	.string	""
	.string	""
	.string	"\377"
	.string	""
	.string	""
	.string	"\377"
	.string	""
	.string	""
	.string	"\377"
	.string	""
	.string	""
	.string	"\377"
	.string	""
	.string	""
	.string	"\377"
	.string	""
	.string	""
	.string	"\377"
	.string	""
	.string	""
	.string	"\377"
	.string	""
	.string	""
	.string	"\377"
	.string	""
	.string	""
	.string	"\377"
	.string	""
	.string	""
	.string	"\377"
	.string	""
	.string	""
	.string	"\377"
	.string	""
	.string	""
	.string	"\377"
	.string	""
	.string	""
	.string	"\377"
	.string	""
	.string	""
	.string	"\377"
	.string	""
	.string	""
	.string	"\377\340\260"
	.string	"\377\340\260"
	.string	"\377\340\260"
	.string	"\377\340\260"
	.string	"\377\340\260"
	.string	"\377\340\260"
	.string	"\377\340\260"
	.string	"\377"
	.string	""
	.string	""
	.string	"\377"
	.string	""
	.string	""
	.string	"\377"
	.string	""
	.string	""
	.string	"\377"
	.string	""
	.string	""
	.string	"\377"
	.string	""
	.string	""
	.string	"\377"
	.string	""
	.string	""
	.string	"\377"
	.string	""
	.string	""
	.string	"\377"
	.string	""
	.string	""
	.string	"\377\340\260"
	.string	"\377\340\260"
	.string	"\377\340\260"
	.string	"\377\340\260"
	.string	"\377"
	.string	""
	.string	""
	.string	"\377"
	.string	""
	.string	""
	.string	"\377"
	.string	""
	.string	""
	.string	"\377"
	.string	""
	.string	""
	.string	"\377"
	.string	""
	.string	""
	.string	"\377"
	.string	""
	.string	""
	.string	"\377"
	.string	""
	.string	""
	.string	"\377"
	.string	""
	.string	""
	.string	"\377"
	.string	""
	.string	""
	.string	"\377\340\260"
	.string	"\377\340\260"
	.string	"\377\340\260"
	.string	"\377\340\260"
	.string	"\377\340\260"
	.string	"\377\340\260"
	.string	"\377\340\260"
	.string	"\377\340\260"
	.string	"\377\340\260"
	.string	"\377\340\260"
	.string	"\377\340\260"
	.string	"\377\340\260"
	.string	"\377\340\260"
	.string	"\377\340\260"
	.string	"\377\340\260"
	.string	"\377"
	.string	""
	.string	""
	.string	"\377\340\260"
	.string	"\377\340\260"
	.string	"\377\340\260"
	.string	"\377\340\260"
	.string	"\377\340\260"
	.string	"\377\340\260"
	.string	"\377\340\260"
	.string	"\377\340\260"
	.string	"\377\340\260"
	.string	"\377\340\260"
	.string	"\377\340\260"
	.string	"\377"
	.string	""
	.string	""
	.string	"\377"
	.string	""
	.string	""
	.string	"\377"
	.string	""
	.string	""
	.string	"\377"
	.string	""
	.string	""
	.string	"\377"
	.string	""
	.string	""
	.string	"\377"
	.string	""
	.string	""
	.string	"\377\340\260"
	.string	"\377\340\260"
	.string	"\377\340\260"
	.string	"\377\340\260"
	.string	"\377"
	.string	""
	.string	""
	.string	"\377"
	.string	""
	.string	""
	.string	"\377"
	.string	""
	.string	""
	.string	"\377"
	.string	""
	.string	""
	.string	"\377"
	.string	""
	.string	""
	.string	"\377"
	.string	""
	.string	""
	.string	"\377"
	.string	""
	.string	""
	.string	"\377\340\260"
	.string	"\377\340\260"
	.string	"\377\340\260"
	.string	"\377\340\260"
	.string	"\377"
	.string	""
	.string	""
	.string	"\377\340\260"
	.string	"\377\340\260"
	.string	"\377\340\260"
	.string	"\377\340\260"
	.string	"\377\340\260"
	.string	"\377\340\260"
	.string	"\377\340\260"
	.string	"\377\340\260"
	.string	"\377\340\260"
	.string	"\377\340\260"
	.string	"\377\340\260"
	.string	"\377\340\260"
	.string	"\377\340\260"
	.string	"\377\340\260"
	.string	"\377\340\260"
	.string	"\377"
	.string	""
	.string	""
	.string	"\377"
	.string	""
	.string	""
	.string	"\377"
	.string	""
	.string	""
	.string	"\377"
	.string	""
	.string	""
	.string	"\377"
	.string	""
	.string	""
	.string	"\377\340\260"
	.string	"\377\340\260"
	.string	"\377\340\260"
	.string	"\377\340\260"
	.string	"\377\340\260"
	.string	"\377\340\260"
	.string	"\377\340\260"
	.string	"\377\340\260"
	.string	"\377\340\260"
	.string	"\377\340\260"
	.string	"\377\340\260"
	.string	"\377"
	.string	""
	.string	""
	.string	"\377\340\260"
	.string	"\377\340\260"
	.string	"\377\340\260"
	.string	"\377\340\260"
	.string	"\377\340\260"
	.string	"\377\340\260"
	.string	"\377\340\260"
	.string	"\377\340\260"
	.string	"\377\340\260"
	.string	"\377\340\260"
	.string	"\377\340\260"
	.string	"\377\340\260"
	.string	"\377\340\260"
	.string	"\377\340\260"
	.string	"\377\340\260"
	.string	"\377"
	.string	""
	.string	""
	.string	"\377"
	.string	""
	.string	""
	.string	"\377"
	.string	""
	.string	""
	.string	"\377"
	.string	""
	.string	""
	.string	"\377"
	.string	""
	.string	""
	.string	"\377\340\260"
	.string	"\377\340\260"
	.string	"\377\340\260"
	.string	"\377\340\260"
	.string	"\377\340\260"
	.string	"\377\340\260"
	.string	"\377\340\260"
	.string	"\377"
	.string	""
	.string	""
	.string	"\377"
	.string	""
	.string	""
	.string	"\377"
	.string	""
	.string	""
	.string	"\377"
	.string	""
	.string	""
	.string	"\377"
	.string	""
	.string	""
	.string	"\377"
	.string	""
	.string	""
	.string	"\377"
	.string	""
	.string	""
	.string	"\377"
	.string	""
	.string	""
	.string	"\377"
	.string	""
	.string	""
	.string	"\377\340\260"
	.string	"\377\340\260"
	.string	"\377\340\260"
	.string	"\377\340\260"
	.string	"\377\340\260"
	.string	"\377\340\260"
	.string	"\377\340\260"
	.string	"\377"
	.string	""
	.string	""
	.string	"\377"
	.string	""
	.string	""
	.string	"\377"
	.string	""
	.string	""
	.string	"\377"
	.string	""
	.string	""
	.string	"\377"
	.string	""
	.string	""
	.string	"\377"
	.string	""
	.string	""
	.string	"\377"
	.string	""
	.string	""
	.string	"\377"
	.string	""
	.string	""
	.string	"\377"
	.string	""
	.string	""
	.string	"\377"
	.string	""
	.string	""
	.string	"\377"
	.string	""
	.string	""
	.string	"\377"
	.string	""
	.string	""
	.string	"\377"
	.string	""
	.string	""
	.string	"\377"
	.string	""
	.string	""
	.string	"\377"
	.string	""
	.string	""
	.string	"\377"
	.string	""
	.string	""
	.string	"\377"
	.string	""
	.string	""
	.string	"\377"
	.string	""
	.string	""
	.string	"\377"
	.string	""
	.string	""
	.string	"\377"
	.string	""
	.string	""
	.string	"\377"
	.string	""
	.string	""
	.string	"\377"
	.string	""
	.string	""
	.string	"\377"
	.string	""
	.string	""
	.string	"\377"
	.string	""
	.string	""
	.string	"\377"
	.string	""
	.string	""
	.string	"\377"
	.string	""
	.string	""
	.string	"\377"
	.string	""
	.string	""
	.string	"\377"
	.string	""
	.string	""
	.string	"\377"
	.string	""
	.string	""
	.string	"\377"
	.string	""
	.string	""
	.string	"\377"
	.string	""
	.string	""
	.string	"\377"
	.string	""
	.string	""
	.string	"\377"
	.string	""
	.string	""
	.string	"\377"
	.string	""
	.string	""
	.string	"\377"
	.string	""
	.string	""
	.string	"\377"
	.string	""
	.string	""
	.string	"\377"
	.string	""
	.string	""
	.string	"\377"
	.string	""
	.string	""
	.string	"\377"
	.string	""
	.string	""
	.string	"\377"
	.string	""
	.string	""
	.string	"\377"
	.string	""
	.string	""
	.string	"\377"
	.string	""
	.string	""
	.string	"\377"
	.string	""
	.string	""
	.string	"\377"
	.string	""
	.string	""
	.string	"\377"
	.string	""
	.string	""
	.string	"\377"
	.string	""
	.string	""
	.string	"\377"
	.string	""
	.string	""
	.string	"\377"
	.string	""
	.string	""
	.string	"\377"
	.string	""
	.string	""
	.string	"\377"
	.string	""
	.string	""
	.string	"\377"
	.string	""
	.string	""
	.string	"\377"
	.string	""
	.string	""
	.string	"\377"
	.string	""
	.string	""
	.string	"\377"
	.string	""
	.string	""
	.string	"\377"
	.string	""
	.string	""
	.string	"\377"
	.string	""
	.string	""
	.string	"\377"
	.string	""
	.string	""
	.string	"\377"
	.string	""
	.string	""
	.string	"\377"
	.string	""
	.string	""
	.string	"\377"
	.string	""
	.string	""
	.string	"\377"
	.string	""
	.string	""
	.string	"\377"
	.string	""
	.string	""
	.string	"\377"
	.string	""
	.string	""
	.string	"\377"
	.string	""
	.string	""
	.string	"\377"
	.string	""
	.string	""
	.string	"\377"
	.string	""
	.string	""
	.string	"\377"
	.string	""
	.string	""
	.string	"\377"
	.string	""
	.string	""
	.string	"\377"
	.string	""
	.string	""
	.string	"\377"
	.string	""
	.string	""
	.string	"\377"
	.string	""
	.string	""
	.string	"\377"
	.string	""
	.string	""
	.string	"\377"
	.string	""
	.string	""
	.string	"\377"
	.string	""
	.string	""
	.string	"\377"
	.string	""
	.string	""
	.string	"\377"
	.string	""
	.string	""
	.string	"\377"
	.string	""
	.string	""
	.string	"\377"
	.string	""
	.string	""
	.string	"\377"
	.string	""
	.string	""
	.string	"\377"
	.string	""
	.string	""
	.string	"\377"
	.string	""
	.string	""
	.string	"\377"
	.string	""
	.string	""
	.string	"\377"
	.string	""
	.string	""
	.string	"\377\340\260"
	.string	"\377\340\260"
	.string	"\377\340\260"
	.string	"\377\340\260"
	.string	"\377\340\260"
	.string	"\377\340\260"
	.string	"\377\340\260"
	.string	"\377\340\260"
	.string	"\377\340\260"
	.string	"\377\340\260"
	.string	"\377"
	.string	""
	.string	""
	.string	"\377"
	.string	""
	.string	""
	.string	"\377"
	.string	""
	.string	""
	.string	"\377"
	.string	""
	.string	""
	.string	"\377"
	.string	""
	.string	""
	.string	"\377"
	.string	""
	.string	""
	.string	"\377"
	.string	""
	.string	""
	.string	"\377"
	.string	""
	.string	""
	.string	"\377"
	.string	""
	.string	""
	.string	"\377"
	.string	""
	.string	""
	.string	"\377"
	.string	""
	.string	""
	.string	"\377"
	.string	""
	.string	""
	.string	"\377"
	.string	""
	.string	""
	.string	"\377"
	.string	""
	.string	""
	.string	"\377"
	.string	""
	.string	""
	.string	"\377"
	.string	""
	.string	""
	.string	"\377"
	.string	""
	.string	""
	.string	"\377"
	.string	""
	.string	""
	.string	"\377"
	.string	""
	.string	""
	.string	"\377"
	.string	""
	.string	""
	.string	"\377"
	.string	""
	.string	""
	.string	"\377"
	.string	""
	.string	""
	.string	"\377"
	.string	""
	.string	""
	.string	"\377"
	.string	""
	.string	""
	.string	"\377"
	.string	""
	.string	""
	.string	"\377"
	.string	""
	.string	""
	.string	"\377"
	.string	""
	.string	""
	.string	"\377\340\260"
	.string	"\377\340\260"
	.string	"\377\340\260"
	.string	"\377\340\260"
	.string	"\377\340\260"
	.string	"\377\340\260"
	.string	"\377\340\260"
	.string	"\377"
	.string	""
	.string	""
	.string	"\377"
	.string	""
	.string	""
	.string	"\377"
	.string	""
	.string	""
	.string	"\377"
	.string	""
	.string	""
	.string	"\377"
	.string	""
	.string	""
	.string	"\377\340\260"
	.string	"\377\340\260"
	.string	"\377\340\260"
	.string	"\377\340\260"
	.string	"\377\340\260"
	.string	"\377\340\260"
	.string	"\377\340\260"
	.string	"\377\340\260"
	.string	"\377\340\260"
	.string	"\377\340\260"
	.string	"\377\340\260"
	.string	"\377"
	.string	""
	.string	""
	.string	"\377"
	.string	""
	.string	""
	.string	"\377"
	.string	""
	.string	""
	.string	"\377"
	.string	""
	.string	""
	.string	"\377"
	.string	""
	.string	""
	.string	"\377"
	.string	""
	.string	""
	.string	"\377"
	.string	""
	.string	""
	.string	"\377"
	.string	""
	.string	""
	.string	"\377"
	.string	""
	.string	""
	.string	"\377\340\260"
	.string	"\377\340\260"
	.string	"\377\340\260"
	.string	"\377\340\260"
	.string	"\377\340\260"
	.string	"\377\340\260"
	.string	"\377\340\260"
	.string	"\377\340\260"
	.string	"\377\340\260"
	.string	"\377\340\260"
	.string	"\377\340\260"
	.string	"\377"
	.string	""
	.string	""
	.string	"\377\340\260"
	.string	"\377\340\260"
	.string	"\377\340\260"
	.string	"\377\340\260"
	.string	"\377\340\260"
	.string	"\377\340\260"
	.string	"\377\340\260"
	.string	"\377\340\260"
	.string	"\377\340\260"
	.string	"\377\340\260"
	.string	"\377\340\260"
	.string	"\377"
	.string	""
	.string	""
	.string	"\377"
	.string	""
	.string	""
	.string	"\377"
	.string	""
	.string	""
	.string	"\377"
	.string	""
	.string	""
	.string	"\377"
	.string	""
	.string	""
	.string	"\377"
	.string	""
	.string	""
	.string	"\377"
	.string	""
	.string	""
	.string	"\377"
	.string	""
	.string	""
	.string	"\377"
	.string	""
	.string	""
	.string	"\377\340\260"
	.string	"\377\340\260"
	.string	"\377\340\260"
	.string	"\377\340\260"
	.string	"\377\340\260"
	.string	"\377\340\260"
	.string	"\377\340\260"
	.string	"\377\340\260"
	.string	"\377\340\260"
	.string	"\377\340\260"
	.string	"\377\340\260"
	.string	"\377"
	.string	""
	.string	""
	.string	"\377"
	.string	""
	.string	""
	.string	"\377"
	.string	""
	.string	""
	.string	"\377"
	.string	""
	.string	""
	.string	"\377"
	.string	""
	.string	""
	.string	"\377\340\260"
	.string	"\377\340\260"
	.string	"\377\340\260"
	.string	"\377\340\260"
	.string	"\377\340\260"
	.string	"\377\340\260"
	.string	"\377\340\260"
	.string	"\377\340\260"
	.string	"\377\340\260"
	.string	"\377\340\260"
	.string	"\377\340\260"
	.string	"\377"
	.string	""
	.string	""
	.string	"\377"
	.string	""
	.string	""
	.string	"\377"
	.string	""
	.string	""
	.string	"\377"
	.string	""
	.string	""
	.string	"\377"
	.string	""
	.string	""
	.string	"\377\340\260"
	.string	"\377\340\260"
	.string	"\377\340\260"
	.string	"\377\340\260"
	.string	"\377\340\260"
	.string	"\377\340\260"
	.string	"\377\340\260"
	.string	"\377"
	.string	""
	.string	""
	.string	"\377"
	.string	""
	.string	""
	.string	"\377"
	.string	""
	.string	""
	.string	"\377"
	.string	""
	.string	""
	.string	"\377"
	.string	""
	.string	""
	.string	"\377"
	.string	""
	.string	""
	.string	"\377\340\260"
	.string	"\377\340\260"
	.string	"\377\340\260"
	.string	"\377\340\260"
	.string	"\377"
	.string	""
	.string	""
	.string	"\377"
	.string	""
	.string	""
	.string	"\377"
	.string	""
	.string	""
	.string	"\377"
	.string	""
	.string	""
	.string	"\377"
	.string	""
	.string	""
	.string	"\377"
	.string	""
	.string	""
	.string	"\377"
	.string	""
	.string	""
	.string	"\377\340\260"
	.string	"\377\340\260"
	.string	"\377\340\260"
	.string	"\377\340\260"
	.string	"\377"
	.string	""
	.string	""
	.string	"\377\340\260"
	.string	"\377\340\260"
	.string	"\377\340\260"
	.string	"\377\340\260"
	.string	"\377\340\260"
	.string	"\377\340\260"
	.string	"\377\340\260"
	.string	"\377\340\260"
	.string	"\377\340\260"
	.string	"\377\340\260"
	.string	"\377\340\260"
	.string	"\377\340\260"
	.string	"\377\340\260"
	.string	"\377\340\260"
	.string	"\377\340\260"
	.string	"\377"
	.string	""
	.string	""
	.string	"\377"
	.string	""
	.string	""
	.string	"\377"
	.string	""
	.string	""
	.string	"\377\340\260"
	.string	"\377\340\260"
	.string	"\377\340\260"
	.string	"\377\340\260"
	.string	"\377\340\260"
	.string	"\377\340\260"
	.string	"\377\340\260"
	.string	"\377\340\260"
	.string	"\377\340\260"
	.string	"\377\340\260"
	.string	"\377\340\260"
	.string	"\377\340\260"
	.string	"\377\340\260"
	.string	"\377"
	.string	""
	.string	""
	.string	"\377\340\260"
	.string	"\377\340\260"
	.string	"\377\340\260"
	.string	"\377\340\260"
	.string	"\377\340\260"
	.string	"\377\340\260"
	.string	"\377\340\260"
	.string	"\377\340\260"
	.string	"\377\340\260"
	.string	"\377\340\260"
	.string	"\377\340\260"
	.ascii	"\377"
	.string	"\340\260"
	.string	"\377\340\260"
	.string	"\377\340\260"
	.string	"\377\340\260"
	.string	"\377"
	.string	""
	.string	""
	.string	"\377"
	.string	""
	.string	""
	.string	"\377"
	.string	""
	.string	""
	.string	"\377\340\260"
	.string	"\377\340\260"
	.string	"\377\340\260"
	.string	"\377\340\260"
	.string	"\377\340\260"
	.string	"\377\340\260"
	.string	"\377\340\260"
	.string	"\377\340\260"
	.string	"\377\340\260"
	.string	"\377\340\260"
	.string	"\377\340\260"
	.string	"\377"
	.string	""
	.string	""
	.string	"\377"
	.string	""
	.string	""
	.string	"\377"
	.string	""
	.string	""
	.string	"\377"
	.string	""
	.string	""
	.string	"\377"
	.string	""
	.string	""
	.string	"\377\340\260"
	.string	"\377\340\260"
	.string	"\377\340\260"
	.string	"\377\340\260"
	.string	"\377\340\260"
	.string	"\377\340\260"
	.string	"\377\340\260"
	.string	"\377\340\260"
	.string	"\377\340\260"
	.string	"\377\340\260"
	.string	"\377\340\260"
	.string	"\377"
	.string	""
	.string	""
	.string	"\377"
	.string	""
	.string	""
	.string	"\377"
	.string	""
	.string	""
	.string	"\377"
	.string	""
	.string	""
	.string	"\377"
	.string	""
	.string	""
	.string	"\377"
	.string	""
	.string	""
	.string	"\377"
	.string	""
	.string	""
	.string	"\377"
	.string	""
	.string	""
	.string	"\377"
	.string	""
	.string	""
	.string	"\377"
	.string	""
	.string	""
	.string	"\377"
	.string	""
	.string	""
	.string	"\377"
	.string	""
	.string	""
	.string	"\377"
	.string	""
	.string	""
	.string	"\377"
	.string	""
	.string	""
	.string	"\377"
	.string	""
	.string	""
	.string	"\377"
	.string	""
	.string	""
	.string	"\377"
	.string	""
	.string	""
	.string	"\377"
	.string	""
	.string	""
	.string	"\377"
	.string	""
	.string	""
	.string	"\377"
	.string	""
	.string	""
	.string	"\377"
	.string	""
	.string	""
	.string	"\377"
	.string	""
	.string	""
	.string	"\377"
	.string	""
	.string	""
	.string	"\377"
	.string	""
	.string	""
	.string	"\377"
	.string	""
	.string	""
	.string	"\377"
	.string	""
	.string	""
	.string	"\377"
	.string	""
	.string	""
	.string	"\377"
	.string	""
	.string	""
	.string	"\377"
	.string	""
	.string	""
	.string	"\377"
	.string	""
	.string	""
	.string	"\377"
	.string	""
	.string	""
	.string	"\377"
	.string	""
	.string	""
	.string	"\377"
	.string	""
	.string	""
	.string	"\377"
	.string	""
	.string	""
	.string	"\377"
	.string	""
	.string	""
	.string	"\377"
	.string	""
	.string	""
	.string	"\377"
	.string	""
	.string	""
	.string	"\377"
	.string	""
	.string	""
	.string	"\377"
	.string	""
	.string	""
	.string	"\377"
	.string	""
	.string	""
	.string	"\377"
	.string	""
	.string	""
	.string	"\377"
	.string	""
	.string	""
	.string	"\377"
	.string	""
	.string	""
	.string	"\377"
	.string	""
	.string	""
	.string	"\377"
	.string	""
	.string	""
	.string	"\377"
	.string	""
	.string	""
	.string	"\377"
	.string	""
	.string	""
	.string	"\377"
	.string	""
	.string	""
	.string	"\377"
	.string	""
	.string	""
	.string	"\377"
	.string	""
	.string	""
	.string	"\377"
	.string	""
	.string	""
	.string	"\377"
	.string	""
	.string	""
	.string	"\377"
	.string	""
	.string	""
	.string	"\377"
	.string	""
	.string	""
	.string	"\377"
	.string	""
	.string	""
	.string	"\377"
	.string	""
	.string	""
	.string	"\377"
	.string	""
	.string	""
	.string	"\377"
	.string	""
	.string	""
	.string	"\377"
	.string	""
	.string	""
	.string	"\377"
	.string	""
	.string	""
	.string	"\377"
	.string	""
	.string	""
	.string	"\377"
	.string	""
	.string	""
	.string	"\377"
	.string	""
	.string	""
	.string	"\377"
	.string	""
	.string	""
	.string	"\377"
	.string	""
	.string	""
	.string	"\377"
	.string	""
	.string	""
	.string	"\377"
	.string	""
	.string	""
	.string	"\377"
	.string	""
	.string	""
	.string	"\377"
	.string	""
	.string	""
	.string	"\377"
	.string	""
	.string	""
	.string	"\377"
	.string	""
	.string	""
	.string	"\377"
	.string	""
	.string	""
	.string	"\377"
	.string	""
	.string	""
	.string	"\377"
	.string	""
	.string	""
	.string	"\377"
	.string	""
	.string	""
	.string	"\377"
	.string	""
	.string	""
	.string	"\377"
	.string	""
	.string	""
	.string	"\377"
	.string	""
	.string	""
	.string	"\377"
	.string	""
	.string	""
	.string	"\377"
	.string	""
	.string	""
	.string	"\377"
	.string	""
	.string	""
	.string	"\377\340\260"
	.string	"\377\340\260"
	.string	"\377\340\260"
	.string	"\377\340\260"
	.string	"\377\340\260"
	.string	"\377\340\260"
	.string	"\377\340\260"
	.string	"\377\340\260"
	.string	"\377\340\260"
	.string	"\377\340\260"
	.string	"\377\340\260"
	.string	"\377"
	.string	""
	.string	""
	.string	"\377"
	.string	""
	.string	""
	.string	"\377"
	.string	""
	.string	""
	.string	"\377"
	.string	""
	.string	""
	.string	"\377"
	.string	""
	.string	""
	.string	"\377"
	.string	""
	.string	""
	.string	"\377"
	.string	""
	.string	""
	.string	"\377"
	.string	""
	.string	""
	.string	"\377"
	.string	""
	.string	""
	.string	"\377"
	.string	""
	.string	""
	.string	"\377"
	.string	""
	.string	""
	.string	"\377"
	.string	""
	.string	""
	.string	"\377"
	.string	""
	.string	""
	.string	"\377"
	.string	""
	.string	""
	.string	"\377"
	.string	""
	.string	""
	.string	"\377"
	.string	""
	.string	""
	.string	"\377"
	.string	""
	.string	""
	.string	"\377"
	.string	""
	.string	""
	.string	"\377"
	.string	""
	.string	""
	.string	"\377"
	.string	""
	.string	""
	.string	"\377"
	.string	""
	.string	""
	.string	"\377"
	.string	""
	.string	""
	.string	"\377"
	.string	""
	.string	""
	.string	"\377"
	.string	""
	.string	""
	.string	"\377\340\260"
	.string	"\377\340\260"
	.string	"\377\340\260"
	.string	"\377\340\260"
	.string	"\377\340\260"
	.string	"\377\340\260"
	.string	"\377\340\260"
	.string	"\377\340\260"
	.string	"\377\340\260"
	.string	"\377\340\260"
	.string	"\377\340\260"
	.string	"\377"
	.string	""
	.string	""
	.string	"\377"
	.string	""
	.string	""
	.string	"\377"
	.string	""
	.string	""
	.string	"\377\340\260"
	.string	"\377\340\260"
	.string	"\377\340\260"
	.string	"\377\340\260"
	.string	"\377\340\260"
	.string	"\377\340\260"
	.string	"\377\340\260"
	.string	"\377\340\260"
	.string	"\377\340\260"
	.string	"\377\340\260"
	.string	"\377\340\260"
	.string	"\377\340\260"
	.string	"\377\340\260"
	.string	"\377"
	.string	""
	.string	""
	.string	"\377"
	.string	""
	.string	""
	.string	"\377"
	.string	""
	.string	""
	.string	"\377"
	.string	""
	.string	""
	.string	"\377"
	.string	""
	.string	""
	.string	"\377\340\260"
	.string	"\377\340\260"
	.string	"\377\340\260"
	.string	"\377\340\260"
	.string	"\377\340\260"
	.string	"\377\340\260"
	.string	"\377\340\260"
	.string	"\377\340\260"
	.string	"\377\340\260"
	.string	"\377\340\260"
	.string	"\377\340\260"
	.string	"\377\340\260"
	.string	"\377\340\260"
	.string	"\377"
	.string	""
	.string	""
	.string	"\377\340\260"
	.string	"\377\340\260"
	.string	"\377\340\260"
	.string	"\377\340\260"
	.string	"\377\340\260"
	.string	"\377\340\260"
	.string	"\377\340\260"
	.string	"\377\340\260"
	.string	"\377\340\260"
	.string	"\377\340\260"
	.string	"\377\340\260"
	.string	"\377\340\260"
	.string	"\377\340\260"
	.string	"\377"
	.string	""
	.string	""
	.string	"\377"
	.string	""
	.string	""
	.string	"\377"
	.string	""
	.string	""
	.string	"\377"
	.string	""
	.string	""
	.string	"\377"
	.string	""
	.string	""
	.string	"\377\340\260"
	.string	"\377\340\260"
	.string	"\377\340\260"
	.string	"\377\340\260"
	.string	"\377\340\260"
	.string	"\377\340\260"
	.string	"\377\340\260"
	.string	"\377\340\260"
	.string	"\377\340\260"
	.string	"\377\340\260"
	.string	"\377\340\260"
	.string	"\377\340\260"
	.string	"\377\340\260"
	.string	"\377"
	.string	""
	.string	""
	.string	"\377"
	.string	""
	.string	""
	.string	"\377"
	.string	""
	.string	""
	.string	"\377\340\260"
	.string	"\377\340\260"
	.string	"\377\340\260"
	.string	"\377\340\260"
	.string	"\377\340\260"
	.string	"\377\340\260"
	.string	"\377\340\260"
	.string	"\377\340\260"
	.string	"\377\340\260"
	.string	"\377\340\260"
	.string	"\377\340\260"
	.string	"\377\340\260"
	.string	"\377\340\260"
	.string	"\377"
	.string	""
	.string	""
	.string	"\377"
	.string	""
	.string	""
	.string	"\377"
	.string	""
	.string	""
	.string	"\377\340\260"
	.string	"\377\340\260"
	.string	"\377\340\260"
	.string	"\377\340\260"
	.string	"\377\340\260"
	.string	"\377\340\260"
	.string	"\377\340\260"
	.string	"\377\340\260"
	.string	"\377\340\260"
	.string	"\377\340\260"
	.string	"\377\340\260"
	.string	"\377"
	.string	""
	.string	""
	.string	"\377"
	.string	""
	.string	""
	.string	"\377"
	.string	""
	.string	""
	.string	"\377"
	.string	""
	.string	""
	.string	"\377\340\260"
	.string	"\377\340\260"
	.string	"\377\340\260"
	.string	"\377\340\260"
	.string	"\377"
	.string	""
	.string	""
	.string	"\377"
	.string	""
	.string	""
	.string	"\377"
	.string	""
	.string	""
	.string	"\377"
	.string	""
	.string	""
	.string	"\377"
	.string	""
	.string	""
	.string	"\377"
	.string	""
	.string	""
	.string	"\377"
	.string	""
	.string	""
	.string	"\377\340\260"
	.string	"\377\340\260"
	.string	"\377\340\260"
	.string	"\377\340\260"
	.string	"\377"
	.string	""
	.string	""
	.string	"\377\340\260"
	.string	"\377\340\260"
	.string	"\377\340\260"
	.string	"\377\340\260"
	.string	"\377\340\260"
	.string	"\377\340\260"
	.string	"\377\340\260"
	.string	"\377\340\260"
	.string	"\377\340\260"
	.string	"\377\340\260"
	.string	"\377\340\260"
	.string	"\377\340\260"
	.string	"\377\340\260"
	.string	"\377\340\260"
	.string	"\377\340\260"
	.string	"\377"
	.string	""
	.string	""
	.string	"\377"
	.string	""
	.string	""
	.string	"\377\340\260"
	.string	"\377\340\260"
	.string	"\377\340\260"
	.string	"\377\340\260"
	.string	"\377\340\260"
	.string	"\377\340\260"
	.string	"\377\340\260"
	.string	"\377\340\260"
	.string	"\377\340\260"
	.string	"\377\340\260"
	.string	"\377\340\260"
	.string	"\377\340\260"
	.string	"\377\340\260"
	.string	"\377\340\260"
	.string	"\377"
	.string	""
	.string	""
	.string	"\377\340\260"
	.string	"\377\340\260"
	.string	"\377\340\260"
	.string	"\377\340\260"
	.string	"\377\340\260"
	.string	"\377\340\260"
	.string	"\377\340\260"
	.string	"\377\340\260"
	.string	"\377\340\260"
	.string	"\377\340\260"
	.string	"\377\340\260"
	.string	"\377\340\260"
	.string	"\377\340\260"
	.string	"\377\340\260"
	.string	"\377\340\260"
	.string	"\377"
	.string	""
	.string	""
	.string	"\377"
	.string	""
	.string	""
	.string	"\377\340\260"
	.string	"\377\340\260"
	.string	"\377\340\260"
	.string	"\377\340\260"
	.string	"\377\340\260"
	.string	"\377\340\260"
	.string	"\377\340\260"
	.string	"\377\340\260"
	.string	"\377\340\260"
	.string	"\377\340\260"
	.string	"\377\340\260"
	.string	"\377\340\260"
	.string	"\377\340\260"
	.string	"\377"
	.string	""
	.string	""
	.string	"\377"
	.string	""
	.string	""
	.string	"\377"
	.string	""
	.string	""
	.string	"\377\340\260"
	.string	"\377\340\260"
	.string	"\377\340\260"
	.string	"\377\340\260"
	.string	"\377\340\260"
	.string	"\377\340\260"
	.string	"\377\340\260"
	.string	"\377\340\260"
	.string	"\377\340\260"
	.string	"\377\340\260"
	.string	"\377\340\260"
	.string	"\377\340\260"
	.string	"\377\340\260"
	.string	"\377"
	.string	""
	.string	""
	.string	"\377"
	.string	""
	.string	""
	.string	"\377"
	.string	""
	.string	""
	.string	"\377"
	.string	""
	.string	""
	.string	"\377"
	.string	""
	.string	""
	.string	"\377"
	.string	""
	.string	""
	.string	"\377"
	.string	""
	.string	""
	.string	"\377"
	.string	""
	.string	""
	.string	"\377"
	.string	""
	.string	""
	.string	"\377"
	.string	""
	.string	""
	.string	"\377"
	.string	""
	.string	""
	.string	"\377"
	.string	""
	.string	""
	.string	"\377"
	.string	""
	.string	""
	.string	"\377"
	.string	""
	.string	""
	.string	"\377"
	.string	""
	.string	""
	.string	"\377"
	.string	""
	.string	""
	.string	"\377"
	.string	""
	.string	""
	.string	"\377"
	.string	""
	.string	""
	.string	"\377"
	.string	""
	.string	""
	.string	"\377"
	.string	""
	.string	""
	.string	"\377"
	.string	""
	.string	""
	.string	"\377"
	.string	""
	.string	""
	.string	"\377"
	.string	""
	.string	""
	.string	"\377"
	.string	""
	.string	""
	.string	"\377"
	.string	""
	.string	""
	.string	"\377"
	.string	""
	.string	""
	.string	"\377"
	.string	""
	.string	""
	.string	"\377"
	.string	""
	.string	""
	.string	"\377"
	.string	""
	.string	""
	.string	"\377"
	.string	""
	.string	""
	.string	"\377"
	.string	""
	.string	""
	.string	"\377"
	.string	""
	.string	""
	.string	"\377"
	.string	""
	.string	""
	.string	"\377"
	.string	""
	.string	""
	.string	"\377"
	.string	""
	.string	""
	.string	"\377"
	.string	""
	.string	""
	.string	"\377"
	.string	""
	.string	""
	.string	"\377"
	.string	""
	.string	""
	.string	"\377"
	.string	""
	.string	""
	.string	"\377"
	.string	""
	.string	""
	.string	"\377"
	.string	""
	.string	""
	.string	"\377"
	.string	""
	.string	""
	.string	"\377"
	.string	""
	.string	""
	.string	"\377"
	.string	""
	.string	""
	.string	"\377"
	.string	""
	.string	""
	.string	"\377"
	.string	""
	.string	""
	.string	"\377"
	.string	""
	.string	""
	.string	"\377"
	.string	""
	.string	""
	.string	"\377"
	.string	""
	.string	""
	.string	"\377"
	.string	""
	.string	""
	.string	"\377"
	.string	""
	.string	""
	.string	"\377"
	.string	""
	.string	""
	.string	"\377"
	.string	""
	.string	""
	.string	"\377"
	.string	""
	.string	""
	.string	"\377"
	.string	""
	.string	""
	.string	"\377"
	.string	""
	.string	""
	.string	"\377"
	.string	""
	.string	""
	.string	"\377"
	.string	""
	.string	""
	.string	"\377"
	.string	""
	.string	""
	.string	"\377"
	.string	""
	.string	""
	.string	"\377"
	.string	""
	.string	""
	.string	"\377"
	.string	""
	.string	""
	.string	"\377"
	.string	""
	.string	""
	.string	"\377"
	.string	""
	.string	""
	.string	"\377"
	.string	""
	.string	""
	.string	"\377"
	.string	""
	.string	""
	.string	"\377"
	.string	""
	.string	""
	.string	"\377"
	.string	""
	.string	""
	.string	"\377"
	.string	""
	.string	""
	.string	"\377"
	.string	""
	.string	""
	.string	"\377"
	.string	""
	.string	""
	.string	"\377"
	.string	""
	.string	""
	.string	"\377"
	.string	""
	.string	""
	.string	"\377"
	.string	""
	.string	""
	.string	"\377"
	.string	""
	.string	""
	.string	"\377"
	.string	""
	.string	""
	.string	"\377"
	.string	""
	.string	""
	.string	"\377"
	.string	""
	.string	""
	.string	"\377"
	.string	""
	.string	""
	.string	"\377"
	.string	""
	.string	""
	.string	"\377\340\260"
	.string	"\377\340\260"
	.string	"\377\340\260"
	.string	"\377\340\260"
	.string	"\377\340\260"
	.string	"\377\340\260"
	.string	"\377\340\260"
	.string	"\377\340\260"
	.string	"\377\340\260"
	.string	"\377\340\260"
	.string	"\377\340\260"
	.string	"\377"
	.string	""
	.string	""
	.string	"\377"
	.string	""
	.string	""
	.string	"\377"
	.string	""
	.string	""
	.string	"\377"
	.string	""
	.string	""
	.string	"\377"
	.string	""
	.string	""
	.string	"\377"
	.string	""
	.string	""
	.string	"\377"
	.string	""
	.string	""
	.string	"\377"
	.string	""
	.string	""
	.string	"\377"
	.string	""
	.string	""
	.string	"\377"
	.string	""
	.string	""
	.string	"\377"
	.string	""
	.string	""
	.string	"\377"
	.string	""
	.string	""
	.string	"\377"
	.string	""
	.string	""
	.string	"\377"
	.string	""
	.string	""
	.string	"\377"
	.string	""
	.string	""
	.string	"\377"
	.string	""
	.string	""
	.string	"\377"
	.string	""
	.string	""
	.string	"\377"
	.string	""
	.string	""
	.string	"\377"
	.string	""
	.string	""
	.string	"\377"
	.string	""
	.string	""
	.string	"\377"
	.string	""
	.string	""
	.string	"\377"
	.string	""
	.string	""
	.string	"\377"
	.string	""
	.string	""
	.string	"\377\340\260"
	.string	"\377\340\260"
	.string	"\377\340\260"
	.string	"\377\340\260"
	.string	"\377\340\260"
	.string	"\377\340\260"
	.string	"\377\340\260"
	.string	"\377\340\260"
	.string	"\377\340\260"
	.string	"\377\340\260"
	.string	"\377\340\260"
	.string	"\377\340\260"
	.string	"\377\340\260"
	.string	"\377"
	.string	""
	.string	""
	.string	"\377"
	.string	""
	.string	""
	.string	"\377\340\260"
	.string	"\377\340\260"
	.string	"\377\340\260"
	.string	"\377\340\260"
	.string	"\377\340\260"
	.string	"\377\340\260"
	.string	"\377\340\260"
	.string	"\377\340\260"
	.string	"\377\340\260"
	.string	"\377\340\260"
	.string	"\377\340\260"
	.string	"\377\340\260"
	.string	"\377\340\260"
	.string	"\377\340\260"
	.string	"\377"
	.string	""
	.string	""
	.string	"\377"
	.string	""
	.string	""
	.ascii	"\377"
	.string	""
	.string	""
	.string	""
	.string	"\377\340\260"
	.string	"\377\340\260"
	.string	"\377\340\260"
	.string	"\377\340\260"
	.string	"\377\340\260"
	.string	"\377\340\260"
	.string	"\377\340\260"
	.string	"\377\340\260"
	.string	"\377\340\260"
	.string	"\377\340\260"
	.string	"\377\340\260"
	.string	"\377\340\260"
	.string	"\377\340\260"
	.string	"\377\340\260"
	.string	"\377"
	.string	""
	.string	""
	.string	"\377\340\260"
	.string	"\377\340\260"
	.string	"\377\340\260"
	.string	"\377\340\260"
	.string	"\377\340\260"
	.string	"\377\340\260"
	.string	"\377\340\260"
	.string	"\377\340\260"
	.string	"\377\340\260"
	.string	"\377\340\260"
	.string	"\377\340\260"
	.string	"\377\340\260"
	.string	"\377\340\260"
	.string	"\377\340\260"
	.string	"\377"
	.string	""
	.string	""
	.string	"\377"
	.string	""
	.string	""
	.string	"\377"
	.string	""
	.string	""
	.string	"\377\340\260"
	.string	"\377\340\260"
	.string	"\377\340\260"
	.string	"\377\340\260"
	.string	"\377\340\260"
	.string	"\377\340\260"
	.string	"\377\340\260"
	.string	"\377\340\260"
	.string	"\377\340\260"
	.string	"\377\340\260"
	.string	"\377\340\260"
	.string	"\377\340\260"
	.string	"\377\340\260"
	.string	"\377\340\260"
	.string	"\377"
	.string	""
	.string	""
	.string	"\377"
	.string	""
	.string	""
	.string	"\377\340\260"
	.string	"\377\340\260"
	.string	"\377\340\260"
	.string	"\377\340\260"
	.string	"\377\340\260"
	.string	"\377\340\260"
	.string	"\377\340\260"
	.string	"\377\340\260"
	.string	"\377\340\260"
	.string	"\377\340\260"
	.string	"\377\340\260"
	.string	"\377\340\260"
	.string	"\377\340\260"
	.string	"\377\340\260"
	.string	"\377"
	.string	""
	.string	""
	.string	"\377"
	.string	""
	.string	""
	.string	"\377\340\260"
	.string	"\377\340\260"
	.string	"\377\340\260"
	.string	"\377\340\260"
	.string	"\377\340\260"
	.string	"\377\340\260"
	.string	"\377\340\260"
	.string	"\377\340\260"
	.string	"\377\340\260"
	.string	"\377\340\260"
	.string	"\377\340\260"
	.string	"\377\340\260"
	.string	"\377\340\260"
	.string	"\377"
	.string	""
	.string	""
	.string	"\377"
	.string	""
	.string	""
	.string	"\377"
	.string	""
	.string	""
	.string	"\377\340\260"
	.string	"\377\340\260"
	.string	"\377\340\260"
	.string	"\377\340\260"
	.string	"\377"
	.string	""
	.string	""
	.string	"\377"
	.string	""
	.string	""
	.string	"\377"
	.string	""
	.string	""
	.string	"\377"
	.string	""
	.string	""
	.string	"\377"
	.string	""
	.string	""
	.string	"\377"
	.string	""
	.string	""
	.string	"\377"
	.string	""
	.string	""
	.string	"\377\340\260"
	.string	"\377\340\260"
	.string	"\377\340\260"
	.string	"\377\340\260"
	.string	"\377"
	.string	""
	.string	""
	.string	"\377\340\260"
	.string	"\377\340\260"
	.string	"\377\340\260"
	.string	"\377\340\260"
	.string	"\377\340\260"
	.string	"\377\340\260"
	.string	"\377\340\260"
	.string	"\377\340\260"
	.string	"\377\340\260"
	.string	"\377\340\260"
	.string	"\377\340\260"
	.string	"\377\340\260"
	.string	"\377\340\260"
	.string	"\377\340\260"
	.string	"\377\340\260"
	.string	"\377"
	.string	""
	.string	""
	.string	"\377"
	.string	""
	.string	""
	.string	"\377\340\260"
	.string	"\377\340\260"
	.string	"\377\340\260"
	.string	"\377\340\260"
	.string	"\377\340\260"
	.string	"\377\340\260"
	.string	"\377\340\260"
	.string	"\377\340\260"
	.string	"\377\340\260"
	.string	"\377\340\260"
	.string	"\377\340\260"
	.string	"\377\340\260"
	.string	"\377\340\260"
	.string	"\377\340\260"
	.string	"\377"
	.string	""
	.string	""
	.string	"\377\340\260"
	.string	"\377\340\260"
	.string	"\377\340\260"
	.string	"\377\340\260"
	.string	"\377\340\260"
	.string	"\377\340\260"
	.string	"\377\340\260"
	.string	"\377\340\260"
	.string	"\377\340\260"
	.string	"\377\340\260"
	.string	"\377\340\260"
	.string	"\377\340\260"
	.string	"\377\340\260"
	.string	"\377\340\260"
	.string	"\377"
	.string	""
	.string	""
	.string	"\377"
	.string	""
	.string	""
	.string	"\377"
	.string	""
	.string	""
	.string	"\377\340\260"
	.string	"\377\340\260"
	.string	"\377\340\260"
	.string	"\377\340\260"
	.string	"\377\340\260"
	.string	"\377\340\260"
	.string	"\377\340\260"
	.string	"\377\340\260"
	.string	"\377\340\260"
	.string	"\377\340\260"
	.string	"\377\340\260"
	.string	"\377\340\260"
	.string	"\377\340\260"
	.string	"\377"
	.string	""
	.string	""
	.string	"\377"
	.string	""
	.string	""
	.string	"\377"
	.string	""
	.string	""
	.string	"\377\340\260"
	.string	"\377\340\260"
	.string	"\377\340\260"
	.string	"\377\340\260"
	.string	"\377\340\260"
	.string	"\377\340\260"
	.string	"\377\340\260"
	.string	"\377\340\260"
	.string	"\377\340\260"
	.string	"\377\340\260"
	.string	"\377\340\260"
	.string	"\377\340\260"
	.string	"\377\340\260"
	.string	"\377"
	.string	""
	.string	""
	.string	"\377"
	.string	""
	.string	""
	.string	"\377\340\260"
	.string	"\377\340\260"
	.string	"\377\340\260"
	.string	"\377\340\260"
	.string	"\377"
	.string	""
	.string	""
	.string	"\377"
	.string	""
	.string	""
	.string	"\377"
	.string	""
	.string	""
	.string	"\377"
	.string	""
	.string	""
	.string	"\377"
	.string	""
	.string	""
	.string	"\377"
	.string	""
	.string	""
	.string	"\377"
	.string	""
	.string	""
	.string	"\377"
	.string	""
	.string	""
	.string	"\377"
	.string	""
	.string	""
	.string	"\377"
	.string	""
	.string	""
	.string	"\377"
	.string	""
	.string	""
	.string	"\377"
	.string	""
	.string	""
	.string	"\377"
	.string	""
	.string	""
	.string	"\377"
	.string	""
	.string	""
	.string	"\377"
	.string	""
	.string	""
	.string	"\377"
	.string	""
	.string	""
	.string	"\377"
	.string	""
	.string	""
	.string	"\377"
	.string	""
	.string	""
	.string	"\377"
	.string	""
	.string	""
	.string	"\377"
	.string	""
	.string	""
	.string	"\377"
	.string	""
	.string	""
	.string	"\377"
	.string	""
	.string	""
	.string	"\377"
	.string	""
	.string	""
	.string	"\377"
	.string	""
	.string	""
	.string	"\377"
	.string	""
	.string	""
	.string	"\377"
	.string	""
	.string	""
	.string	"\377"
	.string	""
	.string	""
	.string	"\377"
	.string	""
	.string	""
	.string	"\377"
	.string	""
	.string	""
	.string	"\377"
	.string	""
	.string	""
	.string	"\377"
	.string	""
	.string	""
	.string	"\377"
	.string	""
	.string	""
	.string	"\377"
	.string	""
	.string	""
	.string	"\377"
	.string	""
	.string	""
	.string	"\377"
	.string	""
	.string	""
	.string	"\377"
	.string	""
	.string	""
	.string	"\377"
	.string	""
	.string	""
	.string	"\377"
	.string	""
	.string	""
	.string	"\377"
	.string	""
	.string	""
	.string	"\377"
	.string	""
	.string	""
	.string	"\377"
	.string	""
	.string	""
	.string	"\377"
	.string	""
	.string	""
	.string	"\377"
	.string	""
	.string	""
	.string	"\377"
	.string	""
	.string	""
	.string	"\377"
	.string	""
	.string	""
	.string	"\377"
	.string	""
	.string	""
	.string	"\377"
	.string	""
	.string	""
	.string	"\377"
	.string	""
	.string	""
	.string	"\377"
	.string	""
	.string	""
	.string	"\377"
	.string	""
	.string	""
	.string	"\377"
	.string	""
	.string	""
	.string	"\377"
	.string	""
	.string	""
	.string	"\377"
	.string	""
	.string	""
	.string	"\377"
	.string	""
	.string	""
	.string	"\377"
	.string	""
	.string	""
	.string	"\377"
	.string	""
	.string	""
	.string	"\377"
	.string	""
	.string	""
	.string	"\377"
	.string	""
	.string	""
	.string	"\377"
	.string	""
	.string	""
	.string	"\377"
	.string	""
	.string	""
	.string	"\377"
	.string	""
	.string	""
	.string	"\377"
	.string	""
	.string	""
	.string	"\377"
	.string	""
	.string	""
	.string	"\377"
	.string	""
	.string	""
	.string	"\377"
	.string	""
	.string	""
	.string	"\377"
	.string	""
	.string	""
	.string	"\377"
	.string	""
	.string	""
	.string	"\377"
	.string	""
	.string	""
	.string	"\377"
	.string	""
	.string	""
	.string	"\377"
	.string	""
	.string	""
	.string	"\377"
	.string	""
	.string	""
	.string	"\377"
	.string	""
	.string	""
	.string	"\377"
	.string	""
	.string	""
	.string	"\377"
	.string	""
	.string	""
	.string	"\377"
	.string	""
	.string	""
	.string	"\377"
	.string	""
	.string	""
	.string	"\377"
	.string	""
	.string	""
	.string	"\377"
	.string	""
	.string	""
	.string	"\377"
	.string	""
	.string	""
	.string	"\377"
	.string	""
	.string	""
	.string	"\377"
	.string	""
	.string	""
	.string	"\377"
	.string	""
	.string	""
	.string	"\377\340\260"
	.string	"\377\340\260"
	.string	"\377\340\260"
	.string	"\377"
	.string	""
	.string	""
	.string	"\377"
	.string	""
	.string	""
	.string	"\377"
	.string	""
	.string	""
	.string	"\377"
	.string	""
	.string	""
	.string	"\377"
	.string	""
	.string	""
	.string	"\377"
	.string	""
	.string	""
	.string	"\377"
	.string	""
	.string	""
	.string	"\377"
	.string	""
	.string	""
	.string	"\377"
	.string	""
	.string	""
	.string	"\377"
	.string	""
	.string	""
	.string	"\377"
	.string	""
	.string	""
	.string	"\377"
	.string	""
	.string	""
	.string	"\377"
	.string	""
	.string	""
	.string	"\377"
	.string	""
	.string	""
	.string	"\377"
	.string	""
	.string	""
	.string	"\377"
	.string	""
	.string	""
	.string	"\377"
	.string	""
	.string	""
	.string	"\377"
	.string	""
	.string	""
	.string	"\377"
	.string	""
	.string	""
	.string	"\377"
	.string	""
	.string	""
	.string	"\377"
	.string	""
	.string	""
	.string	"\377"
	.string	""
	.string	""
	.string	"\377"
	.string	""
	.string	""
	.string	"\377\340\260"
	.string	"\377\340\260"
	.string	"\377\340\260"
	.string	"\377\340\260"
	.string	"\377\340\260"
	.string	"\377\340\260"
	.string	"\377\340\260"
	.string	"\377\340\260"
	.string	"\377\340\260"
	.string	"\377\340\260"
	.string	"\377\340\260"
	.string	"\377\340\260"
	.string	"\377\340\260"
	.string	"\377"
	.string	""
	.string	""
	.string	"\377"
	.string	""
	.string	""
	.string	"\377\340\260"
	.string	"\377\340\260"
	.string	"\377\340\260"
	.string	"\377\340\260"
	.string	"\377\340\260"
	.string	"\377\340\260"
	.string	"\377\340\260"
	.string	"\377\340\260"
	.string	"\377\340\260"
	.string	"\377\340\260"
	.string	"\377\340\260"
	.string	"\377\340\260"
	.string	"\377\340\260"
	.string	"\377\340\260"
	.string	"\377"
	.string	""
	.string	""
	.string	"\377"
	.string	""
	.string	""
	.string	"\377"
	.string	""
	.string	""
	.string	"\377\340\260"
	.string	"\377\340\260"
	.string	"\377\340\260"
	.string	"\377\340\260"
	.string	"\377\340\260"
	.string	"\377\340\260"
	.string	"\377\340\260"
	.string	"\377\340\260"
	.string	"\377\340\260"
	.string	"\377\340\260"
	.string	"\377\340\260"
	.string	"\377\340\260"
	.string	"\377\340\260"
	.string	"\377\340\260"
	.string	"\377"
	.string	""
	.string	""
	.string	"\377\340\260"
	.string	"\377\340\260"
	.string	"\377\340\260"
	.string	"\377\340\260"
	.string	"\377\340\260"
	.string	"\377\340\260"
	.string	"\377\340\260"
	.string	"\377\340\260"
	.string	"\377\340\260"
	.string	"\377\340\260"
	.string	"\377\340\260"
	.string	"\377\340\260"
	.string	"\377\340\260"
	.string	"\377\340\260"
	.string	"\377"
	.string	""
	.string	""
	.string	"\377"
	.string	""
	.string	""
	.string	"\377"
	.string	""
	.string	""
	.string	"\377\340\260"
	.string	"\377\340\260"
	.string	"\377\340\260"
	.string	"\377\340\260"
	.string	"\377\340\260"
	.string	"\377\340\260"
	.string	"\377\340\260"
	.string	"\377\340\260"
	.string	"\377\340\260"
	.string	"\377\340\260"
	.string	"\377\340\260"
	.string	"\377\340\260"
	.string	"\377\340\260"
	.string	"\377\340\260"
	.string	"\377"
	.string	""
	.string	""
	.string	"\377"
	.string	""
	.string	""
	.string	"\377\340\260"
	.string	"\377\340\260"
	.string	"\377\340\260"
	.string	"\377\340\260"
	.string	"\377\340\260"
	.string	"\377\340\260"
	.string	"\377\340\260"
	.string	"\377\340\260"
	.string	"\377\340\260"
	.string	"\377\340\260"
	.string	"\377\340\260"
	.string	"\377\340\260"
	.string	"\377\340\260"
	.string	"\377\340\260"
	.string	"\377"
	.string	""
	.string	""
	.string	"\377"
	.string	""
	.string	""
	.string	"\377\340\260"
	.string	"\377\340\260"
	.string	"\377\340\260"
	.string	"\377\340\260"
	.string	"\377\340\260"
	.string	"\377\340\260"
	.string	"\377\340\260"
	.string	"\377\340\260"
	.string	"\377\340\260"
	.string	"\377\340\260"
	.string	"\377\340\260"
	.string	"\377\340\260"
	.string	"\377\340\260"
	.string	"\377"
	.string	""
	.string	""
	.string	"\377"
	.string	""
	.string	""
	.string	"\377"
	.string	""
	.string	""
	.string	"\377\340\260"
	.string	"\377\340\260"
	.string	"\377\340\260"
	.string	"\377\340\260"
	.string	"\377"
	.string	""
	.string	""
	.string	"\377"
	.string	""
	.string	""
	.string	"\377"
	.string	""
	.string	""
	.string	"\377"
	.string	""
	.string	""
	.string	"\377"
	.string	""
	.string	""
	.string	"\377"
	.string	""
	.string	""
	.string	"\377"
	.string	""
	.string	""
	.string	"\377\340\260"
	.string	"\377\340\260"
	.string	"\377\340\260"
	.string	"\377\340\260"
	.string	"\377"
	.string	""
	.string	""
	.string	"\377\340\260"
	.string	"\377\340\260"
	.string	"\377\340\260"
	.string	"\377\340\260"
	.string	"\377"
	.string	""
	.string	""
	.string	"\377"
	.string	""
	.string	""
	.string	"\377"
	.string	""
	.string	""
	.string	"\377"
	.string	""
	.string	""
	.string	"\377"
	.string	""
	.string	""
	.string	"\377"
	.string	""
	.string	""
	.string	"\377"
	.string	""
	.string	""
	.string	"\377"
	.string	""
	.string	""
	.string	"\377"
	.string	""
	.string	""
	.string	"\377"
	.string	""
	.string	""
	.string	"\377"
	.string	""
	.string	""
	.string	"\377"
	.string	""
	.string	""
	.string	"\377\340\260"
	.string	"\377\340\260"
	.string	"\377\340\260"
	.string	"\377\340\260"
	.string	"\377\340\260"
	.string	"\377"
	.string	""
	.string	""
	.string	"\377"
	.string	""
	.string	""
	.string	"\377"
	.string	""
	.string	""
	.string	"\377"
	.string	""
	.string	""
	.string	"\377"
	.string	""
	.string	""
	.string	"\377"
	.string	""
	.string	""
	.string	"\377"
	.string	""
	.string	""
	.string	"\377"
	.string	""
	.string	""
	.string	"\377"
	.string	""
	.string	""
	.string	"\377"
	.string	""
	.string	""
	.string	"\377"
	.string	""
	.string	""
	.string	"\377"
	.string	""
	.string	""
	.string	"\377"
	.string	""
	.string	""
	.string	"\377"
	.string	""
	.string	""
	.string	"\377"
	.string	""
	.string	""
	.string	"\377"
	.string	""
	.string	""
	.string	"\377"
	.string	""
	.string	""
	.string	"\377"
	.string	""
	.string	""
	.string	"\377"
	.string	""
	.string	""
	.string	"\377"
	.string	""
	.string	""
	.string	"\377\340\260"
	.string	"\377\340\260"
	.string	"\377\340\260"
	.string	"\377\340\260"
	.string	"\377\340\260"
	.string	"\377"
	.string	""
	.string	""
	.string	"\377"
	.string	""
	.string	""
	.string	"\377\340\260"
	.string	"\377\340\260"
	.string	"\377\340\260"
	.string	"\377\340\260"
	.string	"\377\340\260"
	.string	"\377"
	.string	""
	.string	""
	.string	"\377"
	.string	""
	.string	""
	.string	"\377"
	.string	""
	.string	""
	.string	"\377"
	.string	""
	.string	""
	.string	"\377"
	.string	""
	.string	""
	.string	"\377\340\260"
	.string	"\377\340\260"
	.string	"\377\340\260"
	.string	"\377\340\260"
	.string	"\377\340\260"
	.string	"\377"
	.string	""
	.string	""
	.string	"\377\340\260"
	.string	"\377\340\260"
	.string	"\377\340\260"
	.string	"\377\340\260"
	.string	"\377\340\260"
	.string	"\377"
	.string	""
	.string	""
	.string	"\377"
	.string	""
	.string	""
	.string	"\377"
	.string	""
	.string	""
	.string	"\377"
	.string	""
	.string	""
	.string	"\377"
	.string	""
	.string	""
	.string	"\377\340\260"
	.string	"\377\340\260"
	.string	"\377\340\260"
	.string	"\377\340\260"
	.string	"\377\340\260"
	.string	"\377"
	.string	""
	.string	""
	.string	"\377\340\260"
	.string	"\377\340\260"
	.string	"\377\340\260"
	.ascii	"\377"
	.string	"\340\260"
	.string	"\377"
	.string	""
	.string	""
	.string	"\377"
	.string	""
	.string	""
	.string	"\377"
	.string	""
	.string	""
	.string	"\377"
	.string	""
	.string	""
	.string	"\377"
	.string	""
	.string	""
	.string	"\377"
	.string	""
	.string	""
	.string	"\377"
	.string	""
	.string	""
	.string	"\377"
	.string	""
	.string	""
	.string	"\377"
	.string	""
	.string	""
	.string	"\377"
	.string	""
	.string	""
	.string	"\377"
	.string	""
	.string	""
	.string	"\377"
	.string	""
	.string	""
	.string	"\377"
	.string	""
	.string	""
	.string	"\377"
	.string	""
	.string	""
	.string	"\377"
	.string	""
	.string	""
	.string	"\377"
	.string	""
	.string	""
	.string	"\377"
	.string	""
	.string	""
	.string	"\377"
	.string	""
	.string	""
	.string	"\377"
	.string	""
	.string	""
	.string	"\377"
	.string	""
	.string	""
	.string	"\377"
	.string	""
	.string	""
	.string	"\377"
	.string	""
	.string	""
	.string	"\377"
	.string	""
	.string	""
	.string	"\377"
	.string	""
	.string	""
	.string	"\377"
	.string	""
	.string	""
	.string	"\377"
	.string	""
	.string	""
	.string	"\377"
	.string	""
	.string	""
	.string	"\377"
	.string	""
	.string	""
	.string	"\377"
	.string	""
	.string	""
	.string	"\377"
	.string	""
	.string	""
	.string	"\377"
	.string	""
	.string	""
	.string	"\377"
	.string	""
	.string	""
	.string	"\377"
	.string	""
	.string	""
	.string	"\377"
	.string	""
	.string	""
	.string	"\377"
	.string	""
	.string	""
	.string	"\377"
	.string	""
	.string	""
	.string	"\377"
	.string	""
	.string	""
	.string	"\377"
	.string	""
	.string	""
	.string	"\377"
	.string	""
	.string	""
	.string	"\377"
	.string	""
	.string	""
	.string	"\377"
	.string	""
	.string	""
	.string	"\377"
	.string	""
	.string	""
	.string	"\377"
	.string	""
	.string	""
	.string	"\377"
	.string	""
	.string	""
	.string	"\377"
	.string	""
	.string	""
	.string	"\377"
	.string	""
	.string	""
	.string	"\377"
	.string	""
	.string	""
	.string	"\377"
	.string	""
	.string	""
	.string	"\377"
	.string	""
	.string	""
	.string	"\377"
	.string	""
	.string	""
	.string	"\377"
	.string	""
	.string	""
	.string	"\377"
	.string	""
	.string	""
	.string	"\377"
	.string	""
	.string	""
	.string	"\377"
	.string	""
	.string	""
	.string	"\377"
	.string	""
	.string	""
	.string	"\377"
	.string	""
	.string	""
	.string	"\377"
	.string	""
	.string	""
	.string	"\377"
	.string	""
	.string	""
	.string	"\377"
	.string	""
	.string	""
	.string	"\377"
	.string	""
	.string	""
	.string	"\377"
	.string	""
	.string	""
	.string	"\377"
	.string	""
	.string	""
	.string	"\377"
	.string	""
	.string	""
	.string	"\377"
	.string	""
	.string	""
	.string	"\377"
	.string	""
	.string	""
	.string	"\377"
	.string	""
	.string	""
	.string	"\377"
	.string	""
	.string	""
	.string	"\377"
	.string	""
	.string	""
	.string	"\377"
	.string	""
	.string	""
	.string	"\377"
	.string	""
	.string	""
	.string	"\377"
	.string	""
	.string	""
	.string	"\377"
	.string	""
	.string	""
	.string	"\377"
	.string	""
	.string	""
	.string	"\377"
	.string	""
	.string	""
	.string	"\377"
	.string	""
	.string	""
	.string	"\377\340\260"
	.string	"\377\340\260"
	.string	"\377\340\260"
	.string	"\377\340\260"
	.string	"\377\340\260"
	.string	"\377\340\260"
	.string	"\377\340\260"
	.string	"\377\340\260"
	.string	"\377\340\260"
	.string	"\377\340\260"
	.string	"\377"
	.string	""
	.string	""
	.string	"\377"
	.string	""
	.string	""
	.string	"\377"
	.string	""
	.string	""
	.string	"\377"
	.string	""
	.string	""
	.string	"\377"
	.string	""
	.string	""
	.string	"\377"
	.string	""
	.string	""
	.string	"\377"
	.string	""
	.string	""
	.string	"\377"
	.string	""
	.string	""
	.string	"\377"
	.string	""
	.string	""
	.string	"\377"
	.string	""
	.string	""
	.string	"\377"
	.string	""
	.string	""
	.string	"\377"
	.string	""
	.string	""
	.string	"\377"
	.string	""
	.string	""
	.string	"\377"
	.string	""
	.string	""
	.string	"\377"
	.string	""
	.string	""
	.string	"\377"
	.string	""
	.string	""
	.string	"\377"
	.string	""
	.string	""
	.string	"\377"
	.string	""
	.string	""
	.string	"\377"
	.string	""
	.string	""
	.string	"\377"
	.string	""
	.string	""
	.string	"\377"
	.string	""
	.string	""
	.string	"\377"
	.string	""
	.string	""
	.string	"\377\340\260"
	.string	"\377\340\260"
	.string	"\377\340\260"
	.string	"\377\340\260"
	.string	"\377\340\260"
	.string	"\377"
	.string	""
	.string	""
	.string	"\377"
	.string	""
	.string	""
	.string	"\377"
	.string	""
	.string	""
	.string	"\377"
	.string	""
	.string	""
	.string	"\377"
	.string	""
	.string	""
	.string	"\377\340\260"
	.string	"\377\340\260"
	.string	"\377\340\260"
	.string	"\377\340\260"
	.string	"\377\340\260"
	.string	"\377"
	.string	""
	.string	""
	.string	"\377\340\260"
	.string	"\377\340\260"
	.string	"\377\340\260"
	.string	"\377\340\260"
	.string	"\377"
	.string	""
	.string	""
	.string	"\377"
	.string	""
	.string	""
	.string	"\377"
	.string	""
	.string	""
	.string	"\377"
	.string	""
	.string	""
	.string	"\377"
	.string	""
	.string	""
	.string	"\377"
	.string	""
	.string	""
	.string	"\377\340\260"
	.string	"\377\340\260"
	.string	"\377\340\260"
	.string	"\377\340\260"
	.string	"\377\340\260"
	.string	"\377"
	.string	""
	.string	""
	.string	"\377\340\260"
	.string	"\377\340\260"
	.string	"\377\340\260"
	.string	"\377\340\260"
	.string	"\377\340\260"
	.string	"\377"
	.string	""
	.string	""
	.string	"\377"
	.string	""
	.string	""
	.string	"\377"
	.string	""
	.string	""
	.string	"\377"
	.string	""
	.string	""
	.string	"\377"
	.string	""
	.string	""
	.string	"\377"
	.string	""
	.string	""
	.string	"\377"
	.string	""
	.string	""
	.string	"\377"
	.string	""
	.string	""
	.string	"\377"
	.string	""
	.string	""
	.string	"\377"
	.string	""
	.string	""
	.string	"\377"
	.string	""
	.string	""
	.string	"\377\340\260"
	.string	"\377\340\260"
	.string	"\377\340\260"
	.string	"\377\340\260"
	.string	"\377"
	.string	""
	.string	""
	.string	"\377"
	.string	""
	.string	""
	.string	"\377"
	.string	""
	.string	""
	.string	"\377"
	.string	""
	.string	""
	.string	"\377"
	.string	""
	.string	""
	.string	"\377"
	.string	""
	.string	""
	.string	"\377\340\260"
	.string	"\377\340\260"
	.string	"\377\340\260"
	.string	"\377\340\260"
	.string	"\377\340\260"
	.string	"\377"
	.string	""
	.string	""
	.string	"\377\340\260"
	.string	"\377\340\260"
	.string	"\377\340\260"
	.string	"\377\340\260"
	.string	"\377\340\260"
	.string	"\377"
	.string	""
	.string	""
	.string	"\377"
	.string	""
	.string	""
	.string	"\377"
	.string	""
	.string	""
	.string	"\377"
	.string	""
	.string	""
	.string	"\377"
	.string	""
	.string	""
	.string	"\377"
	.string	""
	.string	""
	.string	"\377"
	.string	""
	.string	""
	.string	"\377"
	.string	""
	.string	""
	.string	"\377"
	.string	""
	.string	""
	.string	"\377"
	.string	""
	.string	""
	.string	"\377"
	.string	""
	.string	""
	.string	"\377\340\260"
	.string	"\377\340\260"
	.string	"\377\340\260"
	.string	"\377\340\260"
	.string	"\377\340\260"
	.string	"\377"
	.string	""
	.string	""
	.string	"\377"
	.string	""
	.string	""
	.string	"\377"
	.string	""
	.string	""
	.string	"\377"
	.string	""
	.string	""
	.string	"\377"
	.string	""
	.string	""
	.string	"\377"
	.string	""
	.string	""
	.string	"\377"
	.string	""
	.string	""
	.string	"\377"
	.string	""
	.string	""
	.string	"\377"
	.string	""
	.string	""
	.string	"\377"
	.string	""
	.string	""
	.string	"\377"
	.string	""
	.string	""
	.string	"\377\340\260"
	.string	"\377\340\260"
	.string	"\377\340\260"
	.string	"\377\340\260"
	.string	"\377\340\260"
	.string	"\377"
	.string	""
	.string	""
	.string	"\377"
	.string	""
	.string	""
	.string	"\377"
	.string	""
	.string	""
	.string	"\377"
	.string	""
	.string	""
	.string	"\377"
	.string	""
	.string	""
	.string	"\377\340\260"
	.string	"\377\340\260"
	.string	"\377\340\260"
	.string	"\377\340\260"
	.string	"\377\340\260"
	.string	"\377"
	.string	""
	.string	""
	.string	"\377"
	.string	""
	.string	""
	.string	"\377\340\260"
	.string	"\377\340\260"
	.string	"\377\340\260"
	.string	"\377\340\260"
	.string	"\377"
	.string	""
	.string	""
	.string	"\377"
	.string	""
	.string	""
	.string	"\377"
	.string	""
	.string	""
	.string	"\377"
	.string	""
	.string	""
	.string	"\377"
	.string	""
	.string	""
	.string	"\377"
	.string	""
	.string	""
	.string	"\377"
	.string	""
	.string	""
	.string	"\377\340\260"
	.string	"\377\340\260"
	.string	"\377\340\260"
	.string	"\377\340\260"
	.string	"\377"
	.string	""
	.string	""
	.string	"\377\340\260"
	.string	"\377\340\260"
	.string	"\377\340\260"
	.string	"\377\340\260"
	.string	"\377"
	.string	""
	.string	""
	.string	"\377"
	.string	""
	.string	""
	.string	"\377"
	.string	""
	.string	""
	.string	"\377"
	.string	""
	.string	""
	.string	"\377"
	.string	""
	.string	""
	.string	"\377"
	.string	""
	.string	""
	.string	"\377"
	.string	""
	.string	""
	.string	"\377"
	.string	""
	.string	""
	.string	"\377"
	.string	""
	.string	""
	.string	"\377"
	.string	""
	.string	""
	.string	"\377"
	.string	""
	.string	""
	.string	"\377"
	.string	""
	.string	""
	.string	"\377\340\260"
	.string	"\377\340\260"
	.string	"\377\340\260"
	.string	"\377\340\260"
	.string	"\377"
	.string	""
	.string	""
	.string	"\377"
	.string	""
	.string	""
	.string	"\377"
	.string	""
	.string	""
	.string	"\377"
	.string	""
	.string	""
	.string	"\377"
	.string	""
	.string	""
	.string	"\377"
	.string	""
	.string	""
	.string	"\377"
	.string	""
	.string	""
	.string	"\377"
	.string	""
	.string	""
	.string	"\377"
	.string	""
	.string	""
	.string	"\377"
	.string	""
	.string	""
	.string	"\377"
	.string	""
	.string	""
	.string	"\377"
	.string	""
	.string	""
	.string	"\377"
	.string	""
	.string	""
	.string	"\377"
	.string	""
	.string	""
	.string	"\377"
	.string	""
	.string	""
	.string	"\377"
	.string	""
	.string	""
	.string	"\377"
	.string	""
	.string	""
	.string	"\377"
	.string	""
	.string	""
	.string	"\377"
	.string	""
	.string	""
	.string	"\377"
	.string	""
	.string	""
	.string	"\377\340\260"
	.string	"\377\340\260"
	.string	"\377\340\260"
	.string	"\377\340\260"
	.string	"\377\340\260"
	.string	"\377"
	.string	""
	.string	""
	.string	"\377"
	.string	""
	.string	""
	.string	"\377"
	.string	""
	.string	""
	.string	"\377\340\260"
	.string	"\377\340\260"
	.string	"\377\340\260"
	.string	"\377\340\260"
	.string	"\377"
	.string	""
	.string	""
	.string	"\377"
	.string	""
	.string	""
	.string	"\377"
	.string	""
	.string	""
	.string	"\377"
	.string	""
	.string	""
	.string	"\377"
	.string	""
	.string	""
	.string	"\377"
	.string	""
	.string	""
	.string	"\377"
	.string	""
	.string	""
	.string	"\377\340\260"
	.string	"\377\340\260"
	.string	"\377\340\260"
	.string	"\377\340\260"
	.string	"\377"
	.string	""
	.string	""
	.string	"\377\340\260"
	.string	"\377\340\260"
	.string	"\377\340\260"
	.string	"\377\340\260"
	.string	"\377"
	.string	""
	.string	""
	.string	"\377"
	.string	""
	.string	""
	.string	"\377"
	.string	""
	.string	""
	.string	"\377"
	.string	""
	.string	""
	.string	"\377"
	.string	""
	.string	""
	.string	"\377"
	.string	""
	.string	""
	.string	"\377"
	.string	""
	.string	""
	.string	"\377\340\260"
	.string	"\377\340\260"
	.string	"\377\340\260"
	.string	"\377\340\260"
	.string	"\377"
	.string	""
	.string	""
	.string	"\377\340\260"
	.string	"\377\340\260"
	.string	"\377\340\260"
	.string	"\377\340\260"
	.string	"\377"
	.string	""
	.string	""
	.string	"\377"
	.string	""
	.string	""
	.string	"\377"
	.string	""
	.string	""
	.string	"\377"
	.string	""
	.string	""
	.string	"\377"
	.string	""
	.string	""
	.string	"\377"
	.string	""
	.string	""
	.string	"\377"
	.string	""
	.string	""
	.string	"\377"
	.string	""
	.string	""
	.string	"\377"
	.string	""
	.string	""
	.string	"\377"
	.string	""
	.string	""
	.string	"\377"
	.string	""
	.string	""
	.string	"\377"
	.string	""
	.string	""
	.string	"\377"
	.string	""
	.string	""
	.string	"\377"
	.string	""
	.string	""
	.string	"\377"
	.string	""
	.string	""
	.string	"\377"
	.string	""
	.string	""
	.string	"\377"
	.string	""
	.string	""
	.string	"\377"
	.string	""
	.string	""
	.string	"\377"
	.string	""
	.string	""
	.string	"\377"
	.string	""
	.string	""
	.string	"\377"
	.string	""
	.string	""
	.string	"\377"
	.string	""
	.string	""
	.string	"\377"
	.string	""
	.string	""
	.string	"\377"
	.string	""
	.string	""
	.string	"\377"
	.string	""
	.string	""
	.string	"\377"
	.string	""
	.string	""
	.string	"\377"
	.string	""
	.string	""
	.string	"\377"
	.string	""
	.string	""
	.string	"\377"
	.string	""
	.string	""
	.string	"\377"
	.string	""
	.string	""
	.string	"\377"
	.string	""
	.string	""
	.string	"\377"
	.string	""
	.string	""
	.string	"\377"
	.string	""
	.string	""
	.string	"\377"
	.string	""
	.string	""
	.string	"\377"
	.string	""
	.string	""
	.string	"\377"
	.string	""
	.string	""
	.string	"\377"
	.string	""
	.string	""
	.string	"\377"
	.string	""
	.string	""
	.string	"\377"
	.string	""
	.string	""
	.string	"\377"
	.string	""
	.string	""
	.string	"\377"
	.string	""
	.string	""
	.string	"\377"
	.string	""
	.string	""
	.string	"\377"
	.string	""
	.string	""
	.string	"\377"
	.string	""
	.string	""
	.string	"\377"
	.string	""
	.string	""
	.string	"\377"
	.string	""
	.string	""
	.string	"\377"
	.string	""
	.string	""
	.string	"\377"
	.string	""
	.string	""
	.string	"\377"
	.string	""
	.string	""
	.string	"\377"
	.string	""
	.string	""
	.string	"\377"
	.string	""
	.string	""
	.string	"\377"
	.string	""
	.string	""
	.string	"\377"
	.string	""
	.string	""
	.string	"\377"
	.string	""
	.string	""
	.string	"\377"
	.string	""
	.string	""
	.string	"\377"
	.string	""
	.string	""
	.string	"\377"
	.string	""
	.string	""
	.string	"\377"
	.string	""
	.string	""
	.string	"\377"
	.string	""
	.string	""
	.string	"\377"
	.string	""
	.string	""
	.string	"\377"
	.string	""
	.string	""
	.string	"\377"
	.string	""
	.string	""
	.string	"\377"
	.string	""
	.string	""
	.string	"\377"
	.string	""
	.string	""
	.string	"\377"
	.string	""
	.string	""
	.string	"\377"
	.string	""
	.string	""
	.string	"\377"
	.string	""
	.string	""
	.string	"\377"
	.string	""
	.string	""
	.string	"\377"
	.string	""
	.string	""
	.string	"\377"
	.string	""
	.string	""
	.string	"\377"
	.string	""
	.string	""
	.string	"\377"
	.string	""
	.string	""
	.string	"\377"
	.string	""
	.string	""
	.string	"\377"
	.string	""
	.string	""
	.string	"\377\340\260"
	.string	"\377\340\260"
	.string	"\377\340\260"
	.string	"\377\340\260"
	.string	"\377\340\260"
	.string	"\377\340\260"
	.string	"\377\340\260"
	.string	"\377\340\260"
	.string	"\377\340\260"
	.string	"\377\340\260"
	.string	"\377\340\260"
	.string	"\377"
	.string	""
	.string	""
	.string	"\377"
	.string	""
	.string	""
	.string	"\377"
	.string	""
	.string	""
	.string	"\377"
	.string	""
	.string	""
	.string	"\377"
	.string	""
	.string	""
	.string	"\377"
	.string	""
	.string	""
	.string	"\377"
	.string	""
	.string	""
	.string	"\377"
	.string	""
	.string	""
	.string	"\377"
	.string	""
	.string	""
	.string	"\377"
	.string	""
	.string	""
	.string	"\377"
	.string	""
	.string	""
	.string	"\377"
	.string	""
	.string	""
	.string	"\377"
	.string	""
	.string	""
	.string	"\377"
	.string	""
	.string	""
	.string	"\377"
	.string	""
	.string	""
	.string	"\377"
	.string	""
	.string	""
	.string	"\377"
	.string	""
	.string	""
	.string	"\377"
	.string	""
	.string	""
	.string	"\377"
	.string	""
	.string	""
	.string	"\377"
	.string	""
	.string	""
	.string	"\377"
	.string	""
	.string	""
	.string	"\377"
	.string	""
	.string	""
	.string	"\377\340\260"
	.string	"\377\340\260"
	.string	"\377\340\260"
	.string	"\377\340\260"
	.string	"\377"
	.string	""
	.string	""
	.string	"\377"
	.string	""
	.string	""
	.string	"\377"
	.string	""
	.string	""
	.string	"\377"
	.string	""
	.string	""
	.string	"\377"
	.string	""
	.string	""
	.string	"\377"
	.string	""
	.string	""
	.string	"\377"
	.string	""
	.string	""
	.string	"\377\340\260"
	.string	"\377\340\260"
	.string	"\377\340\260"
	.string	"\377\340\260"
	.string	"\377"
	.string	""
	.string	""
	.string	"\377\340\260"
	.string	"\377\340\260"
	.string	"\377\340\260"
	.string	"\377\340\260"
	.string	"\377"
	.string	""
	.string	""
	.string	"\377"
	.string	""
	.string	""
	.string	"\377"
	.string	""
	.string	""
	.string	"\377"
	.string	""
	.string	""
	.string	"\377"
	.string	""
	.string	""
	.string	"\377"
	.string	""
	.string	""
	.string	"\377"
	.string	""
	.string	""
	.string	"\377\340\260"
	.string	"\377\340\260"
	.string	"\377\340\260"
	.string	"\377\340\260"
	.string	"\377"
	.string	""
	.string	""
	.string	"\377\340\260"
	.string	"\377\340\260"
	.string	"\377\340\260"
	.string	"\377\340\260"
	.string	"\377"
	.string	""
	.string	""
	.string	"\377"
	.string	""
	.string	""
	.string	"\377"
	.string	""
	.string	""
	.string	"\377"
	.string	""
	.string	""
	.string	"\377"
	.string	""
	.string	""
	.string	"\377"
	.string	""
	.string	""
	.string	"\377"
	.string	""
	.string	""
	.string	"\377"
	.string	""
	.string	""
	.string	"\377"
	.string	""
	.string	""
	.string	"\377"
	.string	""
	.string	""
	.string	"\377"
	.string	""
	.string	""
	.string	"\377"
	.string	""
	.string	""
	.string	"\377\340\260"
	.string	"\377\340\260"
	.string	"\377\340\260"
	.string	"\377\340\260"
	.string	"\377"
	.string	""
	.string	""
	.string	"\377"
	.string	""
	.string	""
	.string	"\377"
	.string	""
	.string	""
	.string	"\377"
	.string	""
	.string	""
	.string	"\377"
	.string	""
	.string	""
	.string	"\377"
	.string	""
	.string	""
	.string	"\377"
	.string	""
	.string	""
	.string	"\377\340\260"
	.string	"\377\340\260"
	.string	"\377\340\260"
	.string	"\377\340\260"
	.string	"\377"
	.string	""
	.string	""
	.string	"\377\340\260"
	.string	"\377\340\260"
	.string	"\377\340\260"
	.string	"\377\340\260"
	.string	"\377"
	.string	""
	.string	""
	.string	"\377"
	.string	""
	.string	""
	.string	"\377"
	.string	""
	.string	""
	.string	"\377"
	.string	""
	.string	""
	.ascii	"\377"
	.string	""
	.string	""
	.string	""
	.string	"\377"
	.string	""
	.string	""
	.string	"\377"
	.string	""
	.string	""
	.string	"\377"
	.string	""
	.string	""
	.string	"\377"
	.string	""
	.string	""
	.string	"\377"
	.string	""
	.string	""
	.string	"\377"
	.string	""
	.string	""
	.string	"\377"
	.string	""
	.string	""
	.string	"\377\340\260"
	.string	"\377\340\260"
	.string	"\377\340\260"
	.string	"\377\340\260"
	.string	"\377"
	.string	""
	.string	""
	.string	"\377"
	.string	""
	.string	""
	.string	"\377"
	.string	""
	.string	""
	.string	"\377"
	.string	""
	.string	""
	.string	"\377"
	.string	""
	.string	""
	.string	"\377"
	.string	""
	.string	""
	.string	"\377"
	.string	""
	.string	""
	.string	"\377"
	.string	""
	.string	""
	.string	"\377"
	.string	""
	.string	""
	.string	"\377"
	.string	""
	.string	""
	.string	"\377"
	.string	""
	.string	""
	.string	"\377"
	.string	""
	.string	""
	.string	"\377\340\260"
	.string	"\377\340\260"
	.string	"\377\340\260"
	.string	"\377\340\260"
	.string	"\377"
	.string	""
	.string	""
	.string	"\377"
	.string	""
	.string	""
	.string	"\377"
	.string	""
	.string	""
	.string	"\377"
	.string	""
	.string	""
	.string	"\377"
	.string	""
	.string	""
	.string	"\377"
	.string	""
	.string	""
	.string	"\377"
	.string	""
	.string	""
	.string	"\377\340\260"
	.string	"\377\340\260"
	.string	"\377\340\260"
	.string	"\377\340\260"
	.string	"\377"
	.string	""
	.string	""
	.string	"\377"
	.string	""
	.string	""
	.string	"\377\340\260"
	.string	"\377\340\260"
	.string	"\377\340\260"
	.string	"\377\340\260"
	.string	"\377\340\260"
	.string	"\377"
	.string	""
	.string	""
	.string	"\377"
	.string	""
	.string	""
	.string	"\377"
	.string	""
	.string	""
	.string	"\377"
	.string	""
	.string	""
	.string	"\377"
	.string	""
	.string	""
	.string	"\377"
	.string	""
	.string	""
	.string	"\377\340\260"
	.string	"\377\340\260"
	.string	"\377\340\260"
	.string	"\377\340\260"
	.string	"\377"
	.string	""
	.string	""
	.string	"\377\340\260"
	.string	"\377\340\260"
	.string	"\377\340\260"
	.string	"\377\340\260"
	.string	"\377\340\260"
	.string	"\377\340\260"
	.string	"\377\340\260"
	.string	"\377\340\260"
	.string	"\377\340\260"
	.string	"\377\340\260"
	.string	"\377\340\260"
	.string	"\377"
	.string	""
	.string	""
	.string	"\377"
	.string	""
	.string	""
	.string	"\377"
	.string	""
	.string	""
	.string	"\377"
	.string	""
	.string	""
	.string	"\377"
	.string	""
	.string	""
	.string	"\377\340\260"
	.string	"\377\340\260"
	.string	"\377\340\260"
	.string	"\377\340\260"
	.string	"\377\340\260"
	.string	"\377\340\260"
	.string	"\377\340\260"
	.string	"\377\340\260"
	.string	"\377\340\260"
	.string	"\377\340\260"
	.string	"\377\340\260"
	.string	"\377"
	.string	""
	.string	""
	.string	"\377"
	.string	""
	.string	""
	.string	"\377"
	.string	""
	.string	""
	.string	"\377"
	.string	""
	.string	""
	.string	"\377"
	.string	""
	.string	""
	.string	"\377"
	.string	""
	.string	""
	.string	"\377"
	.string	""
	.string	""
	.string	"\377"
	.string	""
	.string	""
	.string	"\377"
	.string	""
	.string	""
	.string	"\377"
	.string	""
	.string	""
	.string	"\377"
	.string	""
	.string	""
	.string	"\377"
	.string	""
	.string	""
	.string	"\377"
	.string	""
	.string	""
	.string	"\377\340\260"
	.string	"\377\340\260"
	.string	"\377\340\260"
	.string	"\377\340\260"
	.string	"\377\340\260"
	.string	"\377"
	.string	""
	.string	""
	.string	"\377"
	.string	""
	.string	""
	.string	"\377"
	.string	""
	.string	""
	.string	"\377"
	.string	""
	.string	""
	.string	"\377\340\260"
	.string	"\377\340\260"
	.string	"\377\340\260"
	.string	"\377\340\260"
	.string	"\377"
	.string	""
	.string	""
	.string	"\377"
	.string	""
	.string	""
	.string	"\377"
	.string	""
	.string	""
	.string	"\377"
	.string	""
	.string	""
	.string	"\377"
	.string	""
	.string	""
	.string	"\377\340\260"
	.string	"\377\340\260"
	.string	"\377\340\260"
	.string	"\377\340\260"
	.string	"\377"
	.string	""
	.string	""
	.string	"\377"
	.string	""
	.string	""
	.string	"\377\340\260"
	.string	"\377\340\260"
	.string	"\377\340\260"
	.string	"\377\340\260"
	.string	"\377"
	.string	""
	.string	""
	.string	"\377"
	.string	""
	.string	""
	.string	"\377"
	.string	""
	.string	""
	.string	"\377"
	.string	""
	.string	""
	.string	"\377"
	.string	""
	.string	""
	.string	"\377"
	.string	""
	.string	""
	.string	"\377"
	.string	""
	.string	""
	.string	"\377\340\260"
	.string	"\377\340\260"
	.string	"\377\340\260"
	.string	"\377\340\260"
	.string	"\377"
	.string	""
	.string	""
	.string	"\377\340\260"
	.string	"\377\340\260"
	.string	"\377\340\260"
	.string	"\377\340\260"
	.string	"\377"
	.string	""
	.string	""
	.string	"\377"
	.string	""
	.string	""
	.string	"\377"
	.string	""
	.string	""
	.string	"\377"
	.string	""
	.string	""
	.string	"\377"
	.string	""
	.string	""
	.string	"\377"
	.string	""
	.string	""
	.string	"\377"
	.string	""
	.string	""
	.string	"\377"
	.string	""
	.string	""
	.string	"\377"
	.string	""
	.string	""
	.string	"\377"
	.string	""
	.string	""
	.string	"\377"
	.string	""
	.string	""
	.string	"\377"
	.string	""
	.string	""
	.string	"\377"
	.string	""
	.string	""
	.string	"\377"
	.string	""
	.string	""
	.string	"\377"
	.string	""
	.string	""
	.string	"\377"
	.string	""
	.string	""
	.string	"\377"
	.string	""
	.string	""
	.string	"\377"
	.string	""
	.string	""
	.string	"\377"
	.string	""
	.string	""
	.string	"\377"
	.string	""
	.string	""
	.string	"\377"
	.string	""
	.string	""
	.string	"\377"
	.string	""
	.string	""
	.string	"\377"
	.string	""
	.string	""
	.string	"\377"
	.string	""
	.string	""
	.string	"\377"
	.string	""
	.string	""
	.string	"\377"
	.string	""
	.string	""
	.string	"\377"
	.string	""
	.string	""
	.string	"\377"
	.string	""
	.string	""
	.string	"\377"
	.string	""
	.string	""
	.string	"\377"
	.string	""
	.string	""
	.string	"\377"
	.string	""
	.string	""
	.string	"\377"
	.string	""
	.string	""
	.string	"\377"
	.string	""
	.string	""
	.string	"\377"
	.string	""
	.string	""
	.string	"\377"
	.string	""
	.string	""
	.string	"\377"
	.string	""
	.string	""
	.string	"\377"
	.string	""
	.string	""
	.string	"\377"
	.string	""
	.string	""
	.string	"\377"
	.string	""
	.string	""
	.string	"\377"
	.string	""
	.string	""
	.string	"\377"
	.string	""
	.string	""
	.string	"\377"
	.string	""
	.string	""
	.string	"\377"
	.string	""
	.string	""
	.string	"\377"
	.string	""
	.string	""
	.string	"\377"
	.string	""
	.string	""
	.string	"\377"
	.string	""
	.string	""
	.string	"\377"
	.string	""
	.string	""
	.string	"\377"
	.string	""
	.string	""
	.string	"\377"
	.string	""
	.string	""
	.string	"\377"
	.string	""
	.string	""
	.string	"\377"
	.string	""
	.string	""
	.string	"\377"
	.string	""
	.string	""
	.string	"\377"
	.string	""
	.string	""
	.string	"\377"
	.string	""
	.string	""
	.string	"\377"
	.string	""
	.string	""
	.string	"\377"
	.string	""
	.string	""
	.string	"\377"
	.string	""
	.string	""
	.string	"\377"
	.string	""
	.string	""
	.string	"\377"
	.string	""
	.string	""
	.string	"\377"
	.string	""
	.string	""
	.string	"\377"
	.string	""
	.string	""
	.string	"\377"
	.string	""
	.string	""
	.string	"\377"
	.string	""
	.string	""
	.string	"\377"
	.string	""
	.string	""
	.string	"\377"
	.string	""
	.string	""
	.string	"\377"
	.string	""
	.string	""
	.string	"\377"
	.string	""
	.string	""
	.string	"\377"
	.string	""
	.string	""
	.string	"\377"
	.string	""
	.string	""
	.string	"\377"
	.string	""
	.string	""
	.string	"\377"
	.string	""
	.string	""
	.string	"\377"
	.string	""
	.string	""
	.string	"\377"
	.string	""
	.string	""
	.string	"\377"
	.string	""
	.string	""
	.string	"\377\340\260"
	.string	"\377\340\260"
	.string	"\377\340\260"
	.string	"\377\340\260"
	.string	"\377\340\260"
	.string	"\377\340\260"
	.string	"\377\340\260"
	.string	"\377\340\260"
	.string	"\377\340\260"
	.string	"\377\340\260"
	.string	"\377"
	.string	""
	.string	""
	.string	"\377"
	.string	""
	.string	""
	.string	"\377"
	.string	""
	.string	""
	.string	"\377"
	.string	""
	.string	""
	.string	"\377"
	.string	""
	.string	""
	.string	"\377"
	.string	""
	.string	""
	.string	"\377"
	.string	""
	.string	""
	.string	"\377"
	.string	""
	.string	""
	.string	"\377"
	.string	""
	.string	""
	.string	"\377"
	.string	""
	.string	""
	.string	"\377"
	.string	""
	.string	""
	.string	"\377"
	.string	""
	.string	""
	.string	"\377"
	.string	""
	.string	""
	.string	"\377"
	.string	""
	.string	""
	.string	"\377"
	.string	""
	.string	""
	.string	"\377"
	.string	""
	.string	""
	.string	"\377"
	.string	""
	.string	""
	.string	"\377"
	.string	""
	.string	""
	.string	"\377"
	.string	""
	.string	""
	.string	"\377"
	.string	""
	.string	""
	.string	"\377"
	.string	""
	.string	""
	.string	"\377"
	.string	""
	.string	""
	.string	"\377"
	.string	""
	.string	""
	.string	"\377\340\260"
	.string	"\377\340\260"
	.string	"\377\340\260"
	.string	"\377\340\260"
	.string	"\377"
	.string	""
	.string	""
	.string	"\377"
	.string	""
	.string	""
	.string	"\377"
	.string	""
	.string	""
	.string	"\377"
	.string	""
	.string	""
	.string	"\377"
	.string	""
	.string	""
	.string	"\377"
	.string	""
	.string	""
	.string	"\377"
	.string	""
	.string	""
	.string	"\377\340\260"
	.string	"\377\340\260"
	.string	"\377\340\260"
	.string	"\377\340\260"
	.string	"\377"
	.string	""
	.string	""
	.string	"\377\340\260"
	.string	"\377\340\260"
	.string	"\377\340\260"
	.string	"\377\340\260"
	.string	"\377"
	.string	""
	.string	""
	.string	"\377"
	.string	""
	.string	""
	.string	"\377"
	.string	""
	.string	""
	.string	"\377"
	.string	""
	.string	""
	.string	"\377"
	.string	""
	.string	""
	.string	"\377"
	.string	""
	.string	""
	.string	"\377"
	.string	""
	.string	""
	.string	"\377\340\260"
	.string	"\377\340\260"
	.string	"\377\340\260"
	.string	"\377\340\260"
	.string	"\377"
	.string	""
	.string	""
	.string	"\377\340\260"
	.string	"\377\340\260"
	.string	"\377\340\260"
	.string	"\377\340\260"
	.string	"\377"
	.string	""
	.string	""
	.string	"\377"
	.string	""
	.string	""
	.string	"\377"
	.string	""
	.string	""
	.string	"\377"
	.string	""
	.string	""
	.string	"\377"
	.string	""
	.string	""
	.string	"\377"
	.string	""
	.string	""
	.string	"\377"
	.string	""
	.string	""
	.string	"\377"
	.string	""
	.string	""
	.string	"\377"
	.string	""
	.string	""
	.string	"\377"
	.string	""
	.string	""
	.string	"\377"
	.string	""
	.string	""
	.string	"\377"
	.string	""
	.string	""
	.string	"\377\340\260"
	.string	"\377\340\260"
	.string	"\377\340\260"
	.string	"\377\340\260"
	.string	"\377"
	.string	""
	.string	""
	.string	"\377"
	.string	""
	.string	""
	.string	"\377"
	.string	""
	.string	""
	.string	"\377"
	.string	""
	.string	""
	.string	"\377"
	.string	""
	.string	""
	.string	"\377"
	.string	""
	.string	""
	.string	"\377"
	.string	""
	.string	""
	.string	"\377\340\260"
	.string	"\377\340\260"
	.string	"\377\340\260"
	.string	"\377\340\260"
	.string	"\377"
	.string	""
	.string	""
	.string	"\377\340\260"
	.string	"\377\340\260"
	.string	"\377\340\260"
	.string	"\377\340\260"
	.string	"\377\340\260"
	.string	"\377\340\260"
	.string	"\377\340\260"
	.string	"\377\340\260"
	.string	"\377\340\260"
	.string	"\377"
	.string	""
	.string	""
	.string	"\377"
	.string	""
	.string	""
	.string	"\377"
	.string	""
	.string	""
	.string	"\377"
	.string	""
	.string	""
	.string	"\377"
	.string	""
	.string	""
	.string	"\377"
	.string	""
	.string	""
	.string	"\377"
	.string	""
	.string	""
	.string	"\377\340\260"
	.string	"\377\340\260"
	.string	"\377\340\260"
	.string	"\377\340\260"
	.string	"\377\340\260"
	.string	"\377\340\260"
	.string	"\377\340\260"
	.string	"\377\340\260"
	.string	"\377\340\260"
	.string	"\377"
	.string	""
	.string	""
	.string	"\377"
	.string	""
	.string	""
	.string	"\377"
	.string	""
	.string	""
	.string	"\377"
	.string	""
	.string	""
	.string	"\377"
	.string	""
	.string	""
	.string	"\377"
	.string	""
	.string	""
	.string	"\377"
	.string	""
	.string	""
	.string	"\377\340\260"
	.string	"\377\340\260"
	.string	"\377\340\260"
	.string	"\377\340\260"
	.string	"\377"
	.string	""
	.string	""
	.string	"\377"
	.string	""
	.string	""
	.string	"\377"
	.string	""
	.string	""
	.string	"\377"
	.string	""
	.string	""
	.string	"\377"
	.string	""
	.string	""
	.string	"\377"
	.string	""
	.string	""
	.string	"\377"
	.string	""
	.string	""
	.string	"\377"
	.string	""
	.string	""
	.string	"\377"
	.string	""
	.string	""
	.string	"\377"
	.string	""
	.string	""
	.string	"\377"
	.string	""
	.string	""
	.string	"\377"
	.string	""
	.string	""
	.string	"\377"
	.string	""
	.string	""
	.string	"\377"
	.string	""
	.string	""
	.string	"\377\340\260"
	.string	"\377\340\260"
	.string	"\377\340\260"
	.string	"\377\340\260"
	.string	"\377\340\260"
	.string	"\377\340\260"
	.string	"\377\340\260"
	.string	"\377\340\260"
	.string	"\377\340\260"
	.string	"\377\340\260"
	.string	"\377\340\260"
	.string	"\377\340\260"
	.string	"\377\340\260"
	.string	"\377\340\260"
	.string	"\377"
	.string	""
	.string	""
	.string	"\377\340\260"
	.string	"\377\340\260"
	.string	"\377\340\260"
	.string	"\377\340\260"
	.string	"\377\340\260"
	.string	"\377\340\260"
	.string	"\377\340\260"
	.string	"\377\340\260"
	.string	"\377\340\260"
	.string	"\377\340\260"
	.string	"\377\340\260"
	.string	"\377\340\260"
	.string	"\377\340\260"
	.string	"\377"
	.string	""
	.string	""
	.string	"\377"
	.string	""
	.string	""
	.string	"\377"
	.string	""
	.string	""
	.string	"\377\340\260"
	.string	"\377\340\260"
	.string	"\377\340\260"
	.string	"\377\340\260"
	.string	"\377\340\260"
	.string	"\377\340\260"
	.string	"\377\340\260"
	.string	"\377\340\260"
	.string	"\377\340\260"
	.string	"\377\340\260"
	.string	"\377\340\260"
	.string	"\377\340\260"
	.string	"\377\340\260"
	.string	"\377"
	.string	""
	.string	""
	.string	"\377"
	.string	""
	.string	""
	.string	"\377"
	.string	""
	.string	""
	.string	"\377"
	.string	""
	.string	""
	.string	"\377"
	.string	""
	.string	""
	.string	"\377"
	.string	""
	.string	""
	.string	"\377"
	.string	""
	.string	""
	.string	"\377"
	.string	""
	.string	""
	.string	"\377"
	.string	""
	.string	""
	.string	"\377"
	.string	""
	.string	""
	.string	"\377\340\260"
	.string	"\377\340\260"
	.string	"\377\340\260"
	.string	"\377\340\260"
	.string	"\377\340\260"
	.string	"\377"
	.string	""
	.string	""
	.string	"\377"
	.string	""
	.string	""
	.string	"\377"
	.string	""
	.string	""
	.string	"\377"
	.string	""
	.string	""
	.string	"\377"
	.string	""
	.string	""
	.string	"\377"
	.string	""
	.string	""
	.string	"\377\340\260"
	.string	"\377\340\260"
	.string	"\377\340\260"
	.string	"\377\340\260"
	.string	"\377\340\260"
	.string	"\377\340\260"
	.string	"\377\340\260"
	.string	"\377\340\260"
	.string	"\377\340\260"
	.string	"\377\340\260"
	.string	"\377\340\260"
	.string	"\377"
	.string	""
	.string	""
	.string	"\377"
	.string	""
	.string	""
	.string	"\377"
	.string	""
	.string	""
	.string	"\377\340\260"
	.string	"\377\340\260"
	.string	"\377\340\260"
	.string	"\377\340\260"
	.string	"\377\340\260"
	.string	"\377"
	.string	""
	.string	""
	.string	"\377"
	.string	""
	.string	""
	.string	"\377"
	.string	""
	.string	""
	.string	"\377"
	.string	""
	.string	""
	.string	"\377"
	.string	""
	.string	""
	.string	"\377"
	.string	""
	.string	""
	.string	"\377\340\260"
	.string	"\377\340\260"
	.string	"\377\340\260"
	.string	"\377\340\260"
	.string	"\377"
	.string	""
	.string	""
	.string	"\377"
	.string	""
	.string	""
	.string	"\377"
	.string	""
	.string	""
	.string	"\377"
	.string	""
	.string	""
	.string	"\377"
	.string	""
	.string	""
	.string	"\377"
	.string	""
	.string	""
	.string	"\377"
	.string	""
	.string	""
	.string	"\377"
	.string	""
	.string	""
	.string	"\377"
	.string	""
	.string	""
	.string	"\377"
	.string	""
	.string	""
	.string	"\377"
	.string	""
	.string	""
	.string	"\377"
	.string	""
	.string	""
	.string	"\377"
	.string	""
	.string	""
	.string	"\377"
	.string	""
	.string	""
	.string	"\377"
	.string	""
	.string	""
	.string	"\377"
	.string	""
	.string	""
	.string	"\377"
	.string	""
	.string	""
	.string	"\377"
	.string	""
	.string	""
	.string	"\377"
	.string	""
	.string	""
	.string	"\377"
	.string	""
	.string	""
	.string	"\377"
	.string	""
	.string	""
	.string	"\377"
	.string	""
	.string	""
	.string	"\377"
	.string	""
	.string	""
	.string	"\377"
	.string	""
	.string	""
	.string	"\377"
	.string	""
	.string	""
	.string	"\377"
	.string	""
	.string	""
	.string	"\377"
	.string	""
	.string	""
	.string	"\377"
	.string	""
	.string	""
	.string	"\377"
	.string	""
	.string	""
	.string	"\377"
	.string	""
	.string	""
	.string	"\377"
	.string	""
	.string	""
	.string	"\377"
	.string	""
	.string	""
	.string	"\377"
	.string	""
	.string	""
	.string	"\377"
	.string	""
	.string	""
	.string	"\377"
	.string	""
	.string	""
	.string	"\377"
	.string	""
	.string	""
	.string	"\377"
	.string	""
	.string	""
	.string	"\377"
	.string	""
	.string	""
	.string	"\377"
	.string	""
	.string	""
	.string	"\377"
	.string	""
	.string	""
	.string	"\377"
	.string	""
	.string	""
	.string	"\377"
	.string	""
	.string	""
	.string	"\377"
	.string	""
	.string	""
	.string	"\377"
	.string	""
	.string	""
	.ascii	"\377"
	.string	""
	.string	""
	.string	""
	.string	"\377"
	.string	""
	.string	""
	.string	"\377"
	.string	""
	.string	""
	.string	"\377"
	.string	""
	.string	""
	.string	"\377"
	.string	""
	.string	""
	.string	"\377"
	.string	""
	.string	""
	.string	"\377"
	.string	""
	.string	""
	.string	"\377"
	.string	""
	.string	""
	.string	"\377"
	.string	""
	.string	""
	.string	"\377"
	.string	""
	.string	""
	.string	"\377"
	.string	""
	.string	""
	.string	"\377"
	.string	""
	.string	""
	.string	"\377"
	.string	""
	.string	""
	.string	"\377"
	.string	""
	.string	""
	.string	"\377"
	.string	""
	.string	""
	.string	"\377"
	.string	""
	.string	""
	.string	"\377"
	.string	""
	.string	""
	.string	"\377"
	.string	""
	.string	""
	.string	"\377"
	.string	""
	.string	""
	.string	"\377"
	.string	""
	.string	""
	.string	"\377"
	.string	""
	.string	""
	.string	"\377"
	.string	""
	.string	""
	.string	"\377"
	.string	""
	.string	""
	.string	"\377"
	.string	""
	.string	""
	.string	"\377"
	.string	""
	.string	""
	.string	"\377"
	.string	""
	.string	""
	.string	"\377"
	.string	""
	.string	""
	.string	"\377"
	.string	""
	.string	""
	.string	"\377"
	.string	""
	.string	""
	.string	"\377"
	.string	""
	.string	""
	.string	"\377"
	.string	""
	.string	""
	.string	"\377"
	.string	""
	.string	""
	.string	"\377"
	.string	""
	.string	""
	.string	"\377"
	.string	""
	.string	""
	.string	"\377"
	.string	""
	.string	""
	.string	"\377\340\260"
	.string	"\377\340\260"
	.string	"\377\340\260"
	.string	"\377"
	.string	""
	.string	""
	.string	"\377"
	.string	""
	.string	""
	.string	"\377"
	.string	""
	.string	""
	.string	"\377"
	.string	""
	.string	""
	.string	"\377"
	.string	""
	.string	""
	.string	"\377"
	.string	""
	.string	""
	.string	"\377"
	.string	""
	.string	""
	.string	"\377"
	.string	""
	.string	""
	.string	"\377"
	.string	""
	.string	""
	.string	"\377"
	.string	""
	.string	""
	.string	"\377"
	.string	""
	.string	""
	.string	"\377"
	.string	""
	.string	""
	.string	"\377"
	.string	""
	.string	""
	.string	"\377"
	.string	""
	.string	""
	.string	"\377"
	.string	""
	.string	""
	.string	"\377"
	.string	""
	.string	""
	.string	"\377"
	.string	""
	.string	""
	.string	"\377"
	.string	""
	.string	""
	.string	"\377"
	.string	""
	.string	""
	.string	"\377"
	.string	""
	.string	""
	.string	"\377"
	.string	""
	.string	""
	.string	"\377"
	.string	""
	.string	""
	.string	"\377"
	.string	""
	.string	""
	.string	"\377"
	.string	""
	.string	""
	.string	"\377"
	.string	""
	.string	""
	.string	"\377"
	.string	""
	.string	""
	.string	"\377"
	.string	""
	.string	""
	.string	"\377"
	.string	""
	.string	""
	.string	"\377"
	.string	""
	.string	""
	.string	"\377"
	.string	""
	.string	""
	.string	"\377\340\260"
	.string	"\377\340\260"
	.string	"\377\340\260"
	.string	"\377\340\260"
	.string	"\377"
	.string	""
	.string	""
	.string	"\377"
	.string	""
	.string	""
	.string	"\377"
	.string	""
	.string	""
	.string	"\377"
	.string	""
	.string	""
	.string	"\377"
	.string	""
	.string	""
	.string	"\377"
	.string	""
	.string	""
	.string	"\377"
	.string	""
	.string	""
	.string	"\377\340\260"
	.string	"\377\340\260"
	.string	"\377\340\260"
	.string	"\377\340\260"
	.string	"\377"
	.string	""
	.string	""
	.string	"\377\340\260"
	.string	"\377\340\260"
	.string	"\377\340\260"
	.string	"\377\340\260"
	.string	"\377"
	.string	""
	.string	""
	.string	"\377"
	.string	""
	.string	""
	.string	"\377"
	.string	""
	.string	""
	.string	"\377"
	.string	""
	.string	""
	.string	"\377"
	.string	""
	.string	""
	.string	"\377"
	.string	""
	.string	""
	.string	"\377\340\260"
	.string	"\377\340\260"
	.string	"\377\340\260"
	.string	"\377\340\260"
	.string	"\377"
	.string	""
	.string	""
	.string	"\377"
	.string	""
	.string	""
	.string	"\377\340\260"
	.string	"\377\340\260"
	.string	"\377\340\260"
	.string	"\377\340\260"
	.string	"\377"
	.string	""
	.string	""
	.string	"\377"
	.string	""
	.string	""
	.string	"\377"
	.string	""
	.string	""
	.string	"\377"
	.string	""
	.string	""
	.string	"\377"
	.string	""
	.string	""
	.string	"\377"
	.string	""
	.string	""
	.string	"\377"
	.string	""
	.string	""
	.string	"\377"
	.string	""
	.string	""
	.string	"\377"
	.string	""
	.string	""
	.string	"\377"
	.string	""
	.string	""
	.string	"\377"
	.string	""
	.string	""
	.string	"\377"
	.string	""
	.string	""
	.string	"\377\340\260"
	.string	"\377\340\260"
	.string	"\377\340\260"
	.string	"\377\340\260"
	.string	"\377"
	.string	""
	.string	""
	.string	"\377"
	.string	""
	.string	""
	.string	"\377"
	.string	""
	.string	""
	.string	"\377"
	.string	""
	.string	""
	.string	"\377"
	.string	""
	.string	""
	.string	"\377"
	.string	""
	.string	""
	.string	"\377"
	.string	""
	.string	""
	.string	"\377\340\260"
	.string	"\377\340\260"
	.string	"\377\340\260"
	.string	"\377\340\260"
	.string	"\377"
	.string	""
	.string	""
	.string	"\377\340\260"
	.string	"\377\340\260"
	.string	"\377\340\260"
	.string	"\377\340\260"
	.string	"\377\340\260"
	.string	"\377\340\260"
	.string	"\377\340\260"
	.string	"\377\340\260"
	.string	"\377\340\260"
	.string	"\377"
	.string	""
	.string	""
	.string	"\377"
	.string	""
	.string	""
	.string	"\377"
	.string	""
	.string	""
	.string	"\377"
	.string	""
	.string	""
	.string	"\377"
	.string	""
	.string	""
	.string	"\377"
	.string	""
	.string	""
	.string	"\377"
	.string	""
	.string	""
	.string	"\377\340\260"
	.string	"\377\340\260"
	.string	"\377\340\260"
	.string	"\377\340\260"
	.string	"\377\340\260"
	.string	"\377\340\260"
	.string	"\377\340\260"
	.string	"\377\340\260"
	.string	"\377\340\260"
	.string	"\377"
	.string	""
	.string	""
	.string	"\377"
	.string	""
	.string	""
	.string	"\377"
	.string	""
	.string	""
	.string	"\377"
	.string	""
	.string	""
	.string	"\377"
	.string	""
	.string	""
	.string	"\377"
	.string	""
	.string	""
	.string	"\377"
	.string	""
	.string	""
	.string	"\377\340\260"
	.string	"\377\340\260"
	.string	"\377\340\260"
	.string	"\377\340\260"
	.string	"\377"
	.string	""
	.string	""
	.string	"\377"
	.string	""
	.string	""
	.string	"\377"
	.string	""
	.string	""
	.string	"\377"
	.string	""
	.string	""
	.string	"\377"
	.string	""
	.string	""
	.string	"\377"
	.string	""
	.string	""
	.string	"\377"
	.string	""
	.string	""
	.string	"\377"
	.string	""
	.string	""
	.string	"\377"
	.string	""
	.string	""
	.string	"\377"
	.string	""
	.string	""
	.string	"\377"
	.string	""
	.string	""
	.string	"\377"
	.string	""
	.string	""
	.string	"\377"
	.string	""
	.string	""
	.string	"\377"
	.string	""
	.string	""
	.string	"\377\340\260"
	.string	"\377\340\260"
	.string	"\377\340\260"
	.string	"\377\340\260"
	.string	"\377\340\260"
	.string	"\377\340\260"
	.string	"\377\340\260"
	.string	"\377\340\260"
	.string	"\377\340\260"
	.string	"\377\340\260"
	.string	"\377\340\260"
	.string	"\377\340\260"
	.string	"\377\340\260"
	.string	"\377\340\260"
	.string	"\377"
	.string	""
	.string	""
	.string	"\377\340\260"
	.string	"\377\340\260"
	.string	"\377\340\260"
	.string	"\377\340\260"
	.string	"\377\340\260"
	.string	"\377\340\260"
	.string	"\377\340\260"
	.string	"\377\340\260"
	.string	"\377\340\260"
	.string	"\377\340\260"
	.string	"\377\340\260"
	.string	"\377\340\260"
	.string	"\377\340\260"
	.string	"\377\340\260"
	.string	"\377"
	.string	""
	.string	""
	.string	"\377"
	.string	""
	.string	""
	.string	"\377\340\260"
	.string	"\377\340\260"
	.string	"\377\340\260"
	.string	"\377\340\260"
	.string	"\377\340\260"
	.string	"\377\340\260"
	.string	"\377\340\260"
	.string	"\377\340\260"
	.string	"\377\340\260"
	.string	"\377\340\260"
	.string	"\377\340\260"
	.string	"\377\340\260"
	.string	"\377\340\260"
	.string	"\377\340\260"
	.string	"\377"
	.string	""
	.string	""
	.string	"\377"
	.string	""
	.string	""
	.string	"\377"
	.string	""
	.string	""
	.string	"\377"
	.string	""
	.string	""
	.string	"\377"
	.string	""
	.string	""
	.string	"\377"
	.string	""
	.string	""
	.string	"\377"
	.string	""
	.string	""
	.string	"\377"
	.string	""
	.string	""
	.string	"\377"
	.string	""
	.string	""
	.string	"\377\340\260"
	.string	"\377\340\260"
	.string	"\377\340\260"
	.string	"\377\340\260"
	.string	"\377\340\260"
	.string	"\377"
	.string	""
	.string	""
	.string	"\377"
	.string	""
	.string	""
	.string	"\377"
	.string	""
	.string	""
	.string	"\377"
	.string	""
	.string	""
	.string	"\377"
	.string	""
	.string	""
	.string	"\377"
	.string	""
	.string	""
	.string	"\377\340\260"
	.string	"\377\340\260"
	.string	"\377\340\260"
	.string	"\377\340\260"
	.string	"\377\340\260"
	.string	"\377\340\260"
	.string	"\377\340\260"
	.string	"\377\340\260"
	.string	"\377\340\260"
	.string	"\377\340\260"
	.string	"\377\340\260"
	.string	"\377"
	.string	""
	.string	""
	.string	"\377"
	.string	""
	.string	""
	.string	"\377"
	.string	""
	.string	""
	.string	"\377"
	.string	""
	.string	""
	.string	"\377\340\260"
	.string	"\377\340\260"
	.string	"\377\340\260"
	.string	"\377\340\260"
	.string	"\377\340\260"
	.string	"\377\340\260"
	.string	"\377\340\260"
	.string	"\377\340\260"
	.string	"\377\340\260"
	.string	"\377\340\260"
	.string	"\377\340\260"
	.string	"\377\340\260"
	.string	"\377\340\260"
	.string	"\377\340\260"
	.string	"\377"
	.string	""
	.string	""
	.string	"\377"
	.string	""
	.string	""
	.string	"\377"
	.string	""
	.string	""
	.string	"\377"
	.string	""
	.string	""
	.string	"\377"
	.string	""
	.string	""
	.string	"\377"
	.string	""
	.string	""
	.string	"\377"
	.string	""
	.string	""
	.string	"\377"
	.string	""
	.string	""
	.string	"\377"
	.string	""
	.string	""
	.string	"\377"
	.string	""
	.string	""
	.string	"\377"
	.string	""
	.string	""
	.string	"\377"
	.string	""
	.string	""
	.string	"\377"
	.string	""
	.string	""
	.string	"\377"
	.string	""
	.string	""
	.string	"\377"
	.string	""
	.string	""
	.string	"\377"
	.string	""
	.string	""
	.string	"\377"
	.string	""
	.string	""
	.string	"\377"
	.string	""
	.string	""
	.string	"\377"
	.string	""
	.string	""
	.string	"\377"
	.string	""
	.string	""
	.string	"\377"
	.string	""
	.string	""
	.string	"\377"
	.string	""
	.string	""
	.string	"\377"
	.string	""
	.string	""
	.string	"\377"
	.string	""
	.string	""
	.string	"\377"
	.string	""
	.string	""
	.string	"\377"
	.string	""
	.string	""
	.string	"\377"
	.string	""
	.string	""
	.string	"\377"
	.string	""
	.string	""
	.string	"\377"
	.string	""
	.string	""
	.string	"\377"
	.string	""
	.string	""
	.string	"\377"
	.string	""
	.string	""
	.string	"\377"
	.string	""
	.string	""
	.string	"\377"
	.string	""
	.string	""
	.string	"\377"
	.string	""
	.string	""
	.string	"\377"
	.string	""
	.string	""
	.string	"\377"
	.string	""
	.string	""
	.string	"\377"
	.string	""
	.string	""
	.string	"\377"
	.string	""
	.string	""
	.string	"\377"
	.string	""
	.string	""
	.string	"\377"
	.string	""
	.string	""
	.string	"\377"
	.string	""
	.string	""
	.string	"\377"
	.string	""
	.string	""
	.string	"\377"
	.string	""
	.string	""
	.string	"\377"
	.string	""
	.string	""
	.string	"\377"
	.string	""
	.string	""
	.string	"\377"
	.string	""
	.string	""
	.string	"\377"
	.string	""
	.string	""
	.string	"\377"
	.string	""
	.string	""
	.string	"\377"
	.string	""
	.string	""
	.string	"\377"
	.string	""
	.string	""
	.string	"\377"
	.string	""
	.string	""
	.string	"\377"
	.string	""
	.string	""
	.string	"\377"
	.string	""
	.string	""
	.string	"\377"
	.string	""
	.string	""
	.string	"\377"
	.string	""
	.string	""
	.string	"\377"
	.string	""
	.string	""
	.string	"\377"
	.string	""
	.string	""
	.string	"\377"
	.string	""
	.string	""
	.string	"\377"
	.string	""
	.string	""
	.string	"\377"
	.string	""
	.string	""
	.string	"\377"
	.string	""
	.string	""
	.string	"\377"
	.string	""
	.string	""
	.string	"\377"
	.string	""
	.string	""
	.string	"\377"
	.string	""
	.string	""
	.string	"\377"
	.string	""
	.string	""
	.string	"\377"
	.string	""
	.string	""
	.string	"\377"
	.string	""
	.string	""
	.string	"\377"
	.string	""
	.string	""
	.string	"\377"
	.string	""
	.string	""
	.string	"\377"
	.string	""
	.string	""
	.string	"\377"
	.string	""
	.string	""
	.string	"\377"
	.string	""
	.string	""
	.string	"\377"
	.string	""
	.string	""
	.string	"\377"
	.string	""
	.string	""
	.string	"\377"
	.string	""
	.string	""
	.string	"\377"
	.string	""
	.string	""
	.string	"\377"
	.string	""
	.string	""
	.string	"\377"
	.string	""
	.string	""
	.string	"\377"
	.string	""
	.string	""
	.string	"\377\340\260"
	.string	"\377\340\260"
	.string	"\377\340\260"
	.string	"\377\340\260"
	.string	"\377\340\260"
	.string	"\377\340\260"
	.string	"\377\340\260"
	.string	"\377\340\260"
	.string	"\377\340\260"
	.string	"\377\340\260"
	.string	"\377\340\260"
	.string	"\377"
	.string	""
	.string	""
	.string	"\377"
	.string	""
	.string	""
	.string	"\377"
	.string	""
	.string	""
	.string	"\377"
	.string	""
	.string	""
	.string	"\377"
	.string	""
	.string	""
	.string	"\377"
	.string	""
	.string	""
	.string	"\377"
	.string	""
	.string	""
	.string	"\377"
	.string	""
	.string	""
	.string	"\377"
	.string	""
	.string	""
	.string	"\377"
	.string	""
	.string	""
	.string	"\377"
	.string	""
	.string	""
	.string	"\377"
	.string	""
	.string	""
	.string	"\377"
	.string	""
	.string	""
	.string	"\377"
	.string	""
	.string	""
	.string	"\377"
	.string	""
	.string	""
	.string	"\377"
	.string	""
	.string	""
	.string	"\377"
	.string	""
	.string	""
	.string	"\377"
	.string	""
	.string	""
	.string	"\377"
	.string	""
	.string	""
	.string	"\377"
	.string	""
	.string	""
	.string	"\377"
	.string	""
	.string	""
	.string	"\377"
	.string	""
	.string	""
	.string	"\377\340\260"
	.string	"\377\340\260"
	.string	"\377\340\260"
	.string	"\377\340\260"
	.string	"\377\340\260"
	.string	"\377\340\260"
	.string	"\377\340\260"
	.string	"\377\340\260"
	.string	"\377\340\260"
	.string	"\377\340\260"
	.string	"\377\340\260"
	.string	"\377\340\260"
	.string	"\377\340\260"
	.string	"\377\340\260"
	.string	"\377\340\260"
	.string	"\377"
	.string	""
	.string	""
	.string	"\377\340\260"
	.string	"\377\340\260"
	.string	"\377\340\260"
	.string	"\377\340\260"
	.string	"\377"
	.string	""
	.string	""
	.string	"\377"
	.string	""
	.string	""
	.string	"\377"
	.string	""
	.string	""
	.string	"\377"
	.string	""
	.string	""
	.string	"\377"
	.string	""
	.string	""
	.string	"\377\340\260"
	.string	"\377\340\260"
	.string	"\377\340\260"
	.string	"\377\340\260"
	.string	"\377"
	.string	""
	.string	""
	.string	"\377"
	.string	""
	.string	""
	.string	"\377"
	.string	""
	.string	""
	.string	"\377\340\260"
	.string	"\377\340\260"
	.string	"\377\340\260"
	.string	"\377\340\260"
	.string	"\377"
	.string	""
	.string	""
	.string	"\377"
	.string	""
	.string	""
	.string	"\377"
	.string	""
	.string	""
	.string	"\377"
	.string	""
	.string	""
	.string	"\377"
	.string	""
	.string	""
	.string	"\377"
	.string	""
	.string	""
	.string	"\377"
	.string	""
	.string	""
	.string	"\377"
	.string	""
	.string	""
	.string	"\377"
	.string	""
	.string	""
	.string	"\377"
	.string	""
	.string	""
	.string	"\377"
	.string	""
	.string	""
	.string	"\377"
	.string	""
	.string	""
	.string	"\377\340\260"
	.string	"\377\340\260"
	.string	"\377\340\260"
	.string	"\377\340\260"
	.string	"\377"
	.string	""
	.string	""
	.string	"\377"
	.string	""
	.string	""
	.string	"\377"
	.string	""
	.string	""
	.string	"\377"
	.string	""
	.string	""
	.string	"\377"
	.string	""
	.string	""
	.string	"\377"
	.string	""
	.string	""
	.string	"\377"
	.string	""
	.string	""
	.string	"\377\340\260"
	.string	"\377\340\260"
	.string	"\377\340\260"
	.string	"\377\340\260"
	.string	"\377"
	.string	""
	.string	""
	.string	"\377\340\260"
	.string	"\377\340\260"
	.string	"\377\340\260"
	.string	"\377\340\260"
	.string	"\377\340\260"
	.string	"\377\340\260"
	.string	"\377\340\260"
	.string	"\377\340\260"
	.string	"\377\340\260"
	.string	"\377"
	.string	""
	.string	""
	.string	"\377"
	.string	""
	.string	""
	.string	"\377"
	.string	""
	.string	""
	.string	"\377"
	.string	""
	.string	""
	.string	"\377"
	.string	""
	.string	""
	.string	"\377"
	.string	""
	.string	""
	.string	"\377"
	.string	""
	.string	""
	.string	"\377\340\260"
	.string	"\377\340\260"
	.string	"\377\340\260"
	.string	"\377\340\260"
	.string	"\377\340\260"
	.string	"\377\340\260"
	.string	"\377\340\260"
	.string	"\377\340\260"
	.string	"\377\340\260"
	.string	"\377"
	.string	""
	.string	""
	.string	"\377"
	.string	""
	.string	""
	.string	"\377"
	.string	""
	.string	""
	.string	"\377"
	.string	""
	.string	""
	.string	"\377"
	.string	""
	.string	""
	.string	"\377"
	.string	""
	.string	""
	.string	"\377"
	.string	""
	.string	""
	.string	"\377\340\260"
	.string	"\377\340\260"
	.string	"\377\340\260"
	.string	"\377\340\260"
	.string	"\377"
	.string	""
	.string	""
	.string	"\377"
	.string	""
	.string	""
	.string	"\377"
	.string	""
	.string	""
	.string	"\377"
	.string	""
	.string	""
	.string	"\377\340\260"
	.string	"\377\340\260"
	.string	"\377\340\260"
	.string	"\377\340\260"
	.string	"\377\340\260"
	.string	"\377\340\260"
	.string	"\377\340\260"
	.string	"\377"
	.string	""
	.string	""
	.ascii	"\377"
	.string	""
	.string	""
	.string	""
	.string	"\377"
	.string	""
	.string	""
	.string	"\377"
	.string	""
	.string	""
	.string	"\377\340\260"
	.string	"\377\340\260"
	.string	"\377\340\260"
	.string	"\377\340\260"
	.string	"\377\340\260"
	.string	"\377\340\260"
	.string	"\377\340\260"
	.string	"\377\340\260"
	.string	"\377\340\260"
	.string	"\377\340\260"
	.string	"\377\340\260"
	.string	"\377\340\260"
	.string	"\377\340\260"
	.string	"\377"
	.string	""
	.string	""
	.string	"\377"
	.string	""
	.string	""
	.string	"\377\340\260"
	.string	"\377\340\260"
	.string	"\377\340\260"
	.string	"\377\340\260"
	.string	"\377\340\260"
	.string	"\377\340\260"
	.string	"\377\340\260"
	.string	"\377\340\260"
	.string	"\377\340\260"
	.string	"\377\340\260"
	.string	"\377\340\260"
	.string	"\377\340\260"
	.string	"\377\340\260"
	.string	"\377"
	.string	""
	.string	""
	.string	"\377"
	.string	""
	.string	""
	.string	"\377\340\260"
	.string	"\377\340\260"
	.string	"\377\340\260"
	.string	"\377\340\260"
	.string	"\377\340\260"
	.string	"\377\340\260"
	.string	"\377\340\260"
	.string	"\377\340\260"
	.string	"\377\340\260"
	.string	"\377\340\260"
	.string	"\377\340\260"
	.string	"\377\340\260"
	.string	"\377\340\260"
	.string	"\377\340\260"
	.string	"\377"
	.string	""
	.string	""
	.string	"\377"
	.string	""
	.string	""
	.string	"\377"
	.string	""
	.string	""
	.string	"\377"
	.string	""
	.string	""
	.string	"\377"
	.string	""
	.string	""
	.string	"\377"
	.string	""
	.string	""
	.string	"\377"
	.string	""
	.string	""
	.string	"\377"
	.string	""
	.string	""
	.string	"\377\340\260"
	.string	"\377\340\260"
	.string	"\377\340\260"
	.string	"\377\340\260"
	.string	"\377\340\260"
	.string	"\377"
	.string	""
	.string	""
	.string	"\377"
	.string	""
	.string	""
	.string	"\377"
	.string	""
	.string	""
	.string	"\377"
	.string	""
	.string	""
	.string	"\377"
	.string	""
	.string	""
	.string	"\377"
	.string	""
	.string	""
	.string	"\377\340\260"
	.string	"\377\340\260"
	.string	"\377\340\260"
	.string	"\377\340\260"
	.string	"\377"
	.string	""
	.string	""
	.string	"\377"
	.string	""
	.string	""
	.string	"\377"
	.string	""
	.string	""
	.string	"\377"
	.string	""
	.string	""
	.string	"\377"
	.string	""
	.string	""
	.string	"\377\340\260"
	.string	"\377\340\260"
	.string	"\377\340\260"
	.string	"\377\340\260"
	.string	"\377"
	.string	""
	.string	""
	.string	"\377"
	.string	""
	.string	""
	.string	"\377"
	.string	""
	.string	""
	.string	"\377\340\260"
	.string	"\377\340\260"
	.string	"\377\340\260"
	.string	"\377\340\260"
	.string	"\377\340\260"
	.string	"\377\340\260"
	.string	"\377\340\260"
	.string	"\377\340\260"
	.string	"\377\340\260"
	.string	"\377\340\260"
	.string	"\377\340\260"
	.string	"\377\340\260"
	.string	"\377\340\260"
	.string	"\377\340\260"
	.string	"\377"
	.string	""
	.string	""
	.string	"\377\340\260"
	.string	"\377\340\260"
	.string	"\377\340\260"
	.string	"\377\340\260"
	.string	"\377"
	.string	""
	.string	""
	.string	"\377"
	.string	""
	.string	""
	.string	"\377"
	.string	""
	.string	""
	.string	"\377"
	.string	""
	.string	""
	.string	"\377"
	.string	""
	.string	""
	.string	"\377"
	.string	""
	.string	""
	.string	"\377"
	.string	""
	.string	""
	.string	"\377"
	.string	""
	.string	""
	.string	"\377"
	.string	""
	.string	""
	.string	"\377"
	.string	""
	.string	""
	.string	"\377"
	.string	""
	.string	""
	.string	"\377"
	.string	""
	.string	""
	.string	"\377"
	.string	""
	.string	""
	.string	"\377"
	.string	""
	.string	""
	.string	"\377"
	.string	""
	.string	""
	.string	"\377"
	.string	""
	.string	""
	.string	"\377"
	.string	""
	.string	""
	.string	"\377"
	.string	""
	.string	""
	.string	"\377"
	.string	""
	.string	""
	.string	"\377"
	.string	""
	.string	""
	.string	"\377"
	.string	""
	.string	""
	.string	"\377"
	.string	""
	.string	""
	.string	"\377"
	.string	""
	.string	""
	.string	"\377"
	.string	""
	.string	""
	.string	"\377"
	.string	""
	.string	""
	.string	"\377"
	.string	""
	.string	""
	.string	"\377"
	.string	""
	.string	""
	.string	"\377"
	.string	""
	.string	""
	.string	"\377"
	.string	""
	.string	""
	.string	"\377"
	.string	""
	.string	""
	.string	"\377"
	.string	""
	.string	""
	.string	"\377"
	.string	""
	.string	""
	.string	"\377"
	.string	""
	.string	""
	.string	"\377"
	.string	""
	.string	""
	.string	"\377"
	.string	""
	.string	""
	.string	"\377"
	.string	""
	.string	""
	.string	"\377"
	.string	""
	.string	""
	.string	"\377"
	.string	""
	.string	""
	.string	"\377"
	.string	""
	.string	""
	.string	"\377"
	.string	""
	.string	""
	.string	"\377"
	.string	""
	.string	""
	.string	"\377"
	.string	""
	.string	""
	.string	"\377"
	.string	""
	.string	""
	.string	"\377"
	.string	""
	.string	""
	.string	"\377"
	.string	""
	.string	""
	.string	"\377"
	.string	""
	.string	""
	.string	"\377"
	.string	""
	.string	""
	.string	"\377"
	.string	""
	.string	""
	.string	"\377"
	.string	""
	.string	""
	.string	"\377"
	.string	""
	.string	""
	.string	"\377"
	.string	""
	.string	""
	.string	"\377"
	.string	""
	.string	""
	.string	"\377"
	.string	""
	.string	""
	.string	"\377"
	.string	""
	.string	""
	.string	"\377"
	.string	""
	.string	""
	.string	"\377"
	.string	""
	.string	""
	.string	"\377"
	.string	""
	.string	""
	.string	"\377"
	.string	""
	.string	""
	.string	"\377"
	.string	""
	.string	""
	.string	"\377"
	.string	""
	.string	""
	.string	"\377"
	.string	""
	.string	""
	.string	"\377"
	.string	""
	.string	""
	.string	"\377"
	.string	""
	.string	""
	.string	"\377"
	.string	""
	.string	""
	.string	"\377"
	.string	""
	.string	""
	.string	"\377"
	.string	""
	.string	""
	.string	"\377"
	.string	""
	.string	""
	.string	"\377"
	.string	""
	.string	""
	.string	"\377"
	.string	""
	.string	""
	.string	"\377"
	.string	""
	.string	""
	.string	"\377"
	.string	""
	.string	""
	.string	"\377"
	.string	""
	.string	""
	.string	"\377"
	.string	""
	.string	""
	.string	"\377"
	.string	""
	.string	""
	.string	"\377\340\260"
	.string	"\377\340\260"
	.string	"\377\340\260"
	.string	"\377\340\260"
	.string	"\377\340\260"
	.string	"\377\340\260"
	.string	"\377\340\260"
	.string	"\377\340\260"
	.string	"\377\340\260"
	.string	"\377\340\260"
	.string	"\377\340\260"
	.string	"\377"
	.string	""
	.string	""
	.string	"\377"
	.string	""
	.string	""
	.string	"\377"
	.string	""
	.string	""
	.string	"\377"
	.string	""
	.string	""
	.string	"\377"
	.string	""
	.string	""
	.string	"\377"
	.string	""
	.string	""
	.string	"\377"
	.string	""
	.string	""
	.string	"\377"
	.string	""
	.string	""
	.string	"\377"
	.string	""
	.string	""
	.string	"\377"
	.string	""
	.string	""
	.string	"\377"
	.string	""
	.string	""
	.string	"\377"
	.string	""
	.string	""
	.string	"\377"
	.string	""
	.string	""
	.string	"\377"
	.string	""
	.string	""
	.string	"\377"
	.string	""
	.string	""
	.string	"\377"
	.string	""
	.string	""
	.string	"\377"
	.string	""
	.string	""
	.string	"\377"
	.string	""
	.string	""
	.string	"\377"
	.string	""
	.string	""
	.string	"\377"
	.string	""
	.string	""
	.string	"\377"
	.string	""
	.string	""
	.string	"\377"
	.string	""
	.string	""
	.string	"\377\340\260"
	.string	"\377\340\260"
	.string	"\377\340\260"
	.string	"\377\340\260"
	.string	"\377\340\260"
	.string	"\377\340\260"
	.string	"\377\340\260"
	.string	"\377\340\260"
	.string	"\377\340\260"
	.string	"\377\340\260"
	.string	"\377\340\260"
	.string	"\377\340\260"
	.string	"\377\340\260"
	.string	"\377\340\260"
	.string	"\377\340\260"
	.string	"\377"
	.string	""
	.string	""
	.string	"\377\340\260"
	.string	"\377\340\260"
	.string	"\377\340\260"
	.string	"\377\340\260"
	.string	"\377"
	.string	""
	.string	""
	.string	"\377"
	.string	""
	.string	""
	.string	"\377"
	.string	""
	.string	""
	.string	"\377"
	.string	""
	.string	""
	.string	"\377"
	.string	""
	.string	""
	.string	"\377"
	.string	""
	.string	""
	.string	"\377\340\260"
	.string	"\377\340\260"
	.string	"\377\340\260"
	.string	"\377\340\260"
	.string	"\377"
	.string	""
	.string	""
	.string	"\377"
	.string	""
	.string	""
	.string	"\377\340\260"
	.string	"\377\340\260"
	.string	"\377\340\260"
	.string	"\377\340\260"
	.string	"\377"
	.string	""
	.string	""
	.string	"\377"
	.string	""
	.string	""
	.string	"\377"
	.string	""
	.string	""
	.string	"\377"
	.string	""
	.string	""
	.string	"\377"
	.string	""
	.string	""
	.string	"\377"
	.string	""
	.string	""
	.string	"\377"
	.string	""
	.string	""
	.string	"\377"
	.string	""
	.string	""
	.string	"\377"
	.string	""
	.string	""
	.string	"\377"
	.string	""
	.string	""
	.string	"\377"
	.string	""
	.string	""
	.string	"\377"
	.string	""
	.string	""
	.string	"\377\340\260"
	.string	"\377\340\260"
	.string	"\377\340\260"
	.string	"\377\340\260"
	.string	"\377"
	.string	""
	.string	""
	.string	"\377"
	.string	""
	.string	""
	.string	"\377"
	.string	""
	.string	""
	.string	"\377"
	.string	""
	.string	""
	.string	"\377"
	.string	""
	.string	""
	.string	"\377"
	.string	""
	.string	""
	.string	"\377"
	.string	""
	.string	""
	.string	"\377\340\260"
	.string	"\377\340\260"
	.string	"\377\340\260"
	.string	"\377\340\260"
	.string	"\377"
	.string	""
	.string	""
	.string	"\377\340\260"
	.string	"\377\340\260"
	.string	"\377\340\260"
	.string	"\377\340\260"
	.string	"\377\340\260"
	.string	"\377\340\260"
	.string	"\377\340\260"
	.string	"\377\340\260"
	.string	"\377\340\260"
	.string	"\377"
	.string	""
	.string	""
	.string	"\377"
	.string	""
	.string	""
	.string	"\377"
	.string	""
	.string	""
	.string	"\377"
	.string	""
	.string	""
	.string	"\377"
	.string	""
	.string	""
	.string	"\377"
	.string	""
	.string	""
	.string	"\377"
	.string	""
	.string	""
	.string	"\377\340\260"
	.string	"\377\340\260"
	.string	"\377\340\260"
	.string	"\377\340\260"
	.string	"\377\340\260"
	.string	"\377\340\260"
	.string	"\377\340\260"
	.string	"\377\340\260"
	.string	"\377\340\260"
	.string	"\377"
	.string	""
	.string	""
	.string	"\377"
	.string	""
	.string	""
	.string	"\377"
	.string	""
	.string	""
	.string	"\377"
	.string	""
	.string	""
	.string	"\377"
	.string	""
	.string	""
	.string	"\377"
	.string	""
	.string	""
	.string	"\377"
	.string	""
	.string	""
	.string	"\377\340\260"
	.string	"\377\340\260"
	.string	"\377\340\260"
	.string	"\377\340\260"
	.string	"\377"
	.string	""
	.string	""
	.string	"\377"
	.string	""
	.string	""
	.string	"\377"
	.string	""
	.string	""
	.string	"\377"
	.string	""
	.string	""
	.string	"\377\340\260"
	.string	"\377\340\260"
	.string	"\377\340\260"
	.string	"\377\340\260"
	.string	"\377\340\260"
	.string	"\377\340\260"
	.string	"\377\340\260"
	.string	"\377"
	.string	""
	.string	""
	.string	"\377"
	.string	""
	.string	""
	.string	"\377"
	.string	""
	.string	""
	.string	"\377"
	.string	""
	.string	""
	.string	"\377"
	.string	""
	.string	""
	.string	"\377"
	.string	""
	.string	""
	.string	"\377\340\260"
	.string	"\377\340\260"
	.string	"\377\340\260"
	.string	"\377\340\260"
	.string	"\377\340\260"
	.string	"\377\340\260"
	.string	"\377\340\260"
	.string	"\377\340\260"
	.string	"\377\340\260"
	.string	"\377\340\260"
	.string	"\377\340\260"
	.string	"\377"
	.string	""
	.string	""
	.string	"\377"
	.string	""
	.string	""
	.string	"\377"
	.string	""
	.string	""
	.string	"\377"
	.string	""
	.string	""
	.string	"\377"
	.string	""
	.string	""
	.string	"\377"
	.string	""
	.string	""
	.string	"\377"
	.string	""
	.string	""
	.string	"\377"
	.string	""
	.string	""
	.string	"\377"
	.string	""
	.string	""
	.string	"\377"
	.string	""
	.string	""
	.string	"\377"
	.string	""
	.string	""
	.string	"\377"
	.string	""
	.string	""
	.string	"\377\340\260"
	.string	"\377\340\260"
	.string	"\377\340\260"
	.string	"\377\340\260"
	.string	"\377"
	.string	""
	.string	""
	.string	"\377\340\260"
	.string	"\377\340\260"
	.string	"\377\340\260"
	.string	"\377\340\260"
	.string	"\377"
	.string	""
	.string	""
	.string	"\377"
	.string	""
	.string	""
	.string	"\377"
	.string	""
	.string	""
	.string	"\377"
	.string	""
	.string	""
	.string	"\377"
	.string	""
	.string	""
	.string	"\377"
	.string	""
	.string	""
	.string	"\377"
	.string	""
	.string	""
	.string	"\377\340\260"
	.string	"\377\340\260"
	.string	"\377\340\260"
	.string	"\377\340\260"
	.string	"\377"
	.string	""
	.string	""
	.string	"\377"
	.string	""
	.string	""
	.string	"\377"
	.string	""
	.string	""
	.string	"\377"
	.string	""
	.string	""
	.string	"\377"
	.string	""
	.string	""
	.string	"\377"
	.string	""
	.string	""
	.string	"\377"
	.string	""
	.string	""
	.string	"\377\340\260"
	.string	"\377\340\260"
	.string	"\377\340\260"
	.string	"\377\340\260"
	.string	"\377\340\260"
	.string	"\377"
	.string	""
	.string	""
	.string	"\377"
	.string	""
	.string	""
	.string	"\377"
	.string	""
	.string	""
	.string	"\377"
	.string	""
	.string	""
	.string	"\377"
	.string	""
	.string	""
	.string	"\377\340\260"
	.string	"\377\340\260"
	.string	"\377\340\260"
	.string	"\377\340\260"
	.string	"\377"
	.string	""
	.string	""
	.string	"\377"
	.string	""
	.string	""
	.string	"\377"
	.string	""
	.string	""
	.string	"\377"
	.string	""
	.string	""
	.string	"\377"
	.string	""
	.string	""
	.string	"\377"
	.string	""
	.string	""
	.string	"\377"
	.string	""
	.string	""
	.string	"\377\340\260"
	.string	"\377\340\260"
	.string	"\377\340\260"
	.string	"\377\340\260"
	.string	"\377"
	.string	""
	.string	""
	.string	"\377"
	.string	""
	.string	""
	.string	"\377"
	.string	""
	.string	""
	.string	"\377\340\260"
	.string	"\377\340\260"
	.string	"\377\340\260"
	.string	"\377\340\260"
	.string	"\377\340\260"
	.string	"\377\340\260"
	.string	"\377\340\260"
	.string	"\377\340\260"
	.string	"\377\340\260"
	.string	"\377\340\260"
	.string	"\377\340\260"
	.string	"\377\340\260"
	.string	"\377\340\260"
	.string	"\377"
	.string	""
	.string	""
	.string	"\377\340\260"
	.string	"\377\340\260"
	.string	"\377\340\260"
	.string	"\377\340\260"
	.string	"\377"
	.string	""
	.string	""
	.string	"\377"
	.string	""
	.string	""
	.string	"\377"
	.string	""
	.string	""
	.string	"\377"
	.string	""
	.string	""
	.string	"\377"
	.string	""
	.string	""
	.string	"\377"
	.string	""
	.string	""
	.string	"\377"
	.string	""
	.string	""
	.string	"\377"
	.string	""
	.string	""
	.string	"\377"
	.string	""
	.string	""
	.string	"\377"
	.string	""
	.string	""
	.string	"\377"
	.string	""
	.string	""
	.string	"\377"
	.string	""
	.string	""
	.string	"\377"
	.string	""
	.string	""
	.string	"\377"
	.string	""
	.string	""
	.string	"\377"
	.string	""
	.string	""
	.string	"\377"
	.string	""
	.string	""
	.string	"\377"
	.string	""
	.string	""
	.string	"\377"
	.string	""
	.string	""
	.string	"\377"
	.string	""
	.string	""
	.string	"\377"
	.string	""
	.string	""
	.string	"\377"
	.string	""
	.string	""
	.string	"\377"
	.string	""
	.string	""
	.string	"\377"
	.string	""
	.string	""
	.string	"\377"
	.string	""
	.string	""
	.string	"\377"
	.string	""
	.string	""
	.string	"\377"
	.string	""
	.string	""
	.string	"\377"
	.string	""
	.string	""
	.string	"\377"
	.string	""
	.string	""
	.string	"\377"
	.string	""
	.string	""
	.string	"\377"
	.string	""
	.string	""
	.string	"\377"
	.string	""
	.string	""
	.string	"\377"
	.string	""
	.string	""
	.string	"\377"
	.string	""
	.string	""
	.string	"\377"
	.string	""
	.string	""
	.string	"\377"
	.string	""
	.string	""
	.string	"\377"
	.string	""
	.string	""
	.string	"\377"
	.string	""
	.string	""
	.string	"\377"
	.string	""
	.string	""
	.string	"\377"
	.string	""
	.string	""
	.string	"\377"
	.string	""
	.string	""
	.string	"\377"
	.string	""
	.string	""
	.string	"\377"
	.string	""
	.string	""
	.string	"\377"
	.string	""
	.string	""
	.string	"\377"
	.string	""
	.string	""
	.string	"\377"
	.string	""
	.string	""
	.string	"\377"
	.string	""
	.string	""
	.string	"\377"
	.string	""
	.string	""
	.string	"\377"
	.string	""
	.string	""
	.string	"\377"
	.string	""
	.string	""
	.string	"\377"
	.string	""
	.string	""
	.string	"\377"
	.string	""
	.string	""
	.string	"\377"
	.string	""
	.string	""
	.string	"\377"
	.string	""
	.string	""
	.string	"\377"
	.string	""
	.string	""
	.string	"\377"
	.string	""
	.string	""
	.string	"\377"
	.string	""
	.string	""
	.string	"\377"
	.string	""
	.string	""
	.string	"\377"
	.string	""
	.string	""
	.string	"\377"
	.string	""
	.string	""
	.string	"\377"
	.string	""
	.string	""
	.string	"\377"
	.string	""
	.string	""
	.string	"\377"
	.string	""
	.string	""
	.string	"\377"
	.string	""
	.string	""
	.string	"\377"
	.string	""
	.string	""
	.string	"\377"
	.string	""
	.string	""
	.string	"\377"
	.string	""
	.string	""
	.string	"\377"
	.string	""
	.string	""
	.string	"\377"
	.string	""
	.string	""
	.string	"\377"
	.string	""
	.string	""
	.string	"\377"
	.string	""
	.string	""
	.string	"\377"
	.string	""
	.string	""
	.string	"\377"
	.string	""
	.string	""
	.string	"\377"
	.string	""
	.string	""
	.string	"\377"
	.string	""
	.string	""
	.string	"\377"
	.string	""
	.string	""
	.string	"\377\340\260"
	.string	"\377\340\260"
	.string	"\377\340\260"
	.string	"\377\340\260"
	.ascii	"\377"
	.string	"\340\260"
	.string	"\377\340\260"
	.string	"\377\340\260"
	.string	"\377\340\260"
	.string	"\377\340\260"
	.string	"\377\340\260"
	.string	"\377"
	.string	""
	.string	""
	.string	"\377"
	.string	""
	.string	""
	.string	"\377"
	.string	""
	.string	""
	.string	"\377"
	.string	""
	.string	""
	.string	"\377"
	.string	""
	.string	""
	.string	"\377"
	.string	""
	.string	""
	.string	"\377"
	.string	""
	.string	""
	.string	"\377"
	.string	""
	.string	""
	.string	"\377"
	.string	""
	.string	""
	.string	"\377"
	.string	""
	.string	""
	.string	"\377"
	.string	""
	.string	""
	.string	"\377"
	.string	""
	.string	""
	.string	"\377"
	.string	""
	.string	""
	.string	"\377"
	.string	""
	.string	""
	.string	"\377"
	.string	""
	.string	""
	.string	"\377"
	.string	""
	.string	""
	.string	"\377"
	.string	""
	.string	""
	.string	"\377"
	.string	""
	.string	""
	.string	"\377"
	.string	""
	.string	""
	.string	"\377"
	.string	""
	.string	""
	.string	"\377"
	.string	""
	.string	""
	.string	"\377"
	.string	""
	.string	""
	.string	"\377\340\260"
	.string	"\377\340\260"
	.string	"\377\340\260"
	.string	"\377\340\260"
	.string	"\377\340\260"
	.string	"\377\340\260"
	.string	"\377\340\260"
	.string	"\377\340\260"
	.string	"\377\340\260"
	.string	"\377\340\260"
	.string	"\377\340\260"
	.string	"\377\340\260"
	.string	"\377\340\260"
	.string	"\377\340\260"
	.string	"\377\340\260"
	.string	"\377"
	.string	""
	.string	""
	.string	"\377\340\260"
	.string	"\377\340\260"
	.string	"\377\340\260"
	.string	"\377\340\260"
	.string	"\377"
	.string	""
	.string	""
	.string	"\377"
	.string	""
	.string	""
	.string	"\377"
	.string	""
	.string	""
	.string	"\377"
	.string	""
	.string	""
	.string	"\377"
	.string	""
	.string	""
	.string	"\377"
	.string	""
	.string	""
	.string	"\377"
	.string	""
	.string	""
	.string	"\377\340\260"
	.string	"\377\340\260"
	.string	"\377\340\260"
	.string	"\377\340\260"
	.string	"\377"
	.string	""
	.string	""
	.string	"\377\340\260"
	.string	"\377\340\260"
	.string	"\377\340\260"
	.string	"\377\340\260"
	.string	"\377"
	.string	""
	.string	""
	.string	"\377"
	.string	""
	.string	""
	.string	"\377"
	.string	""
	.string	""
	.string	"\377"
	.string	""
	.string	""
	.string	"\377"
	.string	""
	.string	""
	.string	"\377"
	.string	""
	.string	""
	.string	"\377"
	.string	""
	.string	""
	.string	"\377"
	.string	""
	.string	""
	.string	"\377"
	.string	""
	.string	""
	.string	"\377"
	.string	""
	.string	""
	.string	"\377"
	.string	""
	.string	""
	.string	"\377"
	.string	""
	.string	""
	.string	"\377\340\260"
	.string	"\377\340\260"
	.string	"\377\340\260"
	.string	"\377\340\260"
	.string	"\377"
	.string	""
	.string	""
	.string	"\377"
	.string	""
	.string	""
	.string	"\377"
	.string	""
	.string	""
	.string	"\377"
	.string	""
	.string	""
	.string	"\377"
	.string	""
	.string	""
	.string	"\377"
	.string	""
	.string	""
	.string	"\377"
	.string	""
	.string	""
	.string	"\377\340\260"
	.string	"\377\340\260"
	.string	"\377\340\260"
	.string	"\377\340\260"
	.string	"\377"
	.string	""
	.string	""
	.string	"\377\340\260"
	.string	"\377\340\260"
	.string	"\377\340\260"
	.string	"\377\340\260"
	.string	"\377"
	.string	""
	.string	""
	.string	"\377"
	.string	""
	.string	""
	.string	"\377"
	.string	""
	.string	""
	.string	"\377"
	.string	""
	.string	""
	.string	"\377"
	.string	""
	.string	""
	.string	"\377"
	.string	""
	.string	""
	.string	"\377"
	.string	""
	.string	""
	.string	"\377"
	.string	""
	.string	""
	.string	"\377"
	.string	""
	.string	""
	.string	"\377"
	.string	""
	.string	""
	.string	"\377"
	.string	""
	.string	""
	.string	"\377"
	.string	""
	.string	""
	.string	"\377\340\260"
	.string	"\377\340\260"
	.string	"\377\340\260"
	.string	"\377\340\260"
	.string	"\377"
	.string	""
	.string	""
	.string	"\377"
	.string	""
	.string	""
	.string	"\377"
	.string	""
	.string	""
	.string	"\377"
	.string	""
	.string	""
	.string	"\377"
	.string	""
	.string	""
	.string	"\377"
	.string	""
	.string	""
	.string	"\377"
	.string	""
	.string	""
	.string	"\377"
	.string	""
	.string	""
	.string	"\377"
	.string	""
	.string	""
	.string	"\377"
	.string	""
	.string	""
	.string	"\377"
	.string	""
	.string	""
	.string	"\377"
	.string	""
	.string	""
	.string	"\377\340\260"
	.string	"\377\340\260"
	.string	"\377\340\260"
	.string	"\377\340\260"
	.string	"\377"
	.string	""
	.string	""
	.string	"\377"
	.string	""
	.string	""
	.string	"\377"
	.string	""
	.string	""
	.string	"\377"
	.string	""
	.string	""
	.string	"\377\340\260"
	.string	"\377\340\260"
	.string	"\377\340\260"
	.string	"\377\340\260"
	.string	"\377\340\260"
	.string	"\377\340\260"
	.string	"\377\340\260"
	.string	"\377"
	.string	""
	.string	""
	.string	"\377"
	.string	""
	.string	""
	.string	"\377"
	.string	""
	.string	""
	.string	"\377"
	.string	""
	.string	""
	.string	"\377"
	.string	""
	.string	""
	.string	"\377"
	.string	""
	.string	""
	.string	"\377"
	.string	""
	.string	""
	.string	"\377"
	.string	""
	.string	""
	.string	"\377"
	.string	""
	.string	""
	.string	"\377"
	.string	""
	.string	""
	.string	"\377"
	.string	""
	.string	""
	.string	"\377"
	.string	""
	.string	""
	.string	"\377"
	.string	""
	.string	""
	.string	"\377\340\260"
	.string	"\377\340\260"
	.string	"\377\340\260"
	.string	"\377\340\260"
	.string	"\377"
	.string	""
	.string	""
	.string	"\377\340\260"
	.string	"\377\340\260"
	.string	"\377\340\260"
	.string	"\377\340\260"
	.string	"\377"
	.string	""
	.string	""
	.string	"\377"
	.string	""
	.string	""
	.string	"\377"
	.string	""
	.string	""
	.string	"\377"
	.string	""
	.string	""
	.string	"\377"
	.string	""
	.string	""
	.string	"\377"
	.string	""
	.string	""
	.string	"\377"
	.string	""
	.string	""
	.string	"\377\340\260"
	.string	"\377\340\260"
	.string	"\377\340\260"
	.string	"\377\340\260"
	.string	"\377"
	.string	""
	.string	""
	.string	"\377\340\260"
	.string	"\377\340\260"
	.string	"\377\340\260"
	.string	"\377\340\260"
	.string	"\377"
	.string	""
	.string	""
	.string	"\377"
	.string	""
	.string	""
	.string	"\377"
	.string	""
	.string	""
	.string	"\377"
	.string	""
	.string	""
	.string	"\377"
	.string	""
	.string	""
	.string	"\377"
	.string	""
	.string	""
	.string	"\377"
	.string	""
	.string	""
	.string	"\377\340\260"
	.string	"\377\340\260"
	.string	"\377\340\260"
	.string	"\377\340\260"
	.string	"\377"
	.string	""
	.string	""
	.string	"\377"
	.string	""
	.string	""
	.string	"\377"
	.string	""
	.string	""
	.string	"\377"
	.string	""
	.string	""
	.string	"\377"
	.string	""
	.string	""
	.string	"\377"
	.string	""
	.string	""
	.string	"\377"
	.string	""
	.string	""
	.string	"\377\340\260"
	.string	"\377\340\260"
	.string	"\377\340\260"
	.string	"\377\340\260"
	.string	"\377"
	.string	""
	.string	""
	.string	"\377"
	.string	""
	.string	""
	.string	"\377"
	.string	""
	.string	""
	.string	"\377"
	.string	""
	.string	""
	.string	"\377"
	.string	""
	.string	""
	.string	"\377"
	.string	""
	.string	""
	.string	"\377\340\260"
	.string	"\377\340\260"
	.string	"\377\340\260"
	.string	"\377\340\260"
	.string	"\377\340\260"
	.string	"\377"
	.string	""
	.string	""
	.string	"\377"
	.string	""
	.string	""
	.string	"\377"
	.string	""
	.string	""
	.string	"\377"
	.string	""
	.string	""
	.string	"\377"
	.string	""
	.string	""
	.string	"\377\340\260"
	.string	"\377\340\260"
	.string	"\377\340\260"
	.string	"\377\340\260"
	.string	"\377\340\260"
	.string	"\377"
	.string	""
	.string	""
	.string	"\377"
	.string	""
	.string	""
	.string	"\377"
	.string	""
	.string	""
	.string	"\377"
	.string	""
	.string	""
	.string	"\377"
	.string	""
	.string	""
	.string	"\377\340\260"
	.string	"\377\340\260"
	.string	"\377\340\260"
	.string	"\377\340\260"
	.string	"\377\340\260"
	.string	"\377\340\260"
	.string	"\377\340\260"
	.string	"\377\340\260"
	.string	"\377\340\260"
	.string	"\377\340\260"
	.string	"\377\340\260"
	.string	"\377"
	.string	""
	.string	""
	.string	"\377\340\260"
	.string	"\377\340\260"
	.string	"\377\340\260"
	.string	"\377\340\260"
	.string	"\377"
	.string	""
	.string	""
	.string	"\377"
	.string	""
	.string	""
	.string	"\377"
	.string	""
	.string	""
	.string	"\377"
	.string	""
	.string	""
	.string	"\377"
	.string	""
	.string	""
	.string	"\377"
	.string	""
	.string	""
	.string	"\377"
	.string	""
	.string	""
	.string	"\377"
	.string	""
	.string	""
	.string	"\377"
	.string	""
	.string	""
	.string	"\377"
	.string	""
	.string	""
	.string	"\377"
	.string	""
	.string	""
	.string	"\377"
	.string	""
	.string	""
	.string	"\377"
	.string	""
	.string	""
	.string	"\377"
	.string	""
	.string	""
	.string	"\377"
	.string	""
	.string	""
	.string	"\377"
	.string	""
	.string	""
	.string	"\377"
	.string	""
	.string	""
	.string	"\377"
	.string	""
	.string	""
	.string	"\377"
	.string	""
	.string	""
	.string	"\377"
	.string	""
	.string	""
	.string	"\377"
	.string	""
	.string	""
	.string	"\377"
	.string	""
	.string	""
	.string	"\377"
	.string	""
	.string	""
	.string	"\377"
	.string	""
	.string	""
	.string	"\377"
	.string	""
	.string	""
	.string	"\377"
	.string	""
	.string	""
	.string	"\377"
	.string	""
	.string	""
	.string	"\377"
	.string	""
	.string	""
	.string	"\377"
	.string	""
	.string	""
	.string	"\377"
	.string	""
	.string	""
	.string	"\377"
	.string	""
	.string	""
	.string	"\377"
	.string	""
	.string	""
	.string	"\377"
	.string	""
	.string	""
	.string	"\377"
	.string	""
	.string	""
	.string	"\377"
	.string	""
	.string	""
	.string	"\377"
	.string	""
	.string	""
	.string	"\377"
	.string	""
	.string	""
	.string	"\377"
	.string	""
	.string	""
	.string	"\377"
	.string	""
	.string	""
	.string	"\377"
	.string	""
	.string	""
	.string	"\377"
	.string	""
	.string	""
	.string	"\377"
	.string	""
	.string	""
	.string	"\377"
	.string	""
	.string	""
	.string	"\377"
	.string	""
	.string	""
	.string	"\377"
	.string	""
	.string	""
	.string	"\377"
	.string	""
	.string	""
	.string	"\377"
	.string	""
	.string	""
	.string	"\377"
	.string	""
	.string	""
	.string	"\377"
	.string	""
	.string	""
	.string	"\377"
	.string	""
	.string	""
	.string	"\377"
	.string	""
	.string	""
	.string	"\377"
	.string	""
	.string	""
	.string	"\377"
	.string	""
	.string	""
	.string	"\377"
	.string	""
	.string	""
	.string	"\377"
	.string	""
	.string	""
	.string	"\377"
	.string	""
	.string	""
	.string	"\377"
	.string	""
	.string	""
	.string	"\377"
	.string	""
	.string	""
	.string	"\377"
	.string	""
	.string	""
	.string	"\377"
	.string	""
	.string	""
	.string	"\377"
	.string	""
	.string	""
	.string	"\377"
	.string	""
	.string	""
	.string	"\377"
	.string	""
	.string	""
	.string	"\377"
	.string	""
	.string	""
	.string	"\377"
	.string	""
	.string	""
	.string	"\377"
	.string	""
	.string	""
	.string	"\377"
	.string	""
	.string	""
	.string	"\377"
	.string	""
	.string	""
	.string	"\377"
	.string	""
	.string	""
	.string	"\377"
	.string	""
	.string	""
	.string	"\377"
	.string	""
	.string	""
	.string	"\377"
	.string	""
	.string	""
	.string	"\377"
	.string	""
	.string	""
	.string	"\377"
	.string	""
	.string	""
	.string	"\377"
	.string	""
	.string	""
	.string	"\377"
	.string	""
	.string	""
	.string	"\377"
	.string	""
	.string	""
	.string	"\377"
	.string	""
	.string	""
	.string	"\377"
	.string	""
	.string	""
	.string	"\377"
	.string	""
	.string	""
	.string	"\377"
	.string	""
	.string	""
	.string	"\377"
	.string	""
	.string	""
	.string	"\377"
	.string	""
	.string	""
	.string	"\377"
	.string	""
	.string	""
	.string	"\377"
	.string	""
	.string	""
	.string	"\377"
	.string	""
	.string	""
	.string	"\377"
	.string	""
	.string	""
	.string	"\377"
	.string	""
	.string	""
	.string	"\377"
	.string	""
	.string	""
	.string	"\377"
	.string	""
	.string	""
	.string	"\377"
	.string	""
	.string	""
	.string	"\377"
	.string	""
	.string	""
	.string	"\377"
	.string	""
	.string	""
	.string	"\377"
	.string	""
	.string	""
	.string	"\377"
	.string	""
	.string	""
	.string	"\377"
	.string	""
	.string	""
	.string	"\377"
	.string	""
	.string	""
	.string	"\377"
	.string	""
	.string	""
	.string	"\377"
	.string	""
	.string	""
	.string	"\377"
	.string	""
	.string	""
	.string	"\377"
	.string	""
	.string	""
	.string	"\377"
	.string	""
	.string	""
	.string	"\377"
	.string	""
	.string	""
	.string	"\377"
	.string	""
	.string	""
	.string	"\377"
	.string	""
	.string	""
	.string	"\377"
	.string	""
	.string	""
	.string	"\377"
	.string	""
	.string	""
	.string	"\377\340\260"
	.string	"\377\340\260"
	.string	"\377\340\260"
	.string	"\377\340\260"
	.string	"\377\340\260"
	.string	"\377\340\260"
	.string	"\377\340\260"
	.string	"\377\340\260"
	.string	"\377\340\260"
	.string	"\377\340\260"
	.string	"\377\340\260"
	.string	"\377\340\260"
	.string	"\377\340\260"
	.string	"\377\340\260"
	.string	"\377\340\260"
	.string	"\377"
	.string	""
	.string	""
	.string	"\377\340\260"
	.string	"\377\340\260"
	.string	"\377\340\260"
	.string	"\377\340\260"
	.string	"\377"
	.string	""
	.string	""
	.string	"\377"
	.string	""
	.string	""
	.string	"\377"
	.string	""
	.string	""
	.string	"\377"
	.string	""
	.string	""
	.string	"\377"
	.string	""
	.string	""
	.string	"\377"
	.string	""
	.string	""
	.string	"\377"
	.string	""
	.string	""
	.string	"\377\340\260"
	.string	"\377\340\260"
	.string	"\377\340\260"
	.string	"\377\340\260"
	.string	"\377"
	.string	""
	.string	""
	.string	"\377\340\260"
	.string	"\377\340\260"
	.string	"\377\340\260"
	.string	"\377\340\260"
	.string	"\377\340\260"
	.string	"\377"
	.string	""
	.string	""
	.string	"\377"
	.string	""
	.string	""
	.string	"\377"
	.string	""
	.string	""
	.string	"\377"
	.string	""
	.string	""
	.string	"\377"
	.string	""
	.string	""
	.string	"\377"
	.string	""
	.string	""
	.string	"\377"
	.string	""
	.string	""
	.string	"\377"
	.string	""
	.string	""
	.string	"\377"
	.string	""
	.string	""
	.string	"\377"
	.string	""
	.string	""
	.string	"\377"
	.string	""
	.string	""
	.string	"\377\340\260"
	.string	"\377\340\260"
	.string	"\377\340\260"
	.string	"\377\340\260"
	.string	"\377"
	.string	""
	.string	""
	.string	"\377"
	.string	""
	.string	""
	.string	"\377"
	.string	""
	.string	""
	.string	"\377"
	.string	""
	.string	""
	.string	"\377"
	.string	""
	.string	""
	.string	"\377"
	.string	""
	.string	""
	.string	"\377\340\260"
	.string	"\377\340\260"
	.string	"\377\340\260"
	.string	"\377\340\260"
	.string	"\377\340\260"
	.string	"\377"
	.string	""
	.string	""
	.string	"\377\340\260"
	.string	"\377\340\260"
	.string	"\377\340\260"
	.string	"\377\340\260"
	.string	"\377\340\260"
	.string	"\377"
	.string	""
	.string	""
	.string	"\377"
	.string	""
	.string	""
	.string	"\377"
	.string	""
	.string	""
	.string	"\377"
	.string	""
	.string	""
	.string	"\377"
	.string	""
	.string	""
	.string	"\377"
	.string	""
	.string	""
	.string	"\377"
	.string	""
	.string	""
	.string	"\377"
	.string	""
	.string	""
	.string	"\377"
	.string	""
	.string	""
	.string	"\377"
	.string	""
	.string	""
	.string	"\377"
	.string	""
	.string	""
	.string	"\377\340\260"
	.string	"\377\340\260"
	.string	"\377\340\260"
	.string	"\377\340\260"
	.string	"\377"
	.string	""
	.string	""
	.string	"\377"
	.string	""
	.string	""
	.string	"\377"
	.string	""
	.string	""
	.string	"\377"
	.string	""
	.string	""
	.string	"\377"
	.string	""
	.string	""
	.string	"\377"
	.string	""
	.string	""
	.string	"\377"
	.string	""
	.string	""
	.string	"\377"
	.string	""
	.string	""
	.string	"\377"
	.string	""
	.string	""
	.string	"\377"
	.string	""
	.string	""
	.string	"\377"
	.string	""
	.string	""
	.string	"\377"
	.string	""
	.string	""
	.string	"\377\340\260"
	.string	"\377\340\260"
	.string	"\377\340\260"
	.string	"\377\340\260"
	.string	"\377\340\260"
	.string	"\377"
	.string	""
	.string	""
	.string	"\377"
	.string	""
	.string	""
	.string	"\377"
	.string	""
	.string	""
	.string	"\377"
	.string	""
	.string	""
	.string	"\377"
	.string	""
	.string	""
	.string	"\377\340\260"
	.string	"\377\340\260"
	.string	"\377\340\260"
	.string	"\377\340\260"
	.string	"\377\340\260"
	.string	"\377"
	.string	""
	.string	""
	.string	"\377"
	.string	""
	.string	""
	.string	"\377"
	.string	""
	.string	""
	.string	"\377"
	.string	""
	.string	""
	.string	"\377"
	.string	""
	.string	""
	.string	"\377"
	.string	""
	.string	""
	.string	"\377"
	.string	""
	.string	""
	.string	"\377"
	.string	""
	.string	""
	.string	"\377"
	.string	""
	.string	""
	.string	"\377"
	.string	""
	.string	""
	.string	"\377"
	.string	""
	.string	""
	.string	"\377"
	.string	""
	.string	""
	.string	"\377"
	.string	""
	.string	""
	.string	"\377\340\260"
	.string	"\377\340\260"
	.string	"\377\340\260"
	.string	"\377\340\260"
	.string	"\377"
	.string	""
	.string	""
	.string	"\377\340\260"
	.string	"\377\340\260"
	.string	"\377\340\260"
	.string	"\377\340\260"
	.string	"\377\340\260"
	.string	"\377\340\260"
	.string	"\377\340\260"
	.string	"\377\340\260"
	.string	"\377\340\260"
	.string	"\377\340\260"
	.string	"\377\340\260"
	.string	"\377\340\260"
	.string	"\377\340\260"
	.string	"\377\340\260"
	.string	"\377"
	.string	""
	.string	""
	.string	"\377"
	.string	""
	.string	""
	.string	"\377\340\260"
	.string	"\377\340\260"
	.string	"\377\340\260"
	.string	"\377\340\260"
	.string	"\377\340\260"
	.string	"\377\340\260"
	.string	"\377\340\260"
	.ascii	"\377"
	.string	"\340\260"
	.string	"\377\340\260"
	.string	"\377\340\260"
	.string	"\377\340\260"
	.string	"\377\340\260"
	.string	"\377\340\260"
	.string	"\377\340\260"
	.string	"\377"
	.string	""
	.string	""
	.string	"\377"
	.string	""
	.string	""
	.string	"\377"
	.string	""
	.string	""
	.string	"\377"
	.string	""
	.string	""
	.string	"\377"
	.string	""
	.string	""
	.string	"\377"
	.string	""
	.string	""
	.string	"\377"
	.string	""
	.string	""
	.string	"\377"
	.string	""
	.string	""
	.string	"\377\340\260"
	.string	"\377\340\260"
	.string	"\377\340\260"
	.string	"\377\340\260"
	.string	"\377"
	.string	""
	.string	""
	.string	"\377"
	.string	""
	.string	""
	.string	"\377"
	.string	""
	.string	""
	.string	"\377"
	.string	""
	.string	""
	.string	"\377"
	.string	""
	.string	""
	.string	"\377"
	.string	""
	.string	""
	.string	"\377"
	.string	""
	.string	""
	.string	"\377\340\260"
	.string	"\377\340\260"
	.string	"\377\340\260"
	.string	"\377\340\260"
	.string	"\377\340\260"
	.string	"\377\340\260"
	.string	"\377\340\260"
	.string	"\377\340\260"
	.string	"\377\340\260"
	.string	"\377\340\260"
	.string	"\377\340\260"
	.string	"\377\340\260"
	.string	"\377\340\260"
	.string	"\377"
	.string	""
	.string	""
	.string	"\377"
	.string	""
	.string	""
	.string	"\377"
	.string	""
	.string	""
	.string	"\377"
	.string	""
	.string	""
	.string	"\377"
	.string	""
	.string	""
	.string	"\377"
	.string	""
	.string	""
	.string	"\377"
	.string	""
	.string	""
	.string	"\377"
	.string	""
	.string	""
	.string	"\377"
	.string	""
	.string	""
	.string	"\377"
	.string	""
	.string	""
	.string	"\377"
	.string	""
	.string	""
	.string	"\377"
	.string	""
	.string	""
	.string	"\377"
	.string	""
	.string	""
	.string	"\377\340\260"
	.string	"\377\340\260"
	.string	"\377\340\260"
	.string	"\377\340\260"
	.string	"\377"
	.string	""
	.string	""
	.string	"\377\340\260"
	.string	"\377\340\260"
	.string	"\377\340\260"
	.string	"\377\340\260"
	.string	"\377"
	.string	""
	.string	""
	.string	"\377"
	.string	""
	.string	""
	.string	"\377"
	.string	""
	.string	""
	.string	"\377"
	.string	""
	.string	""
	.string	"\377"
	.string	""
	.string	""
	.string	"\377"
	.string	""
	.string	""
	.string	"\377"
	.string	""
	.string	""
	.string	"\377"
	.string	""
	.string	""
	.string	"\377"
	.string	""
	.string	""
	.string	"\377"
	.string	""
	.string	""
	.string	"\377"
	.string	""
	.string	""
	.string	"\377"
	.string	""
	.string	""
	.string	"\377"
	.string	""
	.string	""
	.string	"\377"
	.string	""
	.string	""
	.string	"\377"
	.string	""
	.string	""
	.string	"\377"
	.string	""
	.string	""
	.string	"\377"
	.string	""
	.string	""
	.string	"\377"
	.string	""
	.string	""
	.string	"\377"
	.string	""
	.string	""
	.string	"\377"
	.string	""
	.string	""
	.string	"\377"
	.string	""
	.string	""
	.string	"\377"
	.string	""
	.string	""
	.string	"\377"
	.string	""
	.string	""
	.string	"\377"
	.string	""
	.string	""
	.string	"\377"
	.string	""
	.string	""
	.string	"\377"
	.string	""
	.string	""
	.string	"\377"
	.string	""
	.string	""
	.string	"\377"
	.string	""
	.string	""
	.string	"\377"
	.string	""
	.string	""
	.string	"\377"
	.string	""
	.string	""
	.string	"\377"
	.string	""
	.string	""
	.string	"\377"
	.string	""
	.string	""
	.string	"\377"
	.string	""
	.string	""
	.string	"\377"
	.string	""
	.string	""
	.string	"\377"
	.string	""
	.string	""
	.string	"\377"
	.string	""
	.string	""
	.string	"\377"
	.string	""
	.string	""
	.string	"\377"
	.string	""
	.string	""
	.string	"\377"
	.string	""
	.string	""
	.string	"\377"
	.string	""
	.string	""
	.string	"\377"
	.string	""
	.string	""
	.string	"\377"
	.string	""
	.string	""
	.string	"\377"
	.string	""
	.string	""
	.string	"\377"
	.string	""
	.string	""
	.string	"\377"
	.string	""
	.string	""
	.string	"\377"
	.string	""
	.string	""
	.string	"\377"
	.string	""
	.string	""
	.string	"\377"
	.string	""
	.string	""
	.string	"\377"
	.string	""
	.string	""
	.string	"\377"
	.string	""
	.string	""
	.string	"\377"
	.string	""
	.string	""
	.string	"\377"
	.string	""
	.string	""
	.string	"\377"
	.string	""
	.string	""
	.string	"\377"
	.string	""
	.string	""
	.string	"\377"
	.string	""
	.string	""
	.string	"\377"
	.string	""
	.string	""
	.string	"\377"
	.string	""
	.string	""
	.string	"\377"
	.string	""
	.string	""
	.string	"\377"
	.string	""
	.string	""
	.string	"\377"
	.string	""
	.string	""
	.string	"\377"
	.string	""
	.string	""
	.string	"\377"
	.string	""
	.string	""
	.string	"\377"
	.string	""
	.string	""
	.string	"\377"
	.string	""
	.string	""
	.string	"\377"
	.string	""
	.string	""
	.string	"\377"
	.string	""
	.string	""
	.string	"\377"
	.string	""
	.string	""
	.string	"\377"
	.string	""
	.string	""
	.string	"\377"
	.string	""
	.string	""
	.string	"\377"
	.string	""
	.string	""
	.string	"\377"
	.string	""
	.string	""
	.string	"\377"
	.string	""
	.string	""
	.string	"\377"
	.string	""
	.string	""
	.string	"\377"
	.string	""
	.string	""
	.string	"\377"
	.string	""
	.string	""
	.string	"\377"
	.string	""
	.string	""
	.string	"\377"
	.string	""
	.string	""
	.string	"\377\340\260"
	.string	"\377\340\260"
	.string	"\377\340\260"
	.string	"\377\340\260"
	.string	"\377"
	.string	""
	.string	""
	.string	"\377"
	.string	""
	.string	""
	.string	"\377"
	.string	""
	.string	""
	.string	"\377"
	.string	""
	.string	""
	.string	"\377"
	.string	""
	.string	""
	.string	"\377"
	.string	""
	.string	""
	.string	"\377"
	.string	""
	.string	""
	.string	"\377"
	.string	""
	.string	""
	.string	"\377"
	.string	""
	.string	""
	.string	"\377"
	.string	""
	.string	""
	.string	"\377"
	.string	""
	.string	""
	.string	"\377"
	.string	""
	.string	""
	.string	"\377"
	.string	""
	.string	""
	.string	"\377"
	.string	""
	.string	""
	.string	"\377"
	.string	""
	.string	""
	.string	"\377"
	.string	""
	.string	""
	.string	"\377"
	.string	""
	.string	""
	.string	"\377"
	.string	""
	.string	""
	.string	"\377"
	.string	""
	.string	""
	.string	"\377"
	.string	""
	.string	""
	.string	"\377"
	.string	""
	.string	""
	.string	"\377"
	.string	""
	.string	""
	.string	"\377"
	.string	""
	.string	""
	.string	"\377"
	.string	""
	.string	""
	.string	"\377"
	.string	""
	.string	""
	.string	"\377"
	.string	""
	.string	""
	.string	"\377\340\260"
	.string	"\377\340\260"
	.string	"\377\340\260"
	.string	"\377\340\260"
	.string	"\377"
	.string	""
	.string	""
	.string	"\377"
	.string	""
	.string	""
	.string	"\377"
	.string	""
	.string	""
	.string	"\377"
	.string	""
	.string	""
	.string	"\377"
	.string	""
	.string	""
	.string	"\377"
	.string	""
	.string	""
	.string	"\377"
	.string	""
	.string	""
	.string	"\377\340\260"
	.string	"\377\340\260"
	.string	"\377\340\260"
	.string	"\377\340\260"
	.string	"\377"
	.string	""
	.string	""
	.string	"\377\340\260"
	.string	"\377\340\260"
	.string	"\377\340\260"
	.string	"\377\340\260"
	.string	"\377\340\260"
	.string	"\377\340\260"
	.string	"\377\340\260"
	.string	"\377\340\260"
	.string	"\377\340\260"
	.string	"\377\340\260"
	.string	"\377\340\260"
	.string	"\377\340\260"
	.string	"\377\340\260"
	.string	"\377\340\260"
	.string	"\377"
	.string	""
	.string	""
	.string	"\377"
	.string	""
	.string	""
	.string	"\377"
	.string	""
	.string	""
	.string	"\377\340\260"
	.string	"\377\340\260"
	.string	"\377\340\260"
	.string	"\377\340\260"
	.string	"\377\340\260"
	.string	"\377\340\260"
	.string	"\377\340\260"
	.string	"\377\340\260"
	.string	"\377\340\260"
	.string	"\377\340\260"
	.string	"\377\340\260"
	.string	"\377\340\260"
	.string	"\377\340\260"
	.string	"\377\340\260"
	.string	"\377"
	.string	""
	.string	""
	.string	"\377\340\260"
	.string	"\377\340\260"
	.string	"\377\340\260"
	.string	"\377\340\260"
	.string	"\377\340\260"
	.string	"\377\340\260"
	.string	"\377\340\260"
	.string	"\377\340\260"
	.string	"\377\340\260"
	.string	"\377\340\260"
	.string	"\377\340\260"
	.string	"\377\340\260"
	.string	"\377\340\260"
	.string	"\377\340\260"
	.string	"\377"
	.string	""
	.string	""
	.string	"\377"
	.string	""
	.string	""
	.string	"\377"
	.string	""
	.string	""
	.string	"\377\340\260"
	.string	"\377\340\260"
	.string	"\377\340\260"
	.string	"\377\340\260"
	.string	"\377\340\260"
	.string	"\377\340\260"
	.string	"\377\340\260"
	.string	"\377\340\260"
	.string	"\377\340\260"
	.string	"\377\340\260"
	.string	"\377\340\260"
	.string	"\377\340\260"
	.string	"\377\340\260"
	.string	"\377\340\260"
	.string	"\377"
	.string	""
	.string	""
	.string	"\377\340\260"
	.string	"\377\340\260"
	.string	"\377\340\260"
	.string	"\377\340\260"
	.string	"\377"
	.string	""
	.string	""
	.string	"\377"
	.string	""
	.string	""
	.string	"\377"
	.string	""
	.string	""
	.string	"\377"
	.string	""
	.string	""
	.string	"\377"
	.string	""
	.string	""
	.string	"\377"
	.string	""
	.string	""
	.string	"\377"
	.string	""
	.string	""
	.string	"\377"
	.string	""
	.string	""
	.string	"\377"
	.string	""
	.string	""
	.string	"\377"
	.string	""
	.string	""
	.string	"\377"
	.string	""
	.string	""
	.string	"\377"
	.string	""
	.string	""
	.string	"\377"
	.string	""
	.string	""
	.string	"\377\340\260"
	.string	"\377\340\260"
	.string	"\377\340\260"
	.string	"\377\340\260"
	.string	"\377\340\260"
	.string	"\377\340\260"
	.string	"\377\340\260"
	.string	"\377\340\260"
	.string	"\377\340\260"
	.string	"\377\340\260"
	.string	"\377\340\260"
	.string	"\377\340\260"
	.string	"\377\340\260"
	.string	"\377\340\260"
	.string	"\377"
	.string	""
	.string	""
	.string	"\377"
	.string	""
	.string	""
	.string	"\377"
	.string	""
	.string	""
	.string	"\377"
	.string	""
	.string	""
	.string	"\377"
	.string	""
	.string	""
	.string	"\377"
	.string	""
	.string	""
	.string	"\377"
	.string	""
	.string	""
	.string	"\377"
	.string	""
	.string	""
	.string	"\377"
	.string	""
	.string	""
	.string	"\377"
	.string	""
	.string	""
	.string	"\377"
	.string	""
	.string	""
	.string	"\377"
	.string	""
	.string	""
	.string	"\377"
	.string	""
	.string	""
	.string	"\377\340\260"
	.string	"\377\340\260"
	.string	"\377\340\260"
	.string	"\377\340\260"
	.string	"\377"
	.string	""
	.string	""
	.string	"\377"
	.string	""
	.string	""
	.string	"\377\340\260"
	.string	"\377\340\260"
	.string	"\377\340\260"
	.string	"\377\340\260"
	.string	"\377\340\260"
	.string	"\377\340\260"
	.string	"\377\340\260"
	.string	"\377\340\260"
	.string	"\377\340\260"
	.string	"\377\340\260"
	.string	"\377\340\260"
	.string	"\377\340\260"
	.string	"\377\340\260"
	.string	"\377"
	.string	""
	.string	""
	.string	"\377"
	.string	""
	.string	""
	.string	"\377"
	.string	""
	.string	""
	.string	"\377\340\260"
	.string	"\377\340\260"
	.string	"\377\340\260"
	.string	"\377\340\260"
	.string	"\377\340\260"
	.string	"\377\340\260"
	.string	"\377\340\260"
	.string	"\377\340\260"
	.string	"\377\340\260"
	.string	"\377\340\260"
	.string	"\377\340\260"
	.string	"\377\340\260"
	.string	"\377\340\260"
	.string	"\377"
	.string	""
	.string	""
	.string	"\377"
	.string	""
	.string	""
	.string	"\377"
	.string	""
	.string	""
	.string	"\377"
	.string	""
	.string	""
	.string	"\377"
	.string	""
	.string	""
	.string	"\377"
	.string	""
	.string	""
	.string	"\377"
	.string	""
	.string	""
	.string	"\377"
	.string	""
	.string	""
	.string	"\377\340\260"
	.string	"\377\340\260"
	.string	"\377\340\260"
	.string	"\377\340\260"
	.string	"\377"
	.string	""
	.string	""
	.string	"\377"
	.string	""
	.string	""
	.string	"\377"
	.string	""
	.string	""
	.string	"\377"
	.string	""
	.string	""
	.string	"\377"
	.string	""
	.string	""
	.string	"\377"
	.string	""
	.string	""
	.string	"\377"
	.string	""
	.string	""
	.string	"\377\340\260"
	.string	"\377\340\260"
	.string	"\377\340\260"
	.string	"\377\340\260"
	.string	"\377\340\260"
	.string	"\377\340\260"
	.string	"\377\340\260"
	.string	"\377\340\260"
	.string	"\377\340\260"
	.string	"\377\340\260"
	.string	"\377\340\260"
	.string	"\377\340\260"
	.string	"\377\340\260"
	.string	"\377"
	.string	""
	.string	""
	.string	"\377"
	.string	""
	.string	""
	.string	"\377"
	.string	""
	.string	""
	.string	"\377"
	.string	""
	.string	""
	.string	"\377"
	.string	""
	.string	""
	.string	"\377"
	.string	""
	.string	""
	.string	"\377"
	.string	""
	.string	""
	.string	"\377"
	.string	""
	.string	""
	.string	"\377"
	.string	""
	.string	""
	.string	"\377"
	.string	""
	.string	""
	.string	"\377"
	.string	""
	.string	""
	.string	"\377"
	.string	""
	.string	""
	.string	"\377"
	.string	""
	.string	""
	.string	"\377\340\260"
	.string	"\377\340\260"
	.string	"\377\340\260"
	.string	"\377\340\260"
	.string	"\377"
	.string	""
	.string	""
	.string	"\377"
	.string	""
	.string	""
	.string	"\377"
	.string	""
	.string	""
	.string	"\377"
	.string	""
	.string	""
	.string	"\377"
	.string	""
	.string	""
	.string	"\377"
	.string	""
	.string	""
	.string	"\377"
	.string	""
	.string	""
	.string	"\377"
	.string	""
	.string	""
	.string	"\377"
	.string	""
	.string	""
	.string	"\377"
	.string	""
	.string	""
	.string	"\377"
	.string	""
	.string	""
	.string	"\377"
	.string	""
	.string	""
	.string	"\377"
	.string	""
	.string	""
	.string	"\377"
	.string	""
	.string	""
	.string	"\377"
	.string	""
	.string	""
	.string	"\377"
	.string	""
	.string	""
	.string	"\377"
	.string	""
	.string	""
	.string	"\377"
	.string	""
	.string	""
	.string	"\377"
	.string	""
	.string	""
	.string	"\377"
	.string	""
	.string	""
	.string	"\377"
	.string	""
	.string	""
	.string	"\377"
	.string	""
	.string	""
	.string	"\377"
	.string	""
	.string	""
	.string	"\377"
	.string	""
	.string	""
	.string	"\377"
	.string	""
	.string	""
	.string	"\377"
	.string	""
	.string	""
	.string	"\377"
	.string	""
	.string	""
	.string	"\377"
	.string	""
	.string	""
	.string	"\377"
	.string	""
	.string	""
	.string	"\377"
	.string	""
	.string	""
	.string	"\377"
	.string	""
	.string	""
	.string	"\377"
	.string	""
	.string	""
	.string	"\377"
	.string	""
	.string	""
	.string	"\377"
	.string	""
	.string	""
	.string	"\377"
	.string	""
	.string	""
	.string	"\377"
	.string	""
	.string	""
	.string	"\377"
	.string	""
	.string	""
	.string	"\377"
	.string	""
	.string	""
	.string	"\377"
	.string	""
	.string	""
	.string	"\377"
	.string	""
	.string	""
	.string	"\377"
	.string	""
	.string	""
	.string	"\377"
	.string	""
	.string	""
	.string	"\377"
	.string	""
	.string	""
	.string	"\377"
	.string	""
	.string	""
	.string	"\377"
	.string	""
	.string	""
	.string	"\377"
	.string	""
	.string	""
	.string	"\377"
	.string	""
	.string	""
	.string	"\377"
	.string	""
	.string	""
	.string	"\377"
	.string	""
	.string	""
	.string	"\377"
	.string	""
	.string	""
	.string	"\377"
	.string	""
	.string	""
	.string	"\377"
	.string	""
	.string	""
	.string	"\377"
	.string	""
	.string	""
	.string	"\377"
	.string	""
	.string	""
	.string	"\377"
	.string	""
	.string	""
	.string	"\377"
	.string	""
	.string	""
	.string	"\377"
	.string	""
	.string	""
	.string	"\377"
	.string	""
	.string	""
	.string	"\377"
	.string	""
	.string	""
	.string	"\377"
	.string	""
	.string	""
	.string	"\377"
	.string	""
	.string	""
	.string	"\377"
	.string	""
	.string	""
	.string	"\377"
	.string	""
	.string	""
	.string	"\377"
	.string	""
	.string	""
	.string	"\377"
	.string	""
	.string	""
	.string	"\377"
	.string	""
	.string	""
	.string	"\377"
	.string	""
	.string	""
	.string	"\377"
	.string	""
	.string	""
	.string	"\377"
	.string	""
	.string	""
	.string	"\377"
	.string	""
	.string	""
	.string	"\377"
	.string	""
	.string	""
	.string	"\377"
	.string	""
	.string	""
	.string	"\377"
	.string	""
	.string	""
	.string	"\377"
	.string	""
	.string	""
	.string	"\377"
	.string	""
	.string	""
	.string	"\377"
	.string	""
	.string	""
	.string	"\377"
	.string	""
	.string	""
	.string	"\377"
	.string	""
	.string	""
	.string	"\377"
	.string	""
	.string	""
	.string	"\377"
	.string	""
	.string	""
	.string	"\377"
	.string	""
	.string	""
	.string	"\377"
	.string	""
	.string	""
	.string	"\377\340\260"
	.string	"\377\340\260"
	.string	"\377\340\260"
	.string	"\377\340\260"
	.string	"\377"
	.string	""
	.string	""
	.string	"\377"
	.string	""
	.string	""
	.string	"\377"
	.string	""
	.string	""
	.string	"\377"
	.string	""
	.string	""
	.string	"\377"
	.string	""
	.string	""
	.string	"\377"
	.string	""
	.string	""
	.string	"\377"
	.string	""
	.string	""
	.string	"\377"
	.string	""
	.string	""
	.string	"\377"
	.string	""
	.string	""
	.string	"\377"
	.string	""
	.string	""
	.string	"\377"
	.string	""
	.string	""
	.string	"\377"
	.string	""
	.string	""
	.string	"\377"
	.string	""
	.string	""
	.string	"\377"
	.string	""
	.string	""
	.string	"\377"
	.string	""
	.string	""
	.string	"\377"
	.string	""
	.string	""
	.string	"\377"
	.string	""
	.string	""
	.string	"\377"
	.string	""
	.string	""
	.string	"\377"
	.string	""
	.string	""
	.string	"\377"
	.string	""
	.string	""
	.string	"\377"
	.string	""
	.string	""
	.string	"\377"
	.string	""
	.string	""
	.string	"\377"
	.string	""
	.string	""
	.string	"\377"
	.string	""
	.string	""
	.string	"\377"
	.string	""
	.string	""
	.string	"\377"
	.string	""
	.string	""
	.string	"\377\340\260"
	.string	"\377\340\260"
	.string	"\377\340\260"
	.string	"\377\340\260"
	.string	"\377"
	.string	""
	.string	""
	.string	"\377"
	.string	""
	.string	""
	.string	"\377"
	.string	""
	.string	""
	.string	"\377"
	.string	""
	.string	""
	.string	"\377"
	.string	""
	.string	""
	.string	"\377"
	.string	""
	.string	""
	.string	"\377"
	.string	""
	.string	""
	.string	"\377\340\260"
	.ascii	"\377"
	.string	"\340\260"
	.string	"\377\340\260"
	.string	"\377\340\260"
	.string	"\377"
	.string	""
	.string	""
	.string	"\377\340\260"
	.string	"\377\340\260"
	.string	"\377\340\260"
	.string	"\377\340\260"
	.string	"\377\340\260"
	.string	"\377\340\260"
	.string	"\377\340\260"
	.string	"\377\340\260"
	.string	"\377\340\260"
	.string	"\377\340\260"
	.string	"\377\340\260"
	.string	"\377\340\260"
	.string	"\377\340\260"
	.string	"\377\340\260"
	.string	"\377"
	.string	""
	.string	""
	.string	"\377"
	.string	""
	.string	""
	.string	"\377"
	.string	""
	.string	""
	.string	"\377\340\260"
	.string	"\377\340\260"
	.string	"\377\340\260"
	.string	"\377\340\260"
	.string	"\377\340\260"
	.string	"\377\340\260"
	.string	"\377\340\260"
	.string	"\377\340\260"
	.string	"\377\340\260"
	.string	"\377\340\260"
	.string	"\377\340\260"
	.string	"\377\340\260"
	.string	"\377\340\260"
	.string	"\377\340\260"
	.string	"\377"
	.string	""
	.string	""
	.string	"\377\340\260"
	.string	"\377\340\260"
	.string	"\377\340\260"
	.string	"\377\340\260"
	.string	"\377\340\260"
	.string	"\377\340\260"
	.string	"\377\340\260"
	.string	"\377\340\260"
	.string	"\377\340\260"
	.string	"\377\340\260"
	.string	"\377\340\260"
	.string	"\377\340\260"
	.string	"\377\340\260"
	.string	"\377\340\260"
	.string	"\377"
	.string	""
	.string	""
	.string	"\377"
	.string	""
	.string	""
	.string	"\377"
	.string	""
	.string	""
	.string	"\377\340\260"
	.string	"\377\340\260"
	.string	"\377\340\260"
	.string	"\377\340\260"
	.string	"\377\340\260"
	.string	"\377\340\260"
	.string	"\377\340\260"
	.string	"\377\340\260"
	.string	"\377\340\260"
	.string	"\377\340\260"
	.string	"\377\340\260"
	.string	"\377\340\260"
	.string	"\377\340\260"
	.string	"\377\340\260"
	.string	"\377"
	.string	""
	.string	""
	.string	"\377\340\260"
	.string	"\377\340\260"
	.string	"\377\340\260"
	.string	"\377\340\260"
	.string	"\377"
	.string	""
	.string	""
	.string	"\377"
	.string	""
	.string	""
	.string	"\377"
	.string	""
	.string	""
	.string	"\377"
	.string	""
	.string	""
	.string	"\377"
	.string	""
	.string	""
	.string	"\377"
	.string	""
	.string	""
	.string	"\377"
	.string	""
	.string	""
	.string	"\377"
	.string	""
	.string	""
	.string	"\377"
	.string	""
	.string	""
	.string	"\377"
	.string	""
	.string	""
	.string	"\377"
	.string	""
	.string	""
	.string	"\377"
	.string	""
	.string	""
	.string	"\377"
	.string	""
	.string	""
	.string	"\377\340\260"
	.string	"\377\340\260"
	.string	"\377\340\260"
	.string	"\377\340\260"
	.string	"\377\340\260"
	.string	"\377\340\260"
	.string	"\377\340\260"
	.string	"\377\340\260"
	.string	"\377\340\260"
	.string	"\377\340\260"
	.string	"\377\340\260"
	.string	"\377\340\260"
	.string	"\377\340\260"
	.string	"\377\340\260"
	.string	"\377"
	.string	""
	.string	""
	.string	"\377"
	.string	""
	.string	""
	.string	"\377"
	.string	""
	.string	""
	.string	"\377"
	.string	""
	.string	""
	.string	"\377"
	.string	""
	.string	""
	.string	"\377"
	.string	""
	.string	""
	.string	"\377"
	.string	""
	.string	""
	.string	"\377"
	.string	""
	.string	""
	.string	"\377"
	.string	""
	.string	""
	.string	"\377"
	.string	""
	.string	""
	.string	"\377"
	.string	""
	.string	""
	.string	"\377"
	.string	""
	.string	""
	.string	"\377"
	.string	""
	.string	""
	.string	"\377\340\260"
	.string	"\377\340\260"
	.string	"\377\340\260"
	.string	"\377\340\260"
	.string	"\377"
	.string	""
	.string	""
	.string	"\377"
	.string	""
	.string	""
	.string	"\377\340\260"
	.string	"\377\340\260"
	.string	"\377\340\260"
	.string	"\377\340\260"
	.string	"\377\340\260"
	.string	"\377\340\260"
	.string	"\377\340\260"
	.string	"\377\340\260"
	.string	"\377\340\260"
	.string	"\377\340\260"
	.string	"\377\340\260"
	.string	"\377\340\260"
	.string	"\377"
	.string	""
	.string	""
	.string	"\377"
	.string	""
	.string	""
	.string	"\377"
	.string	""
	.string	""
	.string	"\377"
	.string	""
	.string	""
	.string	"\377\340\260"
	.string	"\377\340\260"
	.string	"\377\340\260"
	.string	"\377\340\260"
	.string	"\377\340\260"
	.string	"\377\340\260"
	.string	"\377\340\260"
	.string	"\377\340\260"
	.string	"\377\340\260"
	.string	"\377\340\260"
	.string	"\377\340\260"
	.string	"\377\340\260"
	.string	"\377"
	.string	""
	.string	""
	.string	"\377"
	.string	""
	.string	""
	.string	"\377"
	.string	""
	.string	""
	.string	"\377"
	.string	""
	.string	""
	.string	"\377"
	.string	""
	.string	""
	.string	"\377"
	.string	""
	.string	""
	.string	"\377"
	.string	""
	.string	""
	.string	"\377"
	.string	""
	.string	""
	.string	"\377"
	.string	""
	.string	""
	.string	"\377\340\260"
	.string	"\377\340\260"
	.string	"\377\340\260"
	.string	"\377\340\260"
	.string	"\377"
	.string	""
	.string	""
	.string	"\377"
	.string	""
	.string	""
	.string	"\377"
	.string	""
	.string	""
	.string	"\377"
	.string	""
	.string	""
	.string	"\377"
	.string	""
	.string	""
	.string	"\377"
	.string	""
	.string	""
	.string	"\377"
	.string	""
	.string	""
	.string	"\377"
	.string	""
	.string	""
	.string	"\377\340\260"
	.string	"\377\340\260"
	.string	"\377\340\260"
	.string	"\377\340\260"
	.string	"\377\340\260"
	.string	"\377\340\260"
	.string	"\377\340\260"
	.string	"\377\340\260"
	.string	"\377\340\260"
	.string	"\377\340\260"
	.string	"\377\340\260"
	.string	"\377"
	.string	""
	.string	""
	.string	"\377"
	.string	""
	.string	""
	.string	"\377"
	.string	""
	.string	""
	.string	"\377"
	.string	""
	.string	""
	.string	"\377"
	.string	""
	.string	""
	.string	"\377"
	.string	""
	.string	""
	.string	"\377"
	.string	""
	.string	""
	.string	"\377"
	.string	""
	.string	""
	.string	"\377"
	.string	""
	.string	""
	.string	"\377"
	.string	""
	.string	""
	.string	"\377"
	.string	""
	.string	""
	.string	"\377"
	.string	""
	.string	""
	.string	"\377"
	.string	""
	.string	""
	.string	"\377"
	.string	""
	.string	""
	.string	"\377\340\260"
	.string	"\377\340\260"
	.string	"\377\340\260"
	.string	"\377\340\260"
	.string	"\377"
	.string	""
	.string	""
	.string	"\377"
	.string	""
	.string	""
	.string	"\377"
	.string	""
	.string	""
	.string	"\377"
	.string	""
	.string	""
	.string	"\377"
	.string	""
	.string	""
	.string	"\377"
	.string	""
	.string	""
	.string	"\377"
	.string	""
	.string	""
	.string	"\377"
	.string	""
	.string	""
	.string	"\377"
	.string	""
	.string	""
	.string	"\377"
	.string	""
	.string	""
	.string	"\377"
	.string	""
	.string	""
	.string	"\377"
	.string	""
	.string	""
	.string	"\377"
	.string	""
	.string	""
	.string	"\377"
	.string	""
	.string	""
	.string	"\377"
	.string	""
	.string	""
	.string	"\377"
	.string	""
	.string	""
	.string	"\377"
	.string	""
	.string	""
	.string	"\377"
	.string	""
	.string	""
	.string	"\377"
	.string	""
	.string	""
	.string	"\377"
	.string	""
	.string	""
	.string	"\377"
	.string	""
	.string	""
	.string	"\377"
	.string	""
	.string	""
	.string	"\377"
	.string	""
	.string	""
	.string	"\377"
	.string	""
	.string	""
	.string	"\377"
	.string	""
	.string	""
	.string	"\377"
	.string	""
	.string	""
	.string	"\377"
	.string	""
	.string	""
	.string	"\377"
	.string	""
	.string	""
	.string	"\377"
	.string	""
	.string	""
	.string	"\377"
	.string	""
	.string	""
	.string	"\377"
	.string	""
	.string	""
	.string	"\377"
	.string	""
	.string	""
	.string	"\377"
	.string	""
	.string	""
	.string	"\377"
	.string	""
	.string	""
	.string	"\377"
	.string	""
	.string	""
	.string	"\377"
	.string	""
	.string	""
	.string	"\377"
	.string	""
	.string	""
	.string	"\377"
	.string	""
	.string	""
	.string	"\377"
	.string	""
	.string	""
	.string	"\377"
	.string	""
	.string	""
	.string	"\377"
	.string	""
	.string	""
	.string	"\377"
	.string	""
	.string	""
	.string	"\377"
	.string	""
	.string	""
	.string	"\377"
	.string	""
	.string	""
	.string	"\377"
	.string	""
	.string	""
	.string	"\377"
	.string	""
	.string	""
	.string	"\377"
	.string	""
	.string	""
	.string	"\377"
	.string	""
	.string	""
	.string	"\377"
	.string	""
	.string	""
	.string	"\377"
	.string	""
	.string	""
	.string	"\377"
	.string	""
	.string	""
	.string	"\377"
	.string	""
	.string	""
	.string	"\377"
	.string	""
	.string	""
	.string	"\377"
	.string	""
	.string	""
	.string	"\377"
	.string	""
	.string	""
	.string	"\377"
	.string	""
	.string	""
	.string	"\377"
	.string	""
	.string	""
	.string	"\377"
	.string	""
	.string	""
	.string	"\377"
	.string	""
	.string	""
	.string	"\377"
	.string	""
	.string	""
	.string	"\377"
	.string	""
	.string	""
	.string	"\377"
	.string	""
	.string	""
	.string	"\377"
	.string	""
	.string	""
	.string	"\377"
	.string	""
	.string	""
	.string	"\377"
	.string	""
	.string	""
	.string	"\377"
	.string	""
	.string	""
	.string	"\377"
	.string	""
	.string	""
	.string	"\377"
	.string	""
	.string	""
	.string	"\377"
	.string	""
	.string	""
	.string	"\377"
	.string	""
	.string	""
	.string	"\377"
	.string	""
	.string	""
	.string	"\377"
	.string	""
	.string	""
	.string	"\377"
	.string	""
	.string	""
	.string	"\377"
	.string	""
	.string	""
	.string	"\377"
	.string	""
	.string	""
	.string	"\377"
	.string	""
	.string	""
	.string	"\377"
	.string	""
	.string	""
	.string	"\377"
	.string	""
	.string	""
	.string	"\377"
	.string	""
	.string	""
	.string	"\377"
	.string	""
	.string	""
	.string	"\377"
	.string	""
	.string	""
	.string	"\377"
	.string	""
	.string	""
	.string	"\377\340\260"
	.string	"\377\340\260"
	.string	"\377\340\260"
	.string	"\377\340\260"
	.string	"\377"
	.string	""
	.string	""
	.string	"\377"
	.string	""
	.string	""
	.string	"\377"
	.string	""
	.string	""
	.string	"\377"
	.string	""
	.string	""
	.string	"\377"
	.string	""
	.string	""
	.string	"\377"
	.string	""
	.string	""
	.string	"\377"
	.string	""
	.string	""
	.string	"\377"
	.string	""
	.string	""
	.string	"\377"
	.string	""
	.string	""
	.string	"\377"
	.string	""
	.string	""
	.string	"\377"
	.string	""
	.string	""
	.string	"\377"
	.string	""
	.string	""
	.string	"\377"
	.string	""
	.string	""
	.string	"\377"
	.string	""
	.string	""
	.string	"\377"
	.string	""
	.string	""
	.string	"\377"
	.string	""
	.string	""
	.string	"\377"
	.string	""
	.string	""
	.string	"\377"
	.string	""
	.string	""
	.string	"\377"
	.string	""
	.string	""
	.string	"\377"
	.string	""
	.string	""
	.string	"\377"
	.string	""
	.string	""
	.string	"\377"
	.string	""
	.string	""
	.string	"\377"
	.string	""
	.string	""
	.string	"\377"
	.string	""
	.string	""
	.string	"\377"
	.string	""
	.string	""
	.string	"\377"
	.string	""
	.string	""
	.string	"\377\340\260"
	.string	"\377\340\260"
	.string	"\377\340\260"
	.string	"\377\340\260"
	.string	"\377"
	.string	""
	.string	""
	.string	"\377"
	.string	""
	.string	""
	.string	"\377"
	.string	""
	.string	""
	.string	"\377"
	.string	""
	.string	""
	.string	"\377"
	.string	""
	.string	""
	.string	"\377"
	.string	""
	.string	""
	.string	"\377"
	.string	""
	.string	""
	.string	"\377\340\260"
	.string	"\377\340\260"
	.string	"\377\340\260"
	.string	"\377\340\260"
	.string	"\377"
	.string	""
	.string	""
	.string	"\377\340\260"
	.string	"\377\340\260"
	.string	"\377\340\260"
	.string	"\377\340\260"
	.string	"\377\340\260"
	.string	"\377\340\260"
	.string	"\377\340\260"
	.string	"\377\340\260"
	.string	"\377\340\260"
	.string	"\377\340\260"
	.string	"\377\340\260"
	.string	"\377\340\260"
	.string	"\377\340\260"
	.string	"\377"
	.string	""
	.string	""
	.string	"\377"
	.string	""
	.string	""
	.string	"\377"
	.string	""
	.string	""
	.string	"\377"
	.string	""
	.string	""
	.string	"\377"
	.string	""
	.string	""
	.string	"\377\340\260"
	.string	"\377\340\260"
	.string	"\377\340\260"
	.string	"\377\340\260"
	.string	"\377\340\260"
	.string	"\377\340\260"
	.string	"\377\340\260"
	.string	"\377\340\260"
	.string	"\377\340\260"
	.string	"\377\340\260"
	.string	"\377\340\260"
	.string	"\377\340\260"
	.string	"\377\340\260"
	.string	"\377"
	.string	""
	.string	""
	.string	"\377\340\260"
	.string	"\377\340\260"
	.string	"\377\340\260"
	.string	"\377\340\260"
	.string	"\377\340\260"
	.string	"\377\340\260"
	.string	"\377\340\260"
	.string	"\377\340\260"
	.string	"\377\340\260"
	.string	"\377\340\260"
	.string	"\377\340\260"
	.string	"\377\340\260"
	.string	"\377\340\260"
	.string	"\377"
	.string	""
	.string	""
	.string	"\377"
	.string	""
	.string	""
	.string	"\377"
	.string	""
	.string	""
	.string	"\377"
	.string	""
	.string	""
	.string	"\377"
	.string	""
	.string	""
	.string	"\377\340\260"
	.string	"\377\340\260"
	.string	"\377\340\260"
	.string	"\377\340\260"
	.string	"\377\340\260"
	.string	"\377\340\260"
	.string	"\377\340\260"
	.string	"\377\340\260"
	.string	"\377\340\260"
	.string	"\377\340\260"
	.string	"\377\340\260"
	.string	"\377\340\260"
	.string	"\377\340\260"
	.string	"\377"
	.string	""
	.string	""
	.string	"\377\340\260"
	.string	"\377\340\260"
	.string	"\377\340\260"
	.string	"\377\340\260"
	.string	"\377"
	.string	""
	.string	""
	.string	"\377"
	.string	""
	.string	""
	.string	"\377"
	.string	""
	.string	""
	.string	"\377"
	.string	""
	.string	""
	.string	"\377"
	.string	""
	.string	""
	.string	"\377"
	.string	""
	.string	""
	.string	"\377"
	.string	""
	.string	""
	.string	"\377"
	.string	""
	.string	""
	.string	"\377"
	.string	""
	.string	""
	.string	"\377"
	.string	""
	.string	""
	.string	"\377"
	.string	""
	.string	""
	.string	"\377"
	.string	""
	.string	""
	.string	"\377"
	.string	""
	.string	""
	.string	"\377"
	.string	""
	.string	""
	.string	"\377\340\260"
	.string	"\377\340\260"
	.string	"\377\340\260"
	.string	"\377\340\260"
	.string	"\377\340\260"
	.string	"\377\340\260"
	.string	"\377\340\260"
	.string	"\377\340\260"
	.string	"\377\340\260"
	.string	"\377\340\260"
	.string	"\377\340\260"
	.string	"\377\340\260"
	.string	"\377\340\260"
	.string	"\377"
	.string	""
	.string	""
	.string	"\377"
	.string	""
	.string	""
	.string	"\377"
	.string	""
	.string	""
	.string	"\377"
	.string	""
	.string	""
	.string	"\377"
	.string	""
	.string	""
	.string	"\377"
	.string	""
	.string	""
	.string	"\377"
	.string	""
	.string	""
	.string	"\377"
	.string	""
	.string	""
	.string	"\377"
	.string	""
	.string	""
	.string	"\377"
	.string	""
	.string	""
	.string	"\377"
	.string	""
	.string	""
	.string	"\377"
	.string	""
	.string	""
	.string	"\377"
	.string	""
	.string	""
	.string	"\377\340\260"
	.string	"\377\340\260"
	.string	"\377\340\260"
	.string	"\377\340\260"
	.string	"\377"
	.string	""
	.string	""
	.string	"\377"
	.string	""
	.string	""
	.string	"\377"
	.string	""
	.string	""
	.string	"\377"
	.string	""
	.string	""
	.string	"\377\340\260"
	.string	"\377\340\260"
	.string	"\377\340\260"
	.string	"\377\340\260"
	.string	"\377\340\260"
	.string	"\377\340\260"
	.string	"\377\340\260"
	.string	"\377\340\260"
	.string	"\377"
	.string	""
	.string	""
	.string	"\377"
	.string	""
	.string	""
	.string	"\377"
	.string	""
	.string	""
	.string	"\377"
	.string	""
	.string	""
	.string	"\377"
	.string	""
	.string	""
	.string	"\377"
	.string	""
	.string	""
	.string	"\377"
	.string	""
	.string	""
	.string	"\377"
	.string	""
	.string	""
	.string	"\377\340\260"
	.string	"\377\340\260"
	.string	"\377\340\260"
	.string	"\377\340\260"
	.string	"\377\340\260"
	.string	"\377\340\260"
	.string	"\377\340\260"
	.string	"\377\340\260"
	.string	"\377"
	.string	""
	.string	""
	.string	"\377"
	.string	""
	.string	""
	.string	"\377"
	.string	""
	.string	""
	.string	"\377"
	.string	""
	.string	""
	.string	"\377"
	.string	""
	.string	""
	.string	"\377"
	.string	""
	.string	""
	.string	"\377"
	.string	""
	.string	""
	.string	"\377"
	.string	""
	.string	""
	.string	"\377"
	.string	""
	.string	""
	.string	"\377"
	.string	""
	.string	""
	.string	"\377"
	.string	""
	.string	""
	.string	"\377\340\260"
	.string	"\377\340\260"
	.string	"\377\340\260"
	.string	"\377\340\260"
	.string	"\377"
	.string	""
	.string	""
	.string	"\377"
	.string	""
	.string	""
	.string	"\377"
	.string	""
	.string	""
	.string	"\377"
	.string	""
	.string	""
	.string	"\377"
	.string	""
	.string	""
	.string	"\377"
	.string	""
	.string	""
	.string	"\377"
	.string	""
	.string	""
	.string	"\377"
	.string	""
	.string	""
	.string	"\377"
	.string	""
	.string	""
	.string	"\377"
	.string	""
	.string	""
	.string	"\377\340\260"
	.string	"\377\340\260"
	.string	"\377\340\260"
	.string	"\377\340\260"
	.string	"\377\340\260"
	.string	"\377\340\260"
	.string	"\377\340\260"
	.string	"\377"
	.string	""
	.string	""
	.string	"\377"
	.string	""
	.string	""
	.string	"\377"
	.string	""
	.string	""
	.string	"\377"
	.string	""
	.string	""
	.ascii	"\377"
	.string	""
	.string	""
	.string	""
	.string	"\377"
	.string	""
	.string	""
	.string	"\377"
	.string	""
	.string	""
	.string	"\377"
	.string	""
	.string	""
	.string	"\377"
	.string	""
	.string	""
	.string	"\377"
	.string	""
	.string	""
	.string	"\377"
	.string	""
	.string	""
	.string	"\377"
	.string	""
	.string	""
	.string	"\377"
	.string	""
	.string	""
	.string	"\377"
	.string	""
	.string	""
	.string	"\377"
	.string	""
	.string	""
	.string	"\377"
	.string	""
	.string	""
	.string	"\377\340\260"
	.string	"\377\340\260"
	.string	"\377\340\260"
	.string	"\377\340\260"
	.string	"\377"
	.string	""
	.string	""
	.string	"\377"
	.string	""
	.string	""
	.string	"\377"
	.string	""
	.string	""
	.string	"\377"
	.string	""
	.string	""
	.string	"\377"
	.string	""
	.string	""
	.string	"\377"
	.string	""
	.string	""
	.string	"\377"
	.string	""
	.string	""
	.string	"\377"
	.string	""
	.string	""
	.string	"\377"
	.string	""
	.string	""
	.string	"\377"
	.string	""
	.string	""
	.string	"\377"
	.string	""
	.string	""
	.string	"\377"
	.string	""
	.string	""
	.string	"\377"
	.string	""
	.string	""
	.string	"\377"
	.string	""
	.string	""
	.string	"\377"
	.string	""
	.string	""
	.string	"\377"
	.string	""
	.string	""
	.string	"\377"
	.string	""
	.string	""
	.string	"\377"
	.string	""
	.string	""
	.string	"\377"
	.string	""
	.string	""
	.string	"\377"
	.string	""
	.string	""
	.string	"\377"
	.string	""
	.string	""
	.string	"\377"
	.string	""
	.string	""
	.string	"\377"
	.string	""
	.string	""
	.string	"\377"
	.string	""
	.string	""
	.string	"\377"
	.string	""
	.string	""
	.string	"\377"
	.string	""
	.string	""
	.string	"\377"
	.string	""
	.string	""
	.string	"\377"
	.string	""
	.string	""
	.string	"\377"
	.string	""
	.string	""
	.string	"\377"
	.string	""
	.string	""
	.string	"\377"
	.string	""
	.string	""
	.string	"\377"
	.string	""
	.string	""
	.string	"\377"
	.string	""
	.string	""
	.string	"\377"
	.string	""
	.string	""
	.string	"\377"
	.string	""
	.string	""
	.string	"\377"
	.string	""
	.string	""
	.string	"\377"
	.string	""
	.string	""
	.string	"\377"
	.string	""
	.string	""
	.string	"\377"
	.string	""
	.string	""
	.string	"\377"
	.string	""
	.string	""
	.string	"\377"
	.string	""
	.string	""
	.string	"\377"
	.string	""
	.string	""
	.string	"\377"
	.string	""
	.string	""
	.string	"\377"
	.string	""
	.string	""
	.string	"\377"
	.string	""
	.string	""
	.string	"\377"
	.string	""
	.string	""
	.string	"\377"
	.string	""
	.string	""
	.string	"\377"
	.string	""
	.string	""
	.string	"\377"
	.string	""
	.string	""
	.string	"\377"
	.string	""
	.string	""
	.string	"\377"
	.string	""
	.string	""
	.string	"\377"
	.string	""
	.string	""
	.string	"\377"
	.string	""
	.string	""
	.string	"\377"
	.string	""
	.string	""
	.string	"\377"
	.string	""
	.string	""
	.string	"\377"
	.string	""
	.string	""
	.string	"\377"
	.string	""
	.string	""
	.string	"\377"
	.string	""
	.string	""
	.string	"\377"
	.string	""
	.string	""
	.string	"\377"
	.string	""
	.string	""
	.string	"\377"
	.string	""
	.string	""
	.string	"\377"
	.string	""
	.string	""
	.string	"\377"
	.string	""
	.string	""
	.string	"\377"
	.string	""
	.string	""
	.string	"\377"
	.string	""
	.string	""
	.string	"\377"
	.string	""
	.string	""
	.string	"\377"
	.string	""
	.string	""
	.string	"\377"
	.string	""
	.string	""
	.string	"\377"
	.string	""
	.string	""
	.string	"\377"
	.string	""
	.string	""
	.string	"\377"
	.string	""
	.string	""
	.string	"\377"
	.string	""
	.string	""
	.string	"\377"
	.string	""
	.string	""
	.string	"\377"
	.string	""
	.string	""
	.string	"\377"
	.string	""
	.string	""
	.string	"\377"
	.string	""
	.string	""
	.string	"\377"
	.string	""
	.string	""
	.string	"\377"
	.string	""
	.string	""
	.string	"\377"
	.string	""
	.string	""
	.string	"\377"
	.string	""
	.string	""
	.string	"\377"
	.string	""
	.string	""
	.string	"\377"
	.string	""
	.string	""
	.string	"\377\340\260"
	.string	"\377\340\260"
	.string	"\377\340\260"
	.string	"\377\340\260"
	.string	"\377"
	.string	""
	.string	""
	.string	"\377"
	.string	""
	.string	""
	.string	"\377"
	.string	""
	.string	""
	.string	"\377"
	.string	""
	.string	""
	.string	"\377"
	.string	""
	.string	""
	.string	"\377"
	.string	""
	.string	""
	.string	"\377"
	.string	""
	.string	""
	.string	"\377"
	.string	""
	.string	""
	.string	"\377"
	.string	""
	.string	""
	.string	"\377"
	.string	""
	.string	""
	.string	"\377"
	.string	""
	.string	""
	.string	"\377"
	.string	""
	.string	""
	.string	"\377"
	.string	""
	.string	""
	.string	"\377"
	.string	""
	.string	""
	.string	"\377"
	.string	""
	.string	""
	.string	"\377"
	.string	""
	.string	""
	.string	"\377"
	.string	""
	.string	""
	.string	"\377"
	.string	""
	.string	""
	.string	"\377"
	.string	""
	.string	""
	.string	"\377"
	.string	""
	.string	""
	.string	"\377"
	.string	""
	.string	""
	.string	"\377"
	.string	""
	.string	""
	.string	"\377"
	.string	""
	.string	""
	.string	"\377"
	.string	""
	.string	""
	.string	"\377"
	.string	""
	.string	""
	.string	"\377"
	.string	""
	.string	""
	.string	"\377\340\260"
	.string	"\377\340\260"
	.string	"\377\340\260"
	.string	"\377\340\260"
	.string	"\377"
	.string	""
	.string	""
	.string	"\377"
	.string	""
	.string	""
	.string	"\377"
	.string	""
	.string	""
	.string	"\377"
	.string	""
	.string	""
	.string	"\377"
	.string	""
	.string	""
	.string	"\377"
	.string	""
	.string	""
	.string	"\377"
	.string	""
	.string	""
	.string	"\377\340\260"
	.string	"\377\340\260"
	.string	"\377\340\260"
	.string	"\377\340\260"
	.string	"\377"
	.string	""
	.string	""
	.string	"\377\340\260"
	.string	"\377\340\260"
	.string	"\377\340\260"
	.string	"\377\340\260"
	.string	"\377\340\260"
	.string	"\377\340\260"
	.string	"\377\340\260"
	.string	"\377\340\260"
	.string	"\377\340\260"
	.string	"\377\340\260"
	.string	"\377\340\260"
	.string	"\377"
	.string	""
	.string	""
	.string	"\377"
	.string	""
	.string	""
	.string	"\377"
	.string	""
	.string	""
	.string	"\377"
	.string	""
	.string	""
	.string	"\377"
	.string	""
	.string	""
	.string	"\377"
	.string	""
	.string	""
	.string	"\377"
	.string	""
	.string	""
	.string	"\377"
	.string	""
	.string	""
	.string	"\377"
	.string	""
	.string	""
	.string	"\377\340\260"
	.string	"\377\340\260"
	.string	"\377\340\260"
	.string	"\377\340\260"
	.string	"\377\340\260"
	.string	"\377\340\260"
	.string	"\377\340\260"
	.string	"\377\340\260"
	.string	"\377\340\260"
	.string	"\377\340\260"
	.string	"\377\340\260"
	.string	"\377"
	.string	""
	.string	""
	.string	"\377\340\260"
	.string	"\377\340\260"
	.string	"\377\340\260"
	.string	"\377\340\260"
	.string	"\377\340\260"
	.string	"\377\340\260"
	.string	"\377\340\260"
	.string	"\377\340\260"
	.string	"\377\340\260"
	.string	"\377\340\260"
	.string	"\377\340\260"
	.string	"\377"
	.string	""
	.string	""
	.string	"\377"
	.string	""
	.string	""
	.string	"\377"
	.string	""
	.string	""
	.string	"\377"
	.string	""
	.string	""
	.string	"\377"
	.string	""
	.string	""
	.string	"\377"
	.string	""
	.string	""
	.string	"\377"
	.string	""
	.string	""
	.string	"\377"
	.string	""
	.string	""
	.string	"\377"
	.string	""
	.string	""
	.string	"\377\340\260"
	.string	"\377\340\260"
	.string	"\377\340\260"
	.string	"\377\340\260"
	.string	"\377\340\260"
	.string	"\377\340\260"
	.string	"\377\340\260"
	.string	"\377\340\260"
	.string	"\377\340\260"
	.string	"\377\340\260"
	.string	"\377\340\260"
	.string	"\377"
	.string	""
	.string	""
	.string	"\377\340\260"
	.string	"\377\340\260"
	.string	"\377\340\260"
	.string	"\377\340\260"
	.string	"\377"
	.string	""
	.string	""
	.string	"\377"
	.string	""
	.string	""
	.string	"\377"
	.string	""
	.string	""
	.string	"\377"
	.string	""
	.string	""
	.string	"\377"
	.string	""
	.string	""
	.string	"\377"
	.string	""
	.string	""
	.string	"\377"
	.string	""
	.string	""
	.string	"\377"
	.string	""
	.string	""
	.string	"\377"
	.string	""
	.string	""
	.string	"\377"
	.string	""
	.string	""
	.string	"\377"
	.string	""
	.string	""
	.string	"\377"
	.string	""
	.string	""
	.string	"\377"
	.string	""
	.string	""
	.string	"\377"
	.string	""
	.string	""
	.string	"\377"
	.string	""
	.string	""
	.string	"\377"
	.string	""
	.string	""
	.string	"\377\340\260"
	.string	"\377\340\260"
	.string	"\377\340\260"
	.string	"\377\340\260"
	.string	"\377\340\260"
	.string	"\377\340\260"
	.string	"\377\340\260"
	.string	"\377"
	.string	""
	.string	""
	.string	"\377\340\260"
	.string	"\377\340\260"
	.string	"\377\340\260"
	.string	"\377"
	.string	""
	.string	""
	.string	"\377"
	.string	""
	.string	""
	.string	"\377\340\260"
	.string	"\377\340\260"
	.string	"\377\340\260"
	.string	"\377\340\260"
	.string	"\377"
	.string	""
	.string	""
	.string	"\377"
	.string	""
	.string	""
	.string	"\377"
	.string	""
	.string	""
	.string	"\377"
	.string	""
	.string	""
	.string	"\377"
	.string	""
	.string	""
	.string	"\377"
	.string	""
	.string	""
	.string	"\377"
	.string	""
	.string	""
	.string	"\377\340\260"
	.string	"\377\340\260"
	.string	"\377\340\260"
	.string	"\377\340\260"
	.string	"\377"
	.string	""
	.string	""
	.string	"\377\340\260"
	.string	"\377\340\260"
	.string	"\377\340\260"
	.string	"\377\340\260"
	.string	"\377\340\260"
	.string	"\377\340\260"
	.string	"\377\340\260"
	.string	"\377\340\260"
	.string	"\377\340\260"
	.string	"\377\340\260"
	.string	"\377\340\260"
	.string	"\377\340\260"
	.string	"\377\340\260"
	.string	"\377\340\260"
	.string	"\377"
	.string	""
	.string	""
	.string	"\377"
	.string	""
	.string	""
	.string	"\377"
	.string	""
	.string	""
	.string	"\377"
	.string	""
	.string	""
	.string	"\377"
	.string	""
	.string	""
	.string	"\377"
	.string	""
	.string	""
	.string	"\377"
	.string	""
	.string	""
	.string	"\377"
	.string	""
	.string	""
	.string	"\377"
	.string	""
	.string	""
	.string	"\377"
	.string	""
	.string	""
	.string	"\377"
	.string	""
	.string	""
	.string	"\377"
	.string	""
	.string	""
	.string	"\377\340\260"
	.string	"\377\340\260"
	.string	"\377\340\260"
	.string	"\377\340\260"
	.string	"\377"
	.string	""
	.string	""
	.string	"\377\340\260"
	.string	"\377\340\260"
	.string	"\377\340\260"
	.string	"\377\340\260"
	.string	"\377"
	.string	""
	.string	""
	.string	"\377"
	.string	""
	.string	""
	.string	"\377"
	.string	""
	.string	""
	.string	"\377"
	.string	""
	.string	""
	.string	"\377"
	.string	""
	.string	""
	.string	"\377"
	.string	""
	.string	""
	.string	"\377\340\260"
	.string	"\377\340\260"
	.string	"\377\340\260"
	.string	"\377\340\260"
	.string	"\377\340\260"
	.string	"\377"
	.string	""
	.string	""
	.string	"\377\340\260"
	.string	"\377\340\260"
	.string	"\377\340\260"
	.string	"\377\340\260"
	.string	"\377"
	.string	""
	.string	""
	.string	"\377"
	.string	""
	.string	""
	.string	"\377"
	.string	""
	.string	""
	.string	"\377"
	.string	""
	.string	""
	.string	"\377"
	.string	""
	.string	""
	.string	"\377"
	.string	""
	.string	""
	.string	"\377"
	.string	""
	.string	""
	.string	"\377"
	.string	""
	.string	""
	.string	"\377"
	.string	""
	.string	""
	.string	"\377"
	.string	""
	.string	""
	.string	"\377"
	.string	""
	.string	""
	.string	"\377"
	.string	""
	.string	""
	.string	"\377"
	.string	""
	.string	""
	.string	"\377"
	.string	""
	.string	""
	.string	"\377"
	.string	""
	.string	""
	.string	"\377"
	.string	""
	.string	""
	.string	"\377\340\260"
	.string	"\377\340\260"
	.string	"\377\340\260"
	.string	"\377\340\260"
	.string	"\377\340\260"
	.string	"\377\340\260"
	.string	"\377\340\260"
	.string	"\377"
	.string	""
	.string	""
	.string	"\377"
	.string	""
	.string	""
	.string	"\377"
	.string	""
	.string	""
	.string	"\377"
	.string	""
	.string	""
	.string	"\377"
	.string	""
	.string	""
	.string	"\377"
	.string	""
	.string	""
	.string	"\377"
	.string	""
	.string	""
	.string	"\377"
	.string	""
	.string	""
	.string	"\377"
	.string	""
	.string	""
	.string	"\377\340\260"
	.string	"\377\340\260"
	.string	"\377\340\260"
	.string	"\377\340\260"
	.string	"\377\340\260"
	.string	"\377\340\260"
	.string	"\377\340\260"
	.string	"\377"
	.string	""
	.string	""
	.string	"\377"
	.string	""
	.string	""
	.string	"\377"
	.string	""
	.string	""
	.string	"\377"
	.string	""
	.string	""
	.string	"\377"
	.string	""
	.string	""
	.string	"\377"
	.string	""
	.string	""
	.string	"\377"
	.string	""
	.string	""
	.string	"\377"
	.string	""
	.string	""
	.string	"\377"
	.string	""
	.string	""
	.string	"\377\340\260"
	.string	"\377\340\260"
	.string	"\377\340\260"
	.string	"\377\340\260"
	.string	"\377\340\260"
	.string	"\377\340\260"
	.string	"\377\340\260"
	.string	"\377"
	.string	""
	.string	""
	.string	"\377"
	.string	""
	.string	""
	.string	"\377"
	.string	""
	.string	""
	.string	"\377"
	.string	""
	.string	""
	.string	"\377"
	.string	""
	.string	""
	.string	"\377\340\260"
	.string	"\377\340\260"
	.string	"\377\340\260"
	.string	"\377\340\260"
	.string	"\377\340\260"
	.string	"\377\340\260"
	.string	"\377\340\260"
	.string	"\377\340\260"
	.string	"\377\340\260"
	.string	"\377\340\260"
	.string	"\377\340\260"
	.string	"\377"
	.string	""
	.string	""
	.string	"\377"
	.string	""
	.string	""
	.string	"\377"
	.string	""
	.string	""
	.string	"\377"
	.string	""
	.string	""
	.string	"\377"
	.string	""
	.string	""
	.string	"\377"
	.string	""
	.string	""
	.string	"\377"
	.string	""
	.string	""
	.string	"\377"
	.string	""
	.string	""
	.string	"\377"
	.string	""
	.string	""
	.string	"\377\340\260"
	.string	"\377\340\260"
	.string	"\377\340\260"
	.string	"\377\340\260"
	.string	"\377\340\260"
	.string	"\377\340\260"
	.string	"\377\340\260"
	.string	"\377"
	.string	""
	.string	""
	.string	"\377"
	.string	""
	.string	""
	.string	"\377"
	.string	""
	.string	""
	.string	"\377"
	.string	""
	.string	""
	.string	"\377"
	.string	""
	.string	""
	.string	"\377\340\260"
	.string	"\377\340\260"
	.string	"\377\340\260"
	.string	"\377\340\260"
	.string	"\377\340\260"
	.string	"\377\340\260"
	.string	"\377\340\260"
	.string	"\377\340\260"
	.string	"\377\340\260"
	.string	"\377\340\260"
	.string	"\377\340\260"
	.string	"\377"
	.string	""
	.string	""
	.string	"\377"
	.string	""
	.string	""
	.string	"\377"
	.string	""
	.string	""
	.string	"\377"
	.string	""
	.string	""
	.string	"\377"
	.string	""
	.string	""
	.string	"\377"
	.string	""
	.string	""
	.string	"\377"
	.string	""
	.string	""
	.string	"\377"
	.string	""
	.string	""
	.string	"\377"
	.string	""
	.string	""
	.string	"\377\340\260"
	.string	"\377\340\260"
	.string	"\377\340\260"
	.string	"\377\340\260"
	.string	"\377\340\260"
	.string	"\377\340\260"
	.string	"\377\340\260"
	.string	"\377\340\260"
	.string	"\377"
	.string	""
	.string	""
	.string	"\377"
	.string	""
	.string	""
	.string	"\377"
	.string	""
	.string	""
	.string	"\377"
	.string	""
	.string	""
	.string	"\377\340\260"
	.string	"\377\340\260"
	.string	"\377\340\260"
	.string	"\377\340\260"
	.string	"\377\340\260"
	.string	"\377\340\260"
	.string	"\377\340\260"
	.string	"\377\340\260"
	.string	"\377\340\260"
	.string	"\377\340\260"
	.string	"\377\340\260"
	.string	"\377"
	.string	""
	.string	""
	.string	"\377"
	.string	""
	.string	""
	.string	"\377"
	.string	""
	.string	""
	.string	"\377"
	.string	""
	.string	""
	.string	"\377"
	.string	""
	.string	""
	.string	"\377\340\260"
	.string	"\377\340\260"
	.string	"\377\340\260"
	.string	"\377\340\260"
	.string	"\377"
	.string	""
	.string	""
	.string	"\377"
	.string	""
	.string	""
	.string	"\377"
	.string	""
	.string	""
	.string	"\377"
	.string	""
	.string	""
	.string	"\377"
	.string	""
	.string	""
	.string	"\377"
	.string	""
	.string	""
	.string	"\377"
	.string	""
	.string	""
	.string	"\377\340\260"
	.string	"\377\340\260"
	.string	"\377\340\260"
	.string	"\377\340\260"
	.string	"\377"
	.string	""
	.string	""
	.string	"\377\340\260"
	.string	"\377\340\260"
	.string	"\377\340\260"
	.string	"\377\340\260"
	.string	"\377"
	.string	""
	.string	""
	.string	"\377"
	.string	""
	.string	""
	.string	"\377"
	.string	""
	.string	""
	.string	"\377"
	.string	""
	.string	""
	.string	"\377"
	.string	""
	.string	""
	.string	"\377"
	.string	""
	.string	""
	.string	"\377"
	.string	""
	.string	""
	.string	"\377\340\260"
	.string	"\377\340\260"
	.string	"\377\340\260"
	.string	"\377\340\260"
	.string	"\377"
	.string	""
	.string	""
	.string	"\377\340\260"
	.string	"\377\340\260"
	.string	"\377\340\260"
	.string	"\377\340\260"
	.string	"\377"
	.string	""
	.string	""
	.string	"\377"
	.string	""
	.string	""
	.string	"\377"
	.string	""
	.string	""
	.string	"\377"
	.string	""
	.string	""
	.string	"\377"
	.string	""
	.string	""
	.string	"\377"
	.string	""
	.string	""
	.string	"\377"
	.string	""
	.string	""
	.string	"\377\340\260"
	.string	"\377\340\260"
	.string	"\377\340\260"
	.string	"\377\340\260"
	.string	"\377"
	.string	""
	.string	""
	.string	"\377\340\260"
	.string	"\377\340\260"
	.string	"\377\340\260"
	.string	"\377\340\260"
	.ascii	"\377"
	.string	""
	.string	""
	.string	""
	.string	"\377"
	.string	""
	.string	""
	.string	"\377"
	.string	""
	.string	""
	.string	"\377"
	.string	""
	.string	""
	.string	"\377"
	.string	""
	.string	""
	.string	"\377"
	.string	""
	.string	""
	.string	"\377"
	.string	""
	.string	""
	.string	"\377\340\260"
	.string	"\377\340\260"
	.string	"\377\340\260"
	.string	"\377\340\260"
	.string	"\377"
	.string	""
	.string	""
	.string	"\377\340\260"
	.string	"\377\340\260"
	.string	"\377\340\260"
	.string	"\377\340\260"
	.string	"\377"
	.string	""
	.string	""
	.string	"\377"
	.string	""
	.string	""
	.string	"\377"
	.string	""
	.string	""
	.string	"\377"
	.string	""
	.string	""
	.string	"\377"
	.string	""
	.string	""
	.string	"\377"
	.string	""
	.string	""
	.string	"\377"
	.string	""
	.string	""
	.string	"\377\340\260"
	.string	"\377\340\260"
	.string	"\377\340\260"
	.string	"\377\340\260"
	.string	"\377"
	.string	""
	.string	""
	.string	"\377\340\260"
	.string	"\377\340\260"
	.string	"\377\340\260"
	.string	"\377\340\260"
	.string	"\377\340\260"
	.string	"\377\340\260"
	.string	"\377\340\260"
	.string	"\377\340\260"
	.string	"\377\340\260"
	.string	"\377\340\260"
	.string	"\377\340\260"
	.string	"\377\340\260"
	.string	"\377\340\260"
	.string	"\377\340\260"
	.string	"\377"
	.string	""
	.string	""
	.string	"\377"
	.string	""
	.string	""
	.string	"\377"
	.string	""
	.string	""
	.string	"\377"
	.string	""
	.string	""
	.string	"\377"
	.string	""
	.string	""
	.string	"\377"
	.string	""
	.string	""
	.string	"\377"
	.string	""
	.string	""
	.string	"\377"
	.string	""
	.string	""
	.string	"\377"
	.string	""
	.string	""
	.string	"\377"
	.string	""
	.string	""
	.string	"\377"
	.string	""
	.string	""
	.string	"\377"
	.string	""
	.string	""
	.string	"\377"
	.string	""
	.string	""
	.string	"\377"
	.string	""
	.string	""
	.string	"\377"
	.string	""
	.string	""
	.string	"\377"
	.string	""
	.string	""
	.string	"\377"
	.string	""
	.string	""
	.string	"\377"
	.string	""
	.string	""
	.string	"\377"
	.string	""
	.string	""
	.string	"\377\340\260"
	.string	"\377\340\260"
	.string	"\377\340\260"
	.string	"\377\340\260"
	.string	"\377"
	.string	""
	.string	""
	.string	"\377"
	.string	""
	.string	""
	.string	"\377"
	.string	""
	.string	""
	.string	"\377"
	.string	""
	.string	""
	.string	"\377"
	.string	""
	.string	""
	.string	"\377"
	.string	""
	.string	""
	.string	"\377"
	.string	""
	.string	""
	.string	"\377\340\260"
	.string	"\377\340\260"
	.string	"\377\340\260"
	.string	"\377\340\260"
	.string	"\377"
	.string	""
	.string	""
	.string	"\377\340\260"
	.string	"\377\340\260"
	.string	"\377\340\260"
	.string	"\377\340\260"
	.string	"\377\340\260"
	.string	"\377\340\260"
	.string	"\377\340\260"
	.string	"\377\340\260"
	.string	"\377\340\260"
	.string	"\377\340\260"
	.string	"\377\340\260"
	.string	"\377\340\260"
	.string	"\377\340\260"
	.string	"\377\340\260"
	.string	"\377"
	.string	""
	.string	""
	.string	"\377"
	.string	""
	.string	""
	.string	"\377"
	.string	""
	.string	""
	.string	"\377"
	.string	""
	.string	""
	.string	"\377"
	.string	""
	.string	""
	.string	"\377"
	.string	""
	.string	""
	.string	"\377"
	.string	""
	.string	""
	.string	"\377"
	.string	""
	.string	""
	.string	"\377"
	.string	""
	.string	""
	.string	"\377"
	.string	""
	.string	""
	.string	"\377"
	.string	""
	.string	""
	.string	"\377"
	.string	""
	.string	""
	.string	"\377\340\260"
	.string	"\377\340\260"
	.string	"\377\340\260"
	.string	"\377\340\260"
	.string	"\377"
	.string	""
	.string	""
	.string	"\377\340\260"
	.string	"\377\340\260"
	.string	"\377\340\260"
	.string	"\377\340\260"
	.string	"\377"
	.string	""
	.string	""
	.string	"\377"
	.string	""
	.string	""
	.string	"\377"
	.string	""
	.string	""
	.string	"\377"
	.string	""
	.string	""
	.string	"\377"
	.string	""
	.string	""
	.string	"\377\340\260"
	.string	"\377\340\260"
	.string	"\377\340\260"
	.string	"\377\340\260"
	.string	"\377\340\260"
	.string	"\377"
	.string	""
	.string	""
	.string	"\377"
	.string	""
	.string	""
	.string	"\377\340\260"
	.string	"\377\340\260"
	.string	"\377\340\260"
	.string	"\377\340\260"
	.string	"\377"
	.string	""
	.string	""
	.string	"\377"
	.string	""
	.string	""
	.string	"\377"
	.string	""
	.string	""
	.string	"\377"
	.string	""
	.string	""
	.string	"\377"
	.string	""
	.string	""
	.string	"\377"
	.string	""
	.string	""
	.string	"\377"
	.string	""
	.string	""
	.string	"\377"
	.string	""
	.string	""
	.string	"\377"
	.string	""
	.string	""
	.string	"\377"
	.string	""
	.string	""
	.string	"\377"
	.string	""
	.string	""
	.string	"\377"
	.string	""
	.string	""
	.string	"\377"
	.string	""
	.string	""
	.string	"\377"
	.string	""
	.string	""
	.string	"\377\340\260"
	.string	"\377\340\260"
	.string	"\377\340\260"
	.string	"\377\340\260"
	.string	"\377\340\260"
	.string	"\377\340\260"
	.string	"\377\340\260"
	.string	"\377\340\260"
	.string	"\377\340\260"
	.string	"\377\340\260"
	.string	"\377\340\260"
	.string	"\377"
	.string	""
	.string	""
	.string	"\377"
	.string	""
	.string	""
	.string	"\377"
	.string	""
	.string	""
	.string	"\377"
	.string	""
	.string	""
	.string	"\377"
	.string	""
	.string	""
	.string	"\377\340\260"
	.string	"\377\340\260"
	.string	"\377\340\260"
	.string	"\377\340\260"
	.string	"\377\340\260"
	.string	"\377\340\260"
	.string	"\377\340\260"
	.string	"\377\340\260"
	.string	"\377\340\260"
	.string	"\377\340\260"
	.string	"\377\340\260"
	.string	"\377"
	.string	""
	.string	""
	.string	"\377"
	.string	""
	.string	""
	.string	"\377"
	.string	""
	.string	""
	.string	"\377"
	.string	""
	.string	""
	.string	"\377"
	.string	""
	.string	""
	.string	"\377\340\260"
	.string	"\377\340\260"
	.string	"\377\340\260"
	.string	"\377\340\260"
	.string	"\377\340\260"
	.string	"\377\340\260"
	.string	"\377\340\260"
	.string	"\377\340\260"
	.string	"\377\340\260"
	.string	"\377\340\260"
	.string	"\377\340\260"
	.string	"\377"
	.string	""
	.string	""
	.string	"\377"
	.string	""
	.string	""
	.string	"\377"
	.string	""
	.string	""
	.string	"\377\340\260"
	.string	"\377\340\260"
	.string	"\377\340\260"
	.string	"\377\340\260"
	.string	"\377\340\260"
	.string	"\377\340\260"
	.string	"\377\340\260"
	.string	"\377\340\260"
	.string	"\377\340\260"
	.string	"\377\340\260"
	.string	"\377\340\260"
	.string	"\377\340\260"
	.string	"\377\340\260"
	.string	"\377"
	.string	""
	.string	""
	.string	"\377"
	.string	""
	.string	""
	.string	"\377"
	.string	""
	.string	""
	.string	"\377"
	.string	""
	.string	""
	.string	"\377"
	.string	""
	.string	""
	.string	"\377\340\260"
	.string	"\377\340\260"
	.string	"\377\340\260"
	.string	"\377\340\260"
	.string	"\377\340\260"
	.string	"\377\340\260"
	.string	"\377\340\260"
	.string	"\377\340\260"
	.string	"\377\340\260"
	.string	"\377\340\260"
	.string	"\377\340\260"
	.string	"\377"
	.string	""
	.string	""
	.string	"\377"
	.string	""
	.string	""
	.string	"\377"
	.string	""
	.string	""
	.string	"\377\340\260"
	.string	"\377\340\260"
	.string	"\377\340\260"
	.string	"\377\340\260"
	.string	"\377\340\260"
	.string	"\377\340\260"
	.string	"\377\340\260"
	.string	"\377\340\260"
	.string	"\377\340\260"
	.string	"\377\340\260"
	.string	"\377\340\260"
	.string	"\377\340\260"
	.string	"\377\340\260"
	.string	"\377"
	.string	""
	.string	""
	.string	"\377"
	.string	""
	.string	""
	.string	"\377"
	.string	""
	.string	""
	.string	"\377"
	.string	""
	.string	""
	.string	"\377"
	.string	""
	.string	""
	.string	"\377\340\260"
	.string	"\377\340\260"
	.string	"\377\340\260"
	.string	"\377\340\260"
	.string	"\377\340\260"
	.string	"\377\340\260"
	.string	"\377\340\260"
	.string	"\377\340\260"
	.string	"\377\340\260"
	.string	"\377\340\260"
	.string	"\377\340\260"
	.string	"\377\340\260"
	.string	"\377"
	.string	""
	.string	""
	.string	"\377"
	.string	""
	.string	""
	.string	"\377\340\260"
	.string	"\377\340\260"
	.string	"\377\340\260"
	.string	"\377\340\260"
	.string	"\377\340\260"
	.string	"\377\340\260"
	.string	"\377\340\260"
	.string	"\377\340\260"
	.string	"\377\340\260"
	.string	"\377\340\260"
	.string	"\377\340\260"
	.string	"\377\340\260"
	.string	"\377\340\260"
	.string	"\377"
	.string	""
	.string	""
	.string	"\377"
	.string	""
	.string	""
	.string	"\377"
	.string	""
	.string	""
	.string	"\377\340\260"
	.string	"\377\340\260"
	.string	"\377\340\260"
	.string	"\377\340\260"
	.string	"\377"
	.string	""
	.string	""
	.string	"\377"
	.string	""
	.string	""
	.string	"\377"
	.string	""
	.string	""
	.string	"\377"
	.string	""
	.string	""
	.string	"\377"
	.string	""
	.string	""
	.string	"\377"
	.string	""
	.string	""
	.string	"\377"
	.string	""
	.string	""
	.string	"\377\340\260"
	.string	"\377\340\260"
	.string	"\377\340\260"
	.string	"\377\340\260"
	.string	"\377"
	.string	""
	.string	""
	.string	"\377\340\260"
	.string	"\377\340\260"
	.string	"\377\340\260"
	.string	"\377\340\260"
	.string	"\377"
	.string	""
	.string	""
	.string	"\377"
	.string	""
	.string	""
	.string	"\377"
	.string	""
	.string	""
	.string	"\377"
	.string	""
	.string	""
	.string	"\377"
	.string	""
	.string	""
	.string	"\377"
	.string	""
	.string	""
	.string	"\377"
	.string	""
	.string	""
	.string	"\377\340\260"
	.string	"\377\340\260"
	.string	"\377\340\260"
	.string	"\377\340\260"
	.string	"\377"
	.string	""
	.string	""
	.string	"\377\340\260"
	.string	"\377\340\260"
	.string	"\377\340\260"
	.string	"\377\340\260"
	.string	"\377"
	.string	""
	.string	""
	.string	"\377"
	.string	""
	.string	""
	.string	"\377"
	.string	""
	.string	""
	.string	"\377"
	.string	""
	.string	""
	.string	"\377"
	.string	""
	.string	""
	.string	"\377"
	.string	""
	.string	""
	.string	"\377"
	.string	""
	.string	""
	.string	"\377\340\260"
	.string	"\377\340\260"
	.string	"\377\340\260"
	.string	"\377\340\260"
	.string	"\377"
	.string	""
	.string	""
	.string	"\377"
	.string	""
	.string	""
	.string	"\377\340\260"
	.string	"\377\340\260"
	.string	"\377\340\260"
	.string	"\377\340\260"
	.string	"\377"
	.string	""
	.string	""
	.string	"\377"
	.string	""
	.string	""
	.string	"\377"
	.string	""
	.string	""
	.string	"\377"
	.string	""
	.string	""
	.string	"\377"
	.string	""
	.string	""
	.string	"\377\340\260"
	.string	"\377\340\260"
	.string	"\377\340\260"
	.string	"\377\340\260"
	.string	"\377"
	.string	""
	.string	""
	.string	"\377"
	.string	""
	.string	""
	.string	"\377\340\260"
	.string	"\377\340\260"
	.string	"\377\340\260"
	.string	"\377\340\260"
	.string	"\377"
	.string	""
	.string	""
	.string	"\377"
	.string	""
	.string	""
	.string	"\377"
	.string	""
	.string	""
	.string	"\377"
	.string	""
	.string	""
	.string	"\377"
	.string	""
	.string	""
	.string	"\377"
	.string	""
	.string	""
	.string	"\377"
	.string	""
	.string	""
	.string	"\377\340\260"
	.string	"\377\340\260"
	.string	"\377\340\260"
	.string	"\377\340\260"
	.string	"\377"
	.string	""
	.string	""
	.string	"\377\340\260"
	.string	"\377\340\260"
	.string	"\377\340\260"
	.string	"\377\340\260"
	.string	"\377\340\260"
	.string	"\377\340\260"
	.string	"\377\340\260"
	.string	"\377\340\260"
	.string	"\377\340\260"
	.string	"\377\340\260"
	.string	"\377\340\260"
	.string	"\377\340\260"
	.string	"\377\340\260"
	.string	"\377\340\260"
	.string	"\377\340\260"
	.string	"\377"
	.string	""
	.string	""
	.string	"\377"
	.string	""
	.string	""
	.string	"\377"
	.string	""
	.string	""
	.string	"\377"
	.string	""
	.string	""
	.string	"\377"
	.string	""
	.string	""
	.string	"\377"
	.string	""
	.string	""
	.string	"\377"
	.string	""
	.string	""
	.string	"\377"
	.string	""
	.string	""
	.string	"\377"
	.string	""
	.string	""
	.string	"\377"
	.string	""
	.string	""
	.string	"\377"
	.string	""
	.string	""
	.string	"\377"
	.string	""
	.string	""
	.string	"\377"
	.string	""
	.string	""
	.string	"\377"
	.string	""
	.string	""
	.string	"\377"
	.string	""
	.string	""
	.string	"\377"
	.string	""
	.string	""
	.string	"\377"
	.string	""
	.string	""
	.string	"\377"
	.string	""
	.string	""
	.string	"\377\340\260"
	.string	"\377\340\260"
	.string	"\377\340\260"
	.string	"\377\340\260"
	.string	"\377"
	.string	""
	.string	""
	.string	"\377"
	.string	""
	.string	""
	.string	"\377"
	.string	""
	.string	""
	.string	"\377"
	.string	""
	.string	""
	.string	"\377"
	.string	""
	.string	""
	.string	"\377"
	.string	""
	.string	""
	.string	"\377"
	.string	""
	.string	""
	.string	"\377\340\260"
	.string	"\377\340\260"
	.string	"\377\340\260"
	.string	"\377\340\260"
	.string	"\377"
	.string	""
	.string	""
	.string	"\377\340\260"
	.string	"\377\340\260"
	.string	"\377\340\260"
	.string	"\377\340\260"
	.string	"\377\340\260"
	.string	"\377\340\260"
	.string	"\377\340\260"
	.string	"\377\340\260"
	.string	"\377\340\260"
	.string	"\377\340\260"
	.string	"\377\340\260"
	.string	"\377\340\260"
	.string	"\377\340\260"
	.string	"\377\340\260"
	.string	"\377"
	.string	""
	.string	""
	.string	"\377"
	.string	""
	.string	""
	.string	"\377"
	.string	""
	.string	""
	.string	"\377"
	.string	""
	.string	""
	.string	"\377"
	.string	""
	.string	""
	.string	"\377"
	.string	""
	.string	""
	.string	"\377"
	.string	""
	.string	""
	.string	"\377"
	.string	""
	.string	""
	.string	"\377"
	.string	""
	.string	""
	.string	"\377"
	.string	""
	.string	""
	.string	"\377"
	.string	""
	.string	""
	.string	"\377"
	.string	""
	.string	""
	.string	"\377\340\260"
	.string	"\377\340\260"
	.string	"\377\340\260"
	.string	"\377\340\260"
	.string	"\377"
	.string	""
	.string	""
	.string	"\377\340\260"
	.string	"\377\340\260"
	.string	"\377\340\260"
	.string	"\377\340\260"
	.string	"\377"
	.string	""
	.string	""
	.string	"\377"
	.string	""
	.string	""
	.string	"\377"
	.string	""
	.string	""
	.string	"\377"
	.string	""
	.string	""
	.string	"\377\340\260"
	.string	"\377\340\260"
	.string	"\377\340\260"
	.string	"\377\340\260"
	.string	"\377\340\260"
	.string	"\377"
	.string	""
	.string	""
	.string	"\377"
	.string	""
	.string	""
	.string	"\377"
	.string	""
	.string	""
	.string	"\377\340\260"
	.string	"\377\340\260"
	.string	"\377\340\260"
	.string	"\377\340\260"
	.string	"\377"
	.string	""
	.string	""
	.string	"\377"
	.string	""
	.string	""
	.string	"\377"
	.string	""
	.string	""
	.string	"\377"
	.string	""
	.string	""
	.string	"\377"
	.string	""
	.string	""
	.string	"\377"
	.string	""
	.string	""
	.string	"\377"
	.string	""
	.string	""
	.string	"\377"
	.string	""
	.string	""
	.string	"\377"
	.string	""
	.string	""
	.string	"\377"
	.string	""
	.string	""
	.string	"\377"
	.string	""
	.string	""
	.string	"\377"
	.string	""
	.string	""
	.string	"\377"
	.string	""
	.string	""
	.string	"\377\340\260"
	.string	"\377\340\260"
	.string	"\377\340\260"
	.string	"\377\340\260"
	.string	"\377\340\260"
	.string	"\377\340\260"
	.string	"\377\340\260"
	.string	"\377\340\260"
	.string	"\377\340\260"
	.string	"\377\340\260"
	.string	"\377\340\260"
	.string	"\377\340\260"
	.string	"\377\340\260"
	.string	"\377"
	.string	""
	.string	""
	.string	"\377"
	.string	""
	.string	""
	.string	"\377"
	.string	""
	.string	""
	.string	"\377\340\260"
	.string	"\377\340\260"
	.string	"\377\340\260"
	.string	"\377\340\260"
	.string	"\377\340\260"
	.string	"\377\340\260"
	.string	"\377\340\260"
	.string	"\377\340\260"
	.string	"\377\340\260"
	.string	"\377\340\260"
	.string	"\377\340\260"
	.string	"\377\340\260"
	.string	"\377\340\260"
	.string	"\377"
	.string	""
	.string	""
	.string	"\377"
	.string	""
	.string	""
	.string	"\377"
	.string	""
	.string	""
	.string	"\377\340\260"
	.string	"\377\340\260"
	.string	"\377\340\260"
	.string	"\377\340\260"
	.string	"\377\340\260"
	.string	"\377\340\260"
	.string	"\377\340\260"
	.ascii	"\377"
	.string	"\340\260"
	.string	"\377\340\260"
	.string	"\377\340\260"
	.string	"\377\340\260"
	.string	"\377\340\260"
	.string	"\377\340\260"
	.string	"\377"
	.string	""
	.string	""
	.string	"\377"
	.string	""
	.string	""
	.string	"\377\340\260"
	.string	"\377\340\260"
	.string	"\377\340\260"
	.string	"\377\340\260"
	.string	"\377\340\260"
	.string	"\377\340\260"
	.string	"\377\340\260"
	.string	"\377\340\260"
	.string	"\377\340\260"
	.string	"\377\340\260"
	.string	"\377\340\260"
	.string	"\377\340\260"
	.string	"\377\340\260"
	.string	"\377\340\260"
	.string	"\377"
	.string	""
	.string	""
	.string	"\377"
	.string	""
	.string	""
	.string	"\377"
	.string	""
	.string	""
	.string	"\377\340\260"
	.string	"\377\340\260"
	.string	"\377\340\260"
	.string	"\377\340\260"
	.string	"\377\340\260"
	.string	"\377\340\260"
	.string	"\377\340\260"
	.string	"\377\340\260"
	.string	"\377\340\260"
	.string	"\377\340\260"
	.string	"\377\340\260"
	.string	"\377\340\260"
	.string	"\377\340\260"
	.string	"\377"
	.string	""
	.string	""
	.string	"\377"
	.string	""
	.string	""
	.string	"\377\340\260"
	.string	"\377\340\260"
	.string	"\377\340\260"
	.string	"\377\340\260"
	.string	"\377\340\260"
	.string	"\377\340\260"
	.string	"\377\340\260"
	.string	"\377\340\260"
	.string	"\377\340\260"
	.string	"\377\340\260"
	.string	"\377\340\260"
	.string	"\377\340\260"
	.string	"\377\340\260"
	.string	"\377\340\260"
	.string	"\377"
	.string	""
	.string	""
	.string	"\377"
	.string	""
	.string	""
	.string	"\377"
	.string	""
	.string	""
	.string	"\377\340\260"
	.string	"\377\340\260"
	.string	"\377\340\260"
	.string	"\377\340\260"
	.string	"\377\340\260"
	.string	"\377\340\260"
	.string	"\377\340\260"
	.string	"\377\340\260"
	.string	"\377\340\260"
	.string	"\377\340\260"
	.string	"\377\340\260"
	.string	"\377\340\260"
	.string	"\377\340\260"
	.string	"\377"
	.string	""
	.string	""
	.string	"\377"
	.string	""
	.string	""
	.string	"\377\340\260"
	.string	"\377\340\260"
	.string	"\377\340\260"
	.string	"\377\340\260"
	.string	"\377\340\260"
	.string	"\377\340\260"
	.string	"\377\340\260"
	.string	"\377\340\260"
	.string	"\377\340\260"
	.string	"\377\340\260"
	.string	"\377\340\260"
	.string	"\377\340\260"
	.string	"\377\340\260"
	.string	"\377\340\260"
	.string	"\377"
	.string	""
	.string	""
	.string	"\377"
	.string	""
	.string	""
	.string	"\377\340\260"
	.string	"\377\340\260"
	.string	"\377\340\260"
	.string	"\377\340\260"
	.string	"\377"
	.string	""
	.string	""
	.string	"\377"
	.string	""
	.string	""
	.string	"\377"
	.string	""
	.string	""
	.string	"\377"
	.string	""
	.string	""
	.string	"\377"
	.string	""
	.string	""
	.string	"\377"
	.string	""
	.string	""
	.string	"\377"
	.string	""
	.string	""
	.string	"\377\340\260"
	.string	"\377\340\260"
	.string	"\377\340\260"
	.string	"\377\340\260"
	.string	"\377"
	.string	""
	.string	""
	.string	"\377"
	.string	""
	.string	""
	.string	"\377\340\260"
	.string	"\377\340\260"
	.string	"\377\340\260"
	.string	"\377\340\260"
	.string	"\377"
	.string	""
	.string	""
	.string	"\377"
	.string	""
	.string	""
	.string	"\377"
	.string	""
	.string	""
	.string	"\377"
	.string	""
	.string	""
	.string	"\377"
	.string	""
	.string	""
	.string	"\377\340\260"
	.string	"\377\340\260"
	.string	"\377\340\260"
	.string	"\377\340\260"
	.string	"\377"
	.string	""
	.string	""
	.string	"\377"
	.string	""
	.string	""
	.string	"\377\340\260"
	.string	"\377\340\260"
	.string	"\377\340\260"
	.string	"\377\340\260"
	.string	"\377"
	.string	""
	.string	""
	.string	"\377"
	.string	""
	.string	""
	.string	"\377"
	.string	""
	.string	""
	.string	"\377"
	.string	""
	.string	""
	.string	"\377"
	.string	""
	.string	""
	.string	"\377"
	.string	""
	.string	""
	.string	"\377"
	.string	""
	.string	""
	.string	"\377\340\260"
	.string	"\377\340\260"
	.string	"\377\340\260"
	.string	"\377\340\260"
	.string	"\377"
	.string	""
	.string	""
	.string	"\377"
	.string	""
	.string	""
	.string	"\377\340\260"
	.string	"\377\340\260"
	.string	"\377\340\260"
	.string	"\377\340\260"
	.string	"\377"
	.string	""
	.string	""
	.string	"\377"
	.string	""
	.string	""
	.string	"\377"
	.string	""
	.string	""
	.string	"\377"
	.string	""
	.string	""
	.string	"\377"
	.string	""
	.string	""
	.string	"\377\340\260"
	.string	"\377\340\260"
	.string	"\377\340\260"
	.string	"\377\340\260"
	.string	"\377"
	.string	""
	.string	""
	.string	"\377"
	.string	""
	.string	""
	.string	"\377\340\260"
	.string	"\377\340\260"
	.string	"\377\340\260"
	.string	"\377\340\260"
	.string	"\377"
	.string	""
	.string	""
	.string	"\377"
	.string	""
	.string	""
	.string	"\377"
	.string	""
	.string	""
	.string	"\377"
	.string	""
	.string	""
	.string	"\377"
	.string	""
	.string	""
	.string	"\377"
	.string	""
	.string	""
	.string	"\377"
	.string	""
	.string	""
	.string	"\377\340\260"
	.string	"\377\340\260"
	.string	"\377\340\260"
	.string	"\377\340\260"
	.string	"\377"
	.string	""
	.string	""
	.string	"\377\340\260"
	.string	"\377\340\260"
	.string	"\377\340\260"
	.string	"\377\340\260"
	.string	"\377\340\260"
	.string	"\377\340\260"
	.string	"\377\340\260"
	.string	"\377\340\260"
	.string	"\377\340\260"
	.string	"\377\340\260"
	.string	"\377\340\260"
	.string	"\377\340\260"
	.string	"\377\340\260"
	.string	"\377\340\260"
	.string	"\377\340\260"
	.string	"\377"
	.string	""
	.string	""
	.string	"\377"
	.string	""
	.string	""
	.string	"\377"
	.string	""
	.string	""
	.string	"\377"
	.string	""
	.string	""
	.string	"\377"
	.string	""
	.string	""
	.string	"\377"
	.string	""
	.string	""
	.string	"\377"
	.string	""
	.string	""
	.string	"\377"
	.string	""
	.string	""
	.string	"\377"
	.string	""
	.string	""
	.string	"\377"
	.string	""
	.string	""
	.string	"\377"
	.string	""
	.string	""
	.string	"\377"
	.string	""
	.string	""
	.string	"\377"
	.string	""
	.string	""
	.string	"\377"
	.string	""
	.string	""
	.string	"\377"
	.string	""
	.string	""
	.string	"\377"
	.string	""
	.string	""
	.string	"\377"
	.string	""
	.string	""
	.string	"\377"
	.string	""
	.string	""
	.string	"\377\340\260"
	.string	"\377\340\260"
	.string	"\377\340\260"
	.string	"\377\340\260"
	.string	"\377"
	.string	""
	.string	""
	.string	"\377"
	.string	""
	.string	""
	.string	"\377"
	.string	""
	.string	""
	.string	"\377"
	.string	""
	.string	""
	.string	"\377"
	.string	""
	.string	""
	.string	"\377"
	.string	""
	.string	""
	.string	"\377"
	.string	""
	.string	""
	.string	"\377\340\260"
	.string	"\377\340\260"
	.string	"\377\340\260"
	.string	"\377\340\260"
	.string	"\377"
	.string	""
	.string	""
	.string	"\377\340\260"
	.string	"\377\340\260"
	.string	"\377\340\260"
	.string	"\377\340\260"
	.string	"\377\340\260"
	.string	"\377\340\260"
	.string	"\377\340\260"
	.string	"\377\340\260"
	.string	"\377\340\260"
	.string	"\377\340\260"
	.string	"\377\340\260"
	.string	"\377\340\260"
	.string	"\377\340\260"
	.string	"\377\340\260"
	.string	"\377"
	.string	""
	.string	""
	.string	"\377"
	.string	""
	.string	""
	.string	"\377"
	.string	""
	.string	""
	.string	"\377"
	.string	""
	.string	""
	.string	"\377"
	.string	""
	.string	""
	.string	"\377"
	.string	""
	.string	""
	.string	"\377"
	.string	""
	.string	""
	.string	"\377"
	.string	""
	.string	""
	.string	"\377"
	.string	""
	.string	""
	.string	"\377"
	.string	""
	.string	""
	.string	"\377"
	.string	""
	.string	""
	.string	"\377"
	.string	""
	.string	""
	.string	"\377\340\260"
	.string	"\377\340\260"
	.string	"\377\340\260"
	.string	"\377\340\260"
	.string	"\377"
	.string	""
	.string	""
	.string	"\377\340\260"
	.string	"\377\340\260"
	.string	"\377\340\260"
	.string	"\377\340\260"
	.string	"\377"
	.string	""
	.string	""
	.string	"\377"
	.string	""
	.string	""
	.string	"\377"
	.string	""
	.string	""
	.string	"\377\340\260"
	.string	"\377\340\260"
	.string	"\377\340\260"
	.string	"\377\340\260"
	.string	"\377\340\260"
	.string	"\377"
	.string	""
	.string	""
	.string	"\377"
	.string	""
	.string	""
	.string	"\377"
	.string	""
	.string	""
	.string	"\377"
	.string	""
	.string	""
	.string	"\377\340\260"
	.string	"\377\340\260"
	.string	"\377\340\260"
	.string	"\377\340\260"
	.string	"\377"
	.string	""
	.string	""
	.string	"\377"
	.string	""
	.string	""
	.string	"\377"
	.string	""
	.string	""
	.string	"\377"
	.string	""
	.string	""
	.string	"\377"
	.string	""
	.string	""
	.string	"\377"
	.string	""
	.string	""
	.string	"\377"
	.string	""
	.string	""
	.string	"\377"
	.string	""
	.string	""
	.string	"\377"
	.string	""
	.string	""
	.string	"\377"
	.string	""
	.string	""
	.string	"\377"
	.string	""
	.string	""
	.string	"\377"
	.string	""
	.string	""
	.string	"\377"
	.string	""
	.string	""
	.string	"\377\340\260"
	.string	"\377\340\260"
	.string	"\377\340\260"
	.string	"\377\340\260"
	.string	"\377\340\260"
	.string	"\377\340\260"
	.string	"\377\340\260"
	.string	"\377\340\260"
	.string	"\377\340\260"
	.string	"\377\340\260"
	.string	"\377\340\260"
	.string	"\377\340\260"
	.string	"\377\340\260"
	.string	"\377"
	.string	""
	.string	""
	.string	"\377"
	.string	""
	.string	""
	.string	"\377"
	.string	""
	.string	""
	.string	"\377\340\260"
	.string	"\377\340\260"
	.string	"\377\340\260"
	.string	"\377\340\260"
	.string	"\377\340\260"
	.string	"\377\340\260"
	.string	"\377\340\260"
	.string	"\377\340\260"
	.string	"\377\340\260"
	.string	"\377\340\260"
	.string	"\377\340\260"
	.string	"\377\340\260"
	.string	"\377\340\260"
	.string	"\377"
	.string	""
	.string	""
	.string	"\377"
	.string	""
	.string	""
	.string	"\377"
	.string	""
	.string	""
	.string	"\377\340\260"
	.string	"\377\340\260"
	.string	"\377\340\260"
	.string	"\377\340\260"
	.string	"\377\340\260"
	.string	"\377\340\260"
	.string	"\377\340\260"
	.string	"\377\340\260"
	.string	"\377\340\260"
	.string	"\377\340\260"
	.string	"\377\340\260"
	.string	"\377\340\260"
	.string	"\377\340\260"
	.string	"\377"
	.string	""
	.string	""
	.string	"\377"
	.string	""
	.string	""
	.string	"\377\340\260"
	.string	"\377\340\260"
	.string	"\377\340\260"
	.string	"\377\340\260"
	.string	"\377\340\260"
	.string	"\377\340\260"
	.string	"\377\340\260"
	.string	"\377\340\260"
	.string	"\377\340\260"
	.string	"\377\340\260"
	.string	"\377\340\260"
	.string	"\377\340\260"
	.string	"\377\340\260"
	.string	"\377\340\260"
	.string	"\377"
	.string	""
	.string	""
	.string	"\377"
	.string	""
	.string	""
	.string	"\377"
	.string	""
	.string	""
	.string	"\377\340\260"
	.string	"\377\340\260"
	.string	"\377\340\260"
	.string	"\377\340\260"
	.string	"\377\340\260"
	.string	"\377\340\260"
	.string	"\377\340\260"
	.string	"\377\340\260"
	.string	"\377\340\260"
	.string	"\377\340\260"
	.string	"\377\340\260"
	.string	"\377\340\260"
	.string	"\377\340\260"
	.string	"\377"
	.string	""
	.string	""
	.string	"\377"
	.string	""
	.string	""
	.string	"\377\340\260"
	.string	"\377\340\260"
	.string	"\377\340\260"
	.string	"\377\340\260"
	.string	"\377\340\260"
	.string	"\377\340\260"
	.string	"\377\340\260"
	.string	"\377\340\260"
	.string	"\377\340\260"
	.string	"\377\340\260"
	.string	"\377\340\260"
	.string	"\377\340\260"
	.string	"\377\340\260"
	.string	"\377\340\260"
	.string	"\377"
	.string	""
	.string	""
	.string	"\377"
	.string	""
	.string	""
	.string	"\377"
	.string	""
	.string	""
	.string	"\377\340\260"
	.string	"\377\340\260"
	.string	"\377\340\260"
	.string	"\377\340\260"
	.string	"\377\340\260"
	.string	"\377\340\260"
	.string	"\377\340\260"
	.string	"\377\340\260"
	.string	"\377\340\260"
	.string	"\377\340\260"
	.string	"\377\340\260"
	.string	"\377\340\260"
	.string	"\377\340\260"
	.string	"\377\340\260"
	.string	"\377"
	.string	""
	.string	""
	.string	"\377\340\260"
	.string	"\377\340\260"
	.string	"\377\340\260"
	.string	"\377\340\260"
	.string	"\377\340\260"
	.string	"\377\340\260"
	.string	"\377\340\260"
	.string	"\377\340\260"
	.string	"\377\340\260"
	.string	"\377\340\260"
	.string	"\377\340\260"
	.string	"\377\340\260"
	.string	"\377\340\260"
	.string	"\377\340\260"
	.string	"\377"
	.string	""
	.string	""
	.string	"\377"
	.string	""
	.string	""
	.string	"\377\340\260"
	.string	"\377\340\260"
	.string	"\377\340\260"
	.string	"\377\340\260"
	.string	"\377"
	.string	""
	.string	""
	.string	"\377"
	.string	""
	.string	""
	.string	"\377"
	.string	""
	.string	""
	.string	"\377"
	.string	""
	.string	""
	.string	"\377"
	.string	""
	.string	""
	.string	"\377"
	.string	""
	.string	""
	.string	"\377"
	.string	""
	.string	""
	.string	"\377\340\260"
	.string	"\377\340\260"
	.string	"\377\340\260"
	.string	"\377\340\260"
	.string	"\377"
	.string	""
	.string	""
	.string	"\377"
	.string	""
	.string	""
	.string	"\377\340\260"
	.string	"\377\340\260"
	.string	"\377\340\260"
	.string	"\377\340\260"
	.string	"\377"
	.string	""
	.string	""
	.string	"\377"
	.string	""
	.string	""
	.string	"\377"
	.string	""
	.string	""
	.string	"\377"
	.string	""
	.string	""
	.string	"\377"
	.string	""
	.string	""
	.string	"\377\340\260"
	.string	"\377\340\260"
	.string	"\377\340\260"
	.string	"\377\340\260"
	.string	"\377"
	.string	""
	.string	""
	.string	"\377"
	.string	""
	.string	""
	.string	"\377\340\260"
	.string	"\377\340\260"
	.string	"\377\340\260"
	.string	"\377\340\260"
	.string	"\377"
	.string	""
	.string	""
	.string	"\377"
	.string	""
	.string	""
	.string	"\377"
	.string	""
	.string	""
	.string	"\377"
	.string	""
	.string	""
	.string	"\377"
	.string	""
	.string	""
	.string	"\377"
	.string	""
	.string	""
	.string	"\377"
	.string	""
	.string	""
	.string	"\377\340\260"
	.string	"\377\340\260"
	.string	"\377\340\260"
	.string	"\377\340\260"
	.string	"\377"
	.string	""
	.string	""
	.string	"\377"
	.string	""
	.string	""
	.string	"\377"
	.string	""
	.string	""
	.string	"\377\340\260"
	.string	"\377\340\260"
	.string	"\377\340\260"
	.string	"\377\340\260"
	.string	"\377"
	.string	""
	.string	""
	.string	"\377"
	.string	""
	.string	""
	.string	"\377"
	.string	""
	.string	""
	.string	"\377\340\260"
	.string	"\377\340\260"
	.string	"\377\340\260"
	.string	"\377\340\260"
	.string	"\377"
	.string	""
	.string	""
	.string	"\377"
	.string	""
	.string	""
	.string	"\377"
	.string	""
	.string	""
	.string	"\377\340\260"
	.string	"\377\340\260"
	.string	"\377\340\260"
	.string	"\377\340\260"
	.string	"\377"
	.string	""
	.string	""
	.string	"\377"
	.string	""
	.string	""
	.string	"\377"
	.string	""
	.string	""
	.string	"\377"
	.string	""
	.string	""
	.string	"\377"
	.string	""
	.string	""
	.string	"\377"
	.string	""
	.string	""
	.string	"\377"
	.string	""
	.string	""
	.string	"\377\340\260"
	.string	"\377\340\260"
	.string	"\377\340\260"
	.string	"\377\340\260"
	.string	"\377"
	.string	""
	.string	""
	.string	"\377\340\260"
	.string	"\377\340\260"
	.string	"\377\340\260"
	.string	"\377\340\260"
	.string	"\377\340\260"
	.string	"\377\340\260"
	.string	"\377\340\260"
	.string	"\377\340\260"
	.string	"\377\340\260"
	.string	"\377\340\260"
	.string	"\377\340\260"
	.string	"\377\340\260"
	.ascii	"\377"
	.string	"\340\260"
	.string	"\377\340\260"
	.string	"\377"
	.string	""
	.string	""
	.string	"\377"
	.string	""
	.string	""
	.string	"\377"
	.string	""
	.string	""
	.string	"\377"
	.string	""
	.string	""
	.string	"\377"
	.string	""
	.string	""
	.string	"\377"
	.string	""
	.string	""
	.string	"\377"
	.string	""
	.string	""
	.string	"\377"
	.string	""
	.string	""
	.string	"\377"
	.string	""
	.string	""
	.string	"\377"
	.string	""
	.string	""
	.string	"\377"
	.string	""
	.string	""
	.string	"\377"
	.string	""
	.string	""
	.string	"\377"
	.string	""
	.string	""
	.string	"\377"
	.string	""
	.string	""
	.string	"\377"
	.string	""
	.string	""
	.string	"\377"
	.string	""
	.string	""
	.string	"\377"
	.string	""
	.string	""
	.string	"\377"
	.string	""
	.string	""
	.string	"\377"
	.string	""
	.string	""
	.string	"\377\340\260"
	.string	"\377\340\260"
	.string	"\377\340\260"
	.string	"\377\340\260"
	.string	"\377"
	.string	""
	.string	""
	.string	"\377"
	.string	""
	.string	""
	.string	"\377"
	.string	""
	.string	""
	.string	"\377"
	.string	""
	.string	""
	.string	"\377"
	.string	""
	.string	""
	.string	"\377"
	.string	""
	.string	""
	.string	"\377"
	.string	""
	.string	""
	.string	"\377\340\260"
	.string	"\377\340\260"
	.string	"\377\340\260"
	.string	"\377\340\260"
	.string	"\377"
	.string	""
	.string	""
	.string	"\377"
	.string	""
	.string	""
	.string	"\377"
	.string	""
	.string	""
	.string	"\377"
	.string	""
	.string	""
	.string	"\377"
	.string	""
	.string	""
	.string	"\377"
	.string	""
	.string	""
	.string	"\377\340\260"
	.string	"\377\340\260"
	.string	"\377\340\260"
	.string	"\377\340\260"
	.string	"\377"
	.string	""
	.string	""
	.string	"\377"
	.string	""
	.string	""
	.string	"\377"
	.string	""
	.string	""
	.string	"\377"
	.string	""
	.string	""
	.string	"\377"
	.string	""
	.string	""
	.string	"\377"
	.string	""
	.string	""
	.string	"\377"
	.string	""
	.string	""
	.string	"\377"
	.string	""
	.string	""
	.string	"\377"
	.string	""
	.string	""
	.string	"\377"
	.string	""
	.string	""
	.string	"\377"
	.string	""
	.string	""
	.string	"\377"
	.string	""
	.string	""
	.string	"\377"
	.string	""
	.string	""
	.string	"\377"
	.string	""
	.string	""
	.string	"\377"
	.string	""
	.string	""
	.string	"\377"
	.string	""
	.string	""
	.string	"\377"
	.string	""
	.string	""
	.string	"\377\340\260"
	.string	"\377\340\260"
	.string	"\377\340\260"
	.string	"\377\340\260"
	.string	"\377"
	.string	""
	.string	""
	.string	"\377\340\260"
	.string	"\377\340\260"
	.string	"\377\340\260"
	.string	"\377\340\260"
	.string	"\377"
	.string	""
	.string	""
	.string	"\377"
	.string	""
	.string	""
	.string	"\377\340\260"
	.string	"\377\340\260"
	.string	"\377\340\260"
	.string	"\377\340\260"
	.string	"\377\340\260"
	.string	"\377"
	.string	""
	.string	""
	.string	"\377"
	.string	""
	.string	""
	.string	"\377"
	.string	""
	.string	""
	.string	"\377"
	.string	""
	.string	""
	.string	"\377"
	.string	""
	.string	""
	.string	"\377\340\260"
	.string	"\377\340\260"
	.string	"\377\340\260"
	.string	"\377\340\260"
	.string	"\377"
	.string	""
	.string	""
	.string	"\377"
	.string	""
	.string	""
	.string	"\377"
	.string	""
	.string	""
	.string	"\377"
	.string	""
	.string	""
	.string	"\377"
	.string	""
	.string	""
	.string	"\377"
	.string	""
	.string	""
	.string	"\377"
	.string	""
	.string	""
	.string	"\377"
	.string	""
	.string	""
	.string	"\377"
	.string	""
	.string	""
	.string	"\377"
	.string	""
	.string	""
	.string	"\377"
	.string	""
	.string	""
	.string	"\377"
	.string	""
	.string	""
	.string	"\377\340\260"
	.string	"\377\340\260"
	.string	"\377\340\260"
	.string	"\377\340\260"
	.string	"\377\340\260"
	.string	"\377"
	.string	""
	.string	""
	.string	"\377\340\260"
	.string	"\377\340\260"
	.string	"\377\340\260"
	.string	"\377"
	.string	""
	.string	""
	.string	"\377\340\260"
	.string	"\377\340\260"
	.string	"\377\340\260"
	.string	"\377\340\260"
	.string	"\377\340\260"
	.string	"\377"
	.string	""
	.string	""
	.string	"\377\340\260"
	.string	"\377\340\260"
	.string	"\377\340\260"
	.string	"\377\340\260"
	.string	"\377\340\260"
	.string	"\377"
	.string	""
	.string	""
	.string	"\377"
	.string	""
	.string	""
	.string	"\377"
	.string	""
	.string	""
	.string	"\377"
	.string	""
	.string	""
	.string	"\377"
	.string	""
	.string	""
	.string	"\377\340\260"
	.string	"\377\340\260"
	.string	"\377\340\260"
	.string	"\377\340\260"
	.string	"\377\340\260"
	.string	"\377"
	.string	""
	.string	""
	.string	"\377\340\260"
	.string	"\377\340\260"
	.string	"\377\340\260"
	.string	"\377\340\260"
	.string	"\377\340\260"
	.string	"\377"
	.string	""
	.string	""
	.string	"\377"
	.string	""
	.string	""
	.string	"\377"
	.string	""
	.string	""
	.string	"\377"
	.string	""
	.string	""
	.string	"\377"
	.string	""
	.string	""
	.string	"\377\340\260"
	.string	"\377\340\260"
	.string	"\377\340\260"
	.string	"\377\340\260"
	.string	"\377\340\260"
	.string	"\377"
	.string	""
	.string	""
	.string	"\377\340\260"
	.string	"\377\340\260"
	.string	"\377\340\260"
	.string	"\377\340\260"
	.string	"\377"
	.string	""
	.string	""
	.string	"\377"
	.string	""
	.string	""
	.string	"\377"
	.string	""
	.string	""
	.string	"\377"
	.string	""
	.string	""
	.string	"\377"
	.string	""
	.string	""
	.string	"\377"
	.string	""
	.string	""
	.string	"\377\340\260"
	.string	"\377\340\260"
	.string	"\377\340\260"
	.string	"\377\340\260"
	.string	"\377\340\260"
	.string	"\377"
	.string	""
	.string	""
	.string	"\377\340\260"
	.string	"\377\340\260"
	.string	"\377\340\260"
	.string	"\377\340\260"
	.string	"\377\340\260"
	.string	"\377"
	.string	""
	.string	""
	.string	"\377"
	.string	""
	.string	""
	.string	"\377"
	.string	""
	.string	""
	.string	"\377"
	.string	""
	.string	""
	.string	"\377"
	.string	""
	.string	""
	.string	"\377\340\260"
	.string	"\377\340\260"
	.string	"\377\340\260"
	.string	"\377\340\260"
	.string	"\377\340\260"
	.string	"\377"
	.string	""
	.string	""
	.string	"\377\340\260"
	.string	"\377\340\260"
	.string	"\377\340\260"
	.string	"\377\340\260"
	.string	"\377"
	.string	""
	.string	""
	.string	"\377"
	.string	""
	.string	""
	.string	"\377"
	.string	""
	.string	""
	.string	"\377"
	.string	""
	.string	""
	.string	"\377"
	.string	""
	.string	""
	.string	"\377"
	.string	""
	.string	""
	.string	"\377\340\260"
	.string	"\377\340\260"
	.string	"\377\340\260"
	.string	"\377\340\260"
	.string	"\377\340\260"
	.string	"\377"
	.string	""
	.string	""
	.string	"\377\340\260"
	.string	"\377\340\260"
	.string	"\377\340\260"
	.string	"\377\340\260"
	.string	"\377"
	.string	""
	.string	""
	.string	"\377"
	.string	""
	.string	""
	.string	"\377"
	.string	""
	.string	""
	.string	"\377"
	.string	""
	.string	""
	.string	"\377"
	.string	""
	.string	""
	.string	"\377"
	.string	""
	.string	""
	.string	"\377"
	.string	""
	.string	""
	.string	"\377\340\260"
	.string	"\377\340\260"
	.string	"\377\340\260"
	.string	"\377\340\260"
	.string	"\377"
	.string	""
	.string	""
	.string	"\377"
	.string	""
	.string	""
	.string	"\377"
	.string	""
	.string	""
	.string	"\377"
	.string	""
	.string	""
	.string	"\377"
	.string	""
	.string	""
	.string	"\377"
	.string	""
	.string	""
	.string	"\377"
	.string	""
	.string	""
	.string	"\377"
	.string	""
	.string	""
	.string	"\377"
	.string	""
	.string	""
	.string	"\377"
	.string	""
	.string	""
	.string	"\377"
	.string	""
	.string	""
	.string	"\377\340\260"
	.string	"\377\340\260"
	.string	"\377\340\260"
	.string	"\377\340\260"
	.string	"\377\340\260"
	.string	"\377"
	.string	""
	.string	""
	.string	"\377\340\260"
	.string	"\377\340\260"
	.string	"\377\340\260"
	.string	"\377\340\260"
	.string	"\377"
	.string	""
	.string	""
	.string	"\377"
	.string	""
	.string	""
	.string	"\377"
	.string	""
	.string	""
	.string	"\377"
	.string	""
	.string	""
	.string	"\377"
	.string	""
	.string	""
	.string	"\377"
	.string	""
	.string	""
	.string	"\377"
	.string	""
	.string	""
	.string	"\377\340\260"
	.string	"\377\340\260"
	.string	"\377\340\260"
	.string	"\377\340\260"
	.string	"\377"
	.string	""
	.string	""
	.string	"\377"
	.string	""
	.string	""
	.string	"\377"
	.string	""
	.string	""
	.string	"\377\340\260"
	.string	"\377\340\260"
	.string	"\377\340\260"
	.string	"\377"
	.string	""
	.string	""
	.string	"\377"
	.string	""
	.string	""
	.string	"\377"
	.string	""
	.string	""
	.string	"\377"
	.string	""
	.string	""
	.string	"\377"
	.string	""
	.string	""
	.string	"\377\340\260"
	.string	"\377\340\260"
	.string	"\377\340\260"
	.string	"\377\340\260"
	.string	"\377"
	.string	""
	.string	""
	.string	"\377"
	.string	""
	.string	""
	.string	"\377\340\260"
	.string	"\377\340\260"
	.string	"\377\340\260"
	.string	"\377\340\260"
	.string	"\377"
	.string	""
	.string	""
	.string	"\377"
	.string	""
	.string	""
	.string	"\377"
	.string	""
	.string	""
	.string	"\377"
	.string	""
	.string	""
	.string	"\377"
	.string	""
	.string	""
	.string	"\377"
	.string	""
	.string	""
	.string	"\377"
	.string	""
	.string	""
	.string	"\377\340\260"
	.string	"\377\340\260"
	.string	"\377\340\260"
	.string	"\377\340\260"
	.string	"\377"
	.string	""
	.string	""
	.string	"\377"
	.string	""
	.string	""
	.string	"\377"
	.string	""
	.string	""
	.string	"\377"
	.string	""
	.string	""
	.string	"\377\340\260"
	.string	"\377\340\260"
	.string	"\377\340\260"
	.string	"\377\340\260"
	.string	"\377"
	.string	""
	.string	""
	.string	"\377\340\260"
	.string	"\377\340\260"
	.string	"\377\340\260"
	.string	"\377\340\260"
	.string	"\377"
	.string	""
	.string	""
	.string	"\377"
	.string	""
	.string	""
	.string	"\377"
	.string	""
	.string	""
	.string	"\377"
	.string	""
	.string	""
	.string	"\377\340\260"
	.string	"\377\340\260"
	.string	"\377\340\260"
	.string	"\377\340\260"
	.string	"\377"
	.string	""
	.string	""
	.string	"\377"
	.string	""
	.string	""
	.string	"\377"
	.string	""
	.string	""
	.string	"\377"
	.string	""
	.string	""
	.string	"\377"
	.string	""
	.string	""
	.string	"\377"
	.string	""
	.string	""
	.string	"\377"
	.string	""
	.string	""
	.string	"\377\340\260"
	.string	"\377\340\260"
	.string	"\377\340\260"
	.string	"\377\340\260"
	.string	"\377"
	.string	""
	.string	""
	.string	"\377"
	.string	""
	.string	""
	.string	"\377"
	.string	""
	.string	""
	.string	"\377"
	.string	""
	.string	""
	.string	"\377"
	.string	""
	.string	""
	.string	"\377"
	.string	""
	.string	""
	.string	"\377"
	.string	""
	.string	""
	.string	"\377"
	.string	""
	.string	""
	.string	"\377"
	.string	""
	.string	""
	.string	"\377\340\260"
	.string	"\377\340\260"
	.string	"\377\340\260"
	.string	"\377\340\260"
	.string	"\377\340\260"
	.string	"\377\340\260"
	.string	"\377"
	.string	""
	.string	""
	.string	"\377"
	.string	""
	.string	""
	.string	"\377"
	.string	""
	.string	""
	.string	"\377"
	.string	""
	.string	""
	.string	"\377"
	.string	""
	.string	""
	.string	"\377"
	.string	""
	.string	""
	.string	"\377"
	.string	""
	.string	""
	.string	"\377"
	.string	""
	.string	""
	.string	"\377"
	.string	""
	.string	""
	.string	"\377"
	.string	""
	.string	""
	.string	"\377"
	.string	""
	.string	""
	.string	"\377"
	.string	""
	.string	""
	.string	"\377"
	.string	""
	.string	""
	.string	"\377"
	.string	""
	.string	""
	.string	"\377"
	.string	""
	.string	""
	.string	"\377"
	.string	""
	.string	""
	.string	"\377"
	.string	""
	.string	""
	.string	"\377"
	.string	""
	.string	""
	.string	"\377"
	.string	""
	.string	""
	.string	"\377\340\260"
	.string	"\377\340\260"
	.string	"\377\340\260"
	.string	"\377\340\260"
	.string	"\377"
	.string	""
	.string	""
	.string	"\377"
	.string	""
	.string	""
	.string	"\377"
	.string	""
	.string	""
	.string	"\377"
	.string	""
	.string	""
	.string	"\377"
	.string	""
	.string	""
	.string	"\377"
	.string	""
	.string	""
	.string	"\377"
	.string	""
	.string	""
	.string	"\377\340\260"
	.string	"\377\340\260"
	.string	"\377\340\260"
	.string	"\377\340\260"
	.string	"\377"
	.string	""
	.string	""
	.string	"\377"
	.string	""
	.string	""
	.string	"\377"
	.string	""
	.string	""
	.string	"\377"
	.string	""
	.string	""
	.string	"\377"
	.string	""
	.string	""
	.string	"\377"
	.string	""
	.string	""
	.string	"\377\340\260"
	.string	"\377\340\260"
	.string	"\377\340\260"
	.string	"\377\340\260"
	.string	"\377"
	.string	""
	.string	""
	.string	"\377"
	.string	""
	.string	""
	.string	"\377"
	.string	""
	.string	""
	.string	"\377"
	.string	""
	.string	""
	.string	"\377"
	.string	""
	.string	""
	.string	"\377"
	.string	""
	.string	""
	.string	"\377"
	.string	""
	.string	""
	.string	"\377"
	.string	""
	.string	""
	.string	"\377"
	.string	""
	.string	""
	.string	"\377"
	.string	""
	.string	""
	.string	"\377"
	.string	""
	.string	""
	.string	"\377"
	.string	""
	.string	""
	.string	"\377"
	.string	""
	.string	""
	.string	"\377"
	.string	""
	.string	""
	.string	"\377"
	.string	""
	.string	""
	.string	"\377"
	.string	""
	.string	""
	.string	"\377"
	.string	""
	.string	""
	.string	"\377\340\260"
	.string	"\377\340\260"
	.string	"\377\340\260"
	.string	"\377\340\260"
	.string	"\377"
	.string	""
	.string	""
	.string	"\377\340\260"
	.string	"\377\340\260"
	.string	"\377\340\260"
	.string	"\377\340\260"
	.string	"\377"
	.string	""
	.string	""
	.string	"\377\340\260"
	.string	"\377\340\260"
	.string	"\377\340\260"
	.string	"\377\340\260"
	.string	"\377\340\260"
	.string	"\377"
	.string	""
	.string	""
	.string	"\377"
	.string	""
	.string	""
	.string	"\377"
	.string	""
	.string	""
	.string	"\377"
	.string	""
	.string	""
	.string	"\377"
	.string	""
	.string	""
	.string	"\377"
	.string	""
	.string	""
	.string	"\377\340\260"
	.string	"\377\340\260"
	.string	"\377\340\260"
	.string	"\377\340\260"
	.string	"\377"
	.string	""
	.string	""
	.string	"\377"
	.string	""
	.string	""
	.string	"\377"
	.string	""
	.string	""
	.string	"\377"
	.string	""
	.string	""
	.string	"\377"
	.string	""
	.string	""
	.string	"\377"
	.string	""
	.string	""
	.string	"\377"
	.string	""
	.string	""
	.string	"\377"
	.string	""
	.string	""
	.string	"\377"
	.string	""
	.string	""
	.string	"\377"
	.string	""
	.string	""
	.string	"\377"
	.string	""
	.string	""
	.string	"\377"
	.string	""
	.string	""
	.string	"\377\340\260"
	.string	"\377\340\260"
	.string	"\377\340\260"
	.string	"\377\340\260"
	.string	"\377"
	.string	""
	.string	""
	.string	"\377"
	.string	""
	.string	""
	.string	"\377\340\260"
	.string	"\377\340\260"
	.string	"\377\340\260"
	.string	"\377"
	.string	""
	.string	""
	.string	"\377"
	.string	""
	.string	""
	.string	"\377\340\260"
	.string	"\377\340\260"
	.string	"\377\340\260"
	.string	"\377\340\260"
	.string	"\377"
	.string	""
	.string	""
	.string	"\377\340\260"
	.string	"\377\340\260"
	.string	"\377\340\260"
	.string	"\377\340\260"
	.string	"\377"
	.string	""
	.string	""
	.string	"\377"
	.string	""
	.string	""
	.string	"\377"
	.string	""
	.string	""
	.string	"\377"
	.string	""
	.string	""
	.string	"\377"
	.string	""
	.string	""
	.string	"\377"
	.string	""
	.string	""
	.string	"\377"
	.string	""
	.string	""
	.string	"\377\340\260"
	.string	"\377\340\260"
	.string	"\377\340\260"
	.string	"\377\340\260"
	.string	"\377"
	.string	""
	.string	""
	.string	"\377\340\260"
	.string	"\377\340\260"
	.string	"\377\340\260"
	.string	"\377\340\260"
	.string	"\377"
	.string	""
	.string	""
	.string	"\377"
	.string	""
	.string	""
	.string	"\377"
	.string	""
	.string	""
	.string	"\377"
	.string	""
	.string	""
	.string	"\377"
	.string	""
	.string	""
	.string	"\377"
	.string	""
	.string	""
	.string	"\377"
	.string	""
	.string	""
	.string	"\377\340\260"
	.string	"\377\340\260"
	.string	"\377\340\260"
	.string	"\377\340\260"
	.string	"\377"
	.string	""
	.string	""
	.string	"\377\340\260"
	.string	"\377\340\260"
	.string	"\377\340\260"
	.string	"\377\340\260"
	.string	"\377"
	.string	""
	.string	""
	.string	"\377"
	.string	""
	.string	""
	.string	"\377"
	.string	""
	.string	""
	.string	"\377"
	.string	""
	.string	""
	.string	"\377"
	.string	""
	.string	""
	.string	"\377"
	.string	""
	.string	""
	.string	"\377"
	.string	""
	.string	""
	.string	"\377\340\260"
	.string	"\377\340\260"
	.string	"\377\340\260"
	.string	"\377\340\260"
	.string	"\377"
	.string	""
	.string	""
	.string	"\377\340\260"
	.string	"\377\340\260"
	.string	"\377\340\260"
	.string	"\377\340\260"
	.string	"\377"
	.string	""
	.string	""
	.string	"\377"
	.string	""
	.string	""
	.string	"\377"
	.string	""
	.string	""
	.string	"\377"
	.string	""
	.string	""
	.string	"\377"
	.string	""
	.string	""
	.string	"\377"
	.string	""
	.string	""
	.string	"\377"
	.string	""
	.string	""
	.string	"\377\340\260"
	.string	"\377\340\260"
	.string	"\377\340\260"
	.string	"\377\340\260"
	.string	"\377"
	.string	""
	.string	""
	.ascii	"\377"
	.string	"\340\260"
	.string	"\377\340\260"
	.string	"\377\340\260"
	.string	"\377\340\260"
	.string	"\377"
	.string	""
	.string	""
	.string	"\377"
	.string	""
	.string	""
	.string	"\377"
	.string	""
	.string	""
	.string	"\377"
	.string	""
	.string	""
	.string	"\377"
	.string	""
	.string	""
	.string	"\377"
	.string	""
	.string	""
	.string	"\377"
	.string	""
	.string	""
	.string	"\377\340\260"
	.string	"\377\340\260"
	.string	"\377\340\260"
	.string	"\377\340\260"
	.string	"\377"
	.string	""
	.string	""
	.string	"\377\340\260"
	.string	"\377\340\260"
	.string	"\377\340\260"
	.string	"\377\340\260"
	.string	"\377"
	.string	""
	.string	""
	.string	"\377"
	.string	""
	.string	""
	.string	"\377"
	.string	""
	.string	""
	.string	"\377"
	.string	""
	.string	""
	.string	"\377"
	.string	""
	.string	""
	.string	"\377"
	.string	""
	.string	""
	.string	"\377"
	.string	""
	.string	""
	.string	"\377"
	.string	""
	.string	""
	.string	"\377"
	.string	""
	.string	""
	.string	"\377"
	.string	""
	.string	""
	.string	"\377"
	.string	""
	.string	""
	.string	"\377"
	.string	""
	.string	""
	.string	"\377"
	.string	""
	.string	""
	.string	"\377"
	.string	""
	.string	""
	.string	"\377"
	.string	""
	.string	""
	.string	"\377"
	.string	""
	.string	""
	.string	"\377"
	.string	""
	.string	""
	.string	"\377"
	.string	""
	.string	""
	.string	"\377"
	.string	""
	.string	""
	.string	"\377"
	.string	""
	.string	""
	.string	"\377"
	.string	""
	.string	""
	.string	"\377"
	.string	""
	.string	""
	.string	"\377"
	.string	""
	.string	""
	.string	"\377\340\260"
	.string	"\377\340\260"
	.string	"\377\340\260"
	.string	"\377\340\260"
	.string	"\377"
	.string	""
	.string	""
	.string	"\377\340\260"
	.string	"\377\340\260"
	.string	"\377\340\260"
	.string	"\377\340\260"
	.string	"\377"
	.string	""
	.string	""
	.string	"\377"
	.string	""
	.string	""
	.string	"\377"
	.string	""
	.string	""
	.string	"\377"
	.string	""
	.string	""
	.string	"\377"
	.string	""
	.string	""
	.string	"\377"
	.string	""
	.string	""
	.string	"\377"
	.string	""
	.string	""
	.string	"\377\340\260"
	.string	"\377\340\260"
	.string	"\377\340\260"
	.string	"\377\340\260"
	.string	"\377"
	.string	""
	.string	""
	.string	"\377"
	.string	""
	.string	""
	.string	"\377"
	.string	""
	.string	""
	.string	"\377\340\260"
	.string	"\377\340\260"
	.string	"\377\340\260"
	.string	"\377\340\260"
	.string	"\377"
	.string	""
	.string	""
	.string	"\377"
	.string	""
	.string	""
	.string	"\377"
	.string	""
	.string	""
	.string	"\377"
	.string	""
	.string	""
	.string	"\377\340\260"
	.string	"\377\340\260"
	.string	"\377\340\260"
	.string	"\377"
	.string	""
	.string	""
	.string	"\377"
	.string	""
	.string	""
	.string	"\377"
	.string	""
	.string	""
	.string	"\377\340\260"
	.string	"\377\340\260"
	.string	"\377\340\260"
	.string	"\377\340\260"
	.string	"\377"
	.string	""
	.string	""
	.string	"\377"
	.string	""
	.string	""
	.string	"\377"
	.string	""
	.string	""
	.string	"\377"
	.string	""
	.string	""
	.string	"\377"
	.string	""
	.string	""
	.string	"\377"
	.string	""
	.string	""
	.string	"\377"
	.string	""
	.string	""
	.string	"\377\340\260"
	.string	"\377\340\260"
	.string	"\377\340\260"
	.string	"\377\340\260"
	.string	"\377"
	.string	""
	.string	""
	.string	"\377"
	.string	""
	.string	""
	.string	"\377"
	.string	""
	.string	""
	.string	"\377"
	.string	""
	.string	""
	.string	"\377"
	.string	""
	.string	""
	.string	"\377\340\260"
	.string	"\377\340\260"
	.string	"\377\340\260"
	.string	"\377\340\260"
	.string	"\377\340\260"
	.string	"\377\340\260"
	.string	"\377\340\260"
	.string	"\377"
	.string	""
	.string	""
	.string	"\377"
	.string	""
	.string	""
	.string	"\377"
	.string	""
	.string	""
	.string	"\377"
	.string	""
	.string	""
	.string	"\377"
	.string	""
	.string	""
	.string	"\377\340\260"
	.string	"\377\340\260"
	.string	"\377\340\260"
	.string	"\377\340\260"
	.string	"\377\340\260"
	.string	"\377"
	.string	""
	.string	""
	.string	"\377"
	.string	""
	.string	""
	.string	"\377"
	.string	""
	.string	""
	.string	"\377"
	.string	""
	.string	""
	.string	"\377"
	.string	""
	.string	""
	.string	"\377"
	.string	""
	.string	""
	.string	"\377\340\260"
	.string	"\377\340\260"
	.string	"\377\340\260"
	.string	"\377\340\260"
	.string	"\377"
	.string	""
	.string	""
	.string	"\377"
	.string	""
	.string	""
	.string	"\377"
	.string	""
	.string	""
	.string	"\377"
	.string	""
	.string	""
	.string	"\377"
	.string	""
	.string	""
	.string	"\377"
	.string	""
	.string	""
	.string	"\377"
	.string	""
	.string	""
	.string	"\377"
	.string	""
	.string	""
	.string	"\377\340\260"
	.string	"\377\340\260"
	.string	"\377\340\260"
	.string	"\377\340\260"
	.string	"\377\340\260"
	.string	"\377\340\260"
	.string	"\377"
	.string	""
	.string	""
	.string	"\377"
	.string	""
	.string	""
	.string	"\377"
	.string	""
	.string	""
	.string	"\377"
	.string	""
	.string	""
	.string	"\377"
	.string	""
	.string	""
	.string	"\377"
	.string	""
	.string	""
	.string	"\377"
	.string	""
	.string	""
	.string	"\377"
	.string	""
	.string	""
	.string	"\377"
	.string	""
	.string	""
	.string	"\377"
	.string	""
	.string	""
	.string	"\377"
	.string	""
	.string	""
	.string	"\377"
	.string	""
	.string	""
	.string	"\377"
	.string	""
	.string	""
	.string	"\377"
	.string	""
	.string	""
	.string	"\377"
	.string	""
	.string	""
	.string	"\377"
	.string	""
	.string	""
	.string	"\377"
	.string	""
	.string	""
	.string	"\377"
	.string	""
	.string	""
	.string	"\377"
	.string	""
	.string	""
	.string	"\377"
	.string	""
	.string	""
	.string	"\377\340\260"
	.string	"\377\340\260"
	.string	"\377\340\260"
	.string	"\377\340\260"
	.string	"\377\340\260"
	.string	"\377\340\260"
	.string	"\377\340\260"
	.string	"\377\340\260"
	.string	"\377\340\260"
	.string	"\377\340\260"
	.string	"\377\340\260"
	.string	"\377\340\260"
	.string	"\377\340\260"
	.string	"\377\340\260"
	.string	"\377\340\260"
	.string	"\377"
	.string	""
	.string	""
	.string	"\377"
	.string	""
	.string	""
	.string	"\377"
	.string	""
	.string	""
	.string	"\377"
	.string	""
	.string	""
	.string	"\377"
	.string	""
	.string	""
	.string	"\377"
	.string	""
	.string	""
	.string	"\377\340\260"
	.string	"\377\340\260"
	.string	"\377\340\260"
	.string	"\377\340\260"
	.string	"\377"
	.string	""
	.string	""
	.string	"\377"
	.string	""
	.string	""
	.string	"\377"
	.string	""
	.string	""
	.string	"\377"
	.string	""
	.string	""
	.string	"\377"
	.string	""
	.string	""
	.string	"\377"
	.string	""
	.string	""
	.string	"\377"
	.string	""
	.string	""
	.string	"\377"
	.string	""
	.string	""
	.string	"\377"
	.string	""
	.string	""
	.string	"\377"
	.string	""
	.string	""
	.string	"\377"
	.string	""
	.string	""
	.string	"\377"
	.string	""
	.string	""
	.string	"\377"
	.string	""
	.string	""
	.string	"\377"
	.string	""
	.string	""
	.string	"\377"
	.string	""
	.string	""
	.string	"\377"
	.string	""
	.string	""
	.string	"\377"
	.string	""
	.string	""
	.string	"\377\340\260"
	.string	"\377\340\260"
	.string	"\377\340\260"
	.string	"\377\340\260"
	.string	"\377"
	.string	""
	.string	""
	.string	"\377\340\260"
	.string	"\377\340\260"
	.string	"\377\340\260"
	.string	"\377\340\260"
	.string	"\377\340\260"
	.string	"\377\340\260"
	.string	"\377\340\260"
	.string	"\377\340\260"
	.string	"\377\340\260"
	.string	"\377"
	.string	""
	.string	""
	.string	"\377"
	.string	""
	.string	""
	.string	"\377"
	.string	""
	.string	""
	.string	"\377"
	.string	""
	.string	""
	.string	"\377"
	.string	""
	.string	""
	.string	"\377"
	.string	""
	.string	""
	.string	"\377"
	.string	""
	.string	""
	.string	"\377\340\260"
	.string	"\377\340\260"
	.string	"\377\340\260"
	.string	"\377\340\260"
	.string	"\377"
	.string	""
	.string	""
	.string	"\377"
	.string	""
	.string	""
	.string	"\377"
	.string	""
	.string	""
	.string	"\377"
	.string	""
	.string	""
	.string	"\377"
	.string	""
	.string	""
	.string	"\377"
	.string	""
	.string	""
	.string	"\377"
	.string	""
	.string	""
	.string	"\377"
	.string	""
	.string	""
	.string	"\377"
	.string	""
	.string	""
	.string	"\377"
	.string	""
	.string	""
	.string	"\377"
	.string	""
	.string	""
	.string	"\377"
	.string	""
	.string	""
	.string	"\377\340\260"
	.string	"\377\340\260"
	.string	"\377\340\260"
	.string	"\377\340\260"
	.string	"\377"
	.string	""
	.string	""
	.string	"\377"
	.string	""
	.string	""
	.string	"\377\340\260"
	.string	"\377\340\260"
	.string	"\377\340\260"
	.string	"\377"
	.string	""
	.string	""
	.string	"\377"
	.string	""
	.string	""
	.string	"\377\340\260"
	.string	"\377\340\260"
	.string	"\377\340\260"
	.string	"\377\340\260"
	.string	"\377"
	.string	""
	.string	""
	.string	"\377\340\260"
	.string	"\377\340\260"
	.string	"\377\340\260"
	.string	"\377\340\260"
	.string	"\377"
	.string	""
	.string	""
	.string	"\377"
	.string	""
	.string	""
	.string	"\377"
	.string	""
	.string	""
	.string	"\377"
	.string	""
	.string	""
	.string	"\377"
	.string	""
	.string	""
	.string	"\377"
	.string	""
	.string	""
	.string	"\377"
	.string	""
	.string	""
	.string	"\377\340\260"
	.string	"\377\340\260"
	.string	"\377\340\260"
	.string	"\377\340\260"
	.string	"\377"
	.string	""
	.string	""
	.string	"\377\340\260"
	.string	"\377\340\260"
	.string	"\377\340\260"
	.string	"\377\340\260"
	.string	"\377"
	.string	""
	.string	""
	.string	"\377"
	.string	""
	.string	""
	.string	"\377"
	.string	""
	.string	""
	.string	"\377"
	.string	""
	.string	""
	.string	"\377"
	.string	""
	.string	""
	.string	"\377"
	.string	""
	.string	""
	.string	"\377"
	.string	""
	.string	""
	.string	"\377\340\260"
	.string	"\377\340\260"
	.string	"\377\340\260"
	.string	"\377\340\260"
	.string	"\377"
	.string	""
	.string	""
	.string	"\377\340\260"
	.string	"\377\340\260"
	.string	"\377\340\260"
	.string	"\377\340\260"
	.string	"\377"
	.string	""
	.string	""
	.string	"\377"
	.string	""
	.string	""
	.string	"\377"
	.string	""
	.string	""
	.string	"\377"
	.string	""
	.string	""
	.string	"\377"
	.string	""
	.string	""
	.string	"\377"
	.string	""
	.string	""
	.string	"\377"
	.string	""
	.string	""
	.string	"\377\340\260"
	.string	"\377\340\260"
	.string	"\377\340\260"
	.string	"\377\340\260"
	.string	"\377"
	.string	""
	.string	""
	.string	"\377\340\260"
	.string	"\377\340\260"
	.string	"\377\340\260"
	.string	"\377\340\260"
	.string	"\377"
	.string	""
	.string	""
	.string	"\377"
	.string	""
	.string	""
	.string	"\377"
	.string	""
	.string	""
	.string	"\377"
	.string	""
	.string	""
	.string	"\377"
	.string	""
	.string	""
	.string	"\377"
	.string	""
	.string	""
	.string	"\377"
	.string	""
	.string	""
	.string	"\377\340\260"
	.string	"\377\340\260"
	.string	"\377\340\260"
	.string	"\377\340\260"
	.string	"\377"
	.string	""
	.string	""
	.string	"\377\340\260"
	.string	"\377\340\260"
	.string	"\377\340\260"
	.string	"\377\340\260"
	.string	"\377"
	.string	""
	.string	""
	.string	"\377"
	.string	""
	.string	""
	.string	"\377"
	.string	""
	.string	""
	.string	"\377"
	.string	""
	.string	""
	.string	"\377"
	.string	""
	.string	""
	.string	"\377"
	.string	""
	.string	""
	.string	"\377"
	.string	""
	.string	""
	.string	"\377\340\260"
	.string	"\377\340\260"
	.string	"\377\340\260"
	.string	"\377\340\260"
	.string	"\377"
	.string	""
	.string	""
	.string	"\377"
	.string	""
	.string	""
	.string	"\377\340\260"
	.string	"\377\340\260"
	.string	"\377\340\260"
	.string	"\377\340\260"
	.string	"\377\340\260"
	.string	"\377\340\260"
	.string	"\377\340\260"
	.string	"\377\340\260"
	.string	"\377\340\260"
	.string	"\377\340\260"
	.string	"\377"
	.string	""
	.string	""
	.string	"\377"
	.string	""
	.string	""
	.string	"\377"
	.string	""
	.string	""
	.string	"\377"
	.string	""
	.string	""
	.string	"\377"
	.string	""
	.string	""
	.string	"\377"
	.string	""
	.string	""
	.string	"\377"
	.string	""
	.string	""
	.string	"\377"
	.string	""
	.string	""
	.string	"\377"
	.string	""
	.string	""
	.string	"\377"
	.string	""
	.string	""
	.string	"\377"
	.string	""
	.string	""
	.string	"\377"
	.string	""
	.string	""
	.string	"\377"
	.string	""
	.string	""
	.string	"\377"
	.string	""
	.string	""
	.string	"\377"
	.string	""
	.string	""
	.string	"\377"
	.string	""
	.string	""
	.string	"\377\340\260"
	.string	"\377\340\260"
	.string	"\377\340\260"
	.string	"\377\340\260"
	.string	"\377"
	.string	""
	.string	""
	.string	"\377\340\260"
	.string	"\377\340\260"
	.string	"\377\340\260"
	.string	"\377\340\260"
	.string	"\377"
	.string	""
	.string	""
	.string	"\377"
	.string	""
	.string	""
	.string	"\377"
	.string	""
	.string	""
	.string	"\377"
	.string	""
	.string	""
	.string	"\377"
	.string	""
	.string	""
	.string	"\377"
	.string	""
	.string	""
	.string	"\377"
	.string	""
	.string	""
	.string	"\377\340\260"
	.string	"\377\340\260"
	.string	"\377\340\260"
	.string	"\377\340\260"
	.string	"\377"
	.string	""
	.string	""
	.string	"\377"
	.string	""
	.string	""
	.string	"\377"
	.string	""
	.string	""
	.string	"\377\340\260"
	.string	"\377\340\260"
	.string	"\377\340\260"
	.string	"\377\340\260"
	.string	"\377"
	.string	""
	.string	""
	.string	"\377"
	.string	""
	.string	""
	.string	"\377"
	.string	""
	.string	""
	.string	"\377\340\260"
	.string	"\377\340\260"
	.string	"\377\340\260"
	.string	"\377\340\260"
	.string	"\377"
	.string	""
	.string	""
	.string	"\377"
	.string	""
	.string	""
	.string	"\377"
	.string	""
	.string	""
	.string	"\377\340\260"
	.string	"\377\340\260"
	.string	"\377\340\260"
	.string	"\377\340\260"
	.string	"\377"
	.string	""
	.string	""
	.string	"\377"
	.string	""
	.string	""
	.string	"\377"
	.string	""
	.string	""
	.string	"\377"
	.string	""
	.string	""
	.string	"\377"
	.string	""
	.string	""
	.string	"\377"
	.string	""
	.string	""
	.string	"\377"
	.string	""
	.string	""
	.string	"\377\340\260"
	.string	"\377\340\260"
	.string	"\377\340\260"
	.string	"\377\340\260"
	.string	"\377"
	.string	""
	.string	""
	.string	"\377"
	.string	""
	.string	""
	.string	"\377"
	.string	""
	.string	""
	.string	"\377"
	.string	""
	.string	""
	.string	"\377"
	.string	""
	.string	""
	.string	"\377\340\260"
	.string	"\377\340\260"
	.string	"\377\340\260"
	.string	"\377\340\260"
	.string	"\377\340\260"
	.string	"\377\340\260"
	.string	"\377\340\260"
	.string	"\377"
	.string	""
	.string	""
	.string	"\377"
	.string	""
	.string	""
	.string	"\377"
	.string	""
	.string	""
	.string	"\377"
	.string	""
	.string	""
	.string	"\377"
	.string	""
	.string	""
	.string	"\377"
	.string	""
	.string	""
	.string	"\377\340\260"
	.string	"\377\340\260"
	.string	"\377\340\260"
	.string	"\377\340\260"
	.string	"\377\340\260"
	.string	"\377\340\260"
	.string	"\377\340\260"
	.string	"\377\340\260"
	.string	"\377\340\260"
	.string	"\377\340\260"
	.string	"\377\340\260"
	.string	"\377\340\260"
	.string	"\377\340\260"
	.string	"\377\340\260"
	.string	"\377"
	.string	""
	.string	""
	.string	"\377"
	.string	""
	.string	""
	.string	"\377"
	.string	""
	.string	""
	.string	"\377"
	.string	""
	.string	""
	.string	"\377"
	.string	""
	.string	""
	.string	"\377"
	.string	""
	.string	""
	.string	"\377"
	.string	""
	.string	""
	.string	"\377\340\260"
	.string	"\377\340\260"
	.string	"\377\340\260"
	.string	"\377\340\260"
	.string	"\377\340\260"
	.string	"\377\340\260"
	.string	"\377"
	.string	""
	.string	""
	.string	"\377"
	.string	""
	.string	""
	.string	"\377"
	.string	""
	.string	""
	.string	"\377"
	.string	""
	.string	""
	.string	"\377"
	.string	""
	.string	""
	.string	"\377"
	.string	""
	.string	""
	.string	"\377"
	.string	""
	.string	""
	.string	"\377"
	.string	""
	.string	""
	.string	"\377"
	.string	""
	.string	""
	.string	"\377"
	.string	""
	.string	""
	.string	"\377"
	.string	""
	.string	""
	.string	"\377"
	.string	""
	.string	""
	.string	"\377"
	.string	""
	.string	""
	.string	"\377"
	.string	""
	.string	""
	.string	"\377"
	.string	""
	.string	""
	.string	"\377"
	.string	""
	.string	""
	.string	"\377"
	.string	""
	.string	""
	.string	"\377"
	.string	""
	.string	""
	.string	"\377"
	.string	""
	.string	""
	.string	"\377"
	.string	""
	.string	""
	.string	"\377"
	.string	""
	.string	""
	.string	"\377\340\260"
	.string	"\377\340\260"
	.string	"\377\340\260"
	.string	"\377\340\260"
	.string	"\377\340\260"
	.string	"\377\340\260"
	.string	"\377\340\260"
	.string	"\377\340\260"
	.string	"\377\340\260"
	.string	"\377\340\260"
	.string	"\377\340\260"
	.string	"\377\340\260"
	.string	"\377\340\260"
	.string	"\377\340\260"
	.string	"\377\340\260"
	.string	"\377"
	.string	""
	.string	""
	.string	"\377"
	.string	""
	.string	""
	.string	"\377"
	.string	""
	.string	""
	.string	"\377"
	.string	""
	.string	""
	.ascii	"\377"
	.string	""
	.string	""
	.string	""
	.string	"\377"
	.string	""
	.string	""
	.string	"\377\340\260"
	.string	"\377\340\260"
	.string	"\377\340\260"
	.string	"\377\340\260"
	.string	"\377"
	.string	""
	.string	""
	.string	"\377"
	.string	""
	.string	""
	.string	"\377"
	.string	""
	.string	""
	.string	"\377"
	.string	""
	.string	""
	.string	"\377"
	.string	""
	.string	""
	.string	"\377"
	.string	""
	.string	""
	.string	"\377"
	.string	""
	.string	""
	.string	"\377"
	.string	""
	.string	""
	.string	"\377"
	.string	""
	.string	""
	.string	"\377"
	.string	""
	.string	""
	.string	"\377"
	.string	""
	.string	""
	.string	"\377"
	.string	""
	.string	""
	.string	"\377"
	.string	""
	.string	""
	.string	"\377"
	.string	""
	.string	""
	.string	"\377"
	.string	""
	.string	""
	.string	"\377"
	.string	""
	.string	""
	.string	"\377"
	.string	""
	.string	""
	.string	"\377\340\260"
	.string	"\377\340\260"
	.string	"\377\340\260"
	.string	"\377\340\260"
	.string	"\377"
	.string	""
	.string	""
	.string	"\377\340\260"
	.string	"\377\340\260"
	.string	"\377\340\260"
	.string	"\377\340\260"
	.string	"\377\340\260"
	.string	"\377\340\260"
	.string	"\377\340\260"
	.string	"\377\340\260"
	.string	"\377"
	.string	""
	.string	""
	.string	"\377"
	.string	""
	.string	""
	.string	"\377"
	.string	""
	.string	""
	.string	"\377"
	.string	""
	.string	""
	.string	"\377"
	.string	""
	.string	""
	.string	"\377"
	.string	""
	.string	""
	.string	"\377"
	.string	""
	.string	""
	.string	"\377"
	.string	""
	.string	""
	.string	"\377\340\260"
	.string	"\377\340\260"
	.string	"\377\340\260"
	.string	"\377\340\260"
	.string	"\377"
	.string	""
	.string	""
	.string	"\377"
	.string	""
	.string	""
	.string	"\377"
	.string	""
	.string	""
	.string	"\377"
	.string	""
	.string	""
	.string	"\377"
	.string	""
	.string	""
	.string	"\377"
	.string	""
	.string	""
	.string	"\377"
	.string	""
	.string	""
	.string	"\377"
	.string	""
	.string	""
	.string	"\377"
	.string	""
	.string	""
	.string	"\377"
	.string	""
	.string	""
	.string	"\377"
	.string	""
	.string	""
	.string	"\377"
	.string	""
	.string	""
	.string	"\377\340\260"
	.string	"\377\340\260"
	.string	"\377\340\260"
	.string	"\377\340\260"
	.string	"\377"
	.string	""
	.string	""
	.string	"\377"
	.string	""
	.string	""
	.string	"\377\340\260"
	.string	"\377\340\260"
	.string	"\377\340\260"
	.string	"\377"
	.string	""
	.string	""
	.string	"\377"
	.string	""
	.string	""
	.string	"\377\340\260"
	.string	"\377\340\260"
	.string	"\377\340\260"
	.string	"\377\340\260"
	.string	"\377"
	.string	""
	.string	""
	.string	"\377\340\260"
	.string	"\377\340\260"
	.string	"\377\340\260"
	.string	"\377\340\260"
	.string	"\377"
	.string	""
	.string	""
	.string	"\377"
	.string	""
	.string	""
	.string	"\377"
	.string	""
	.string	""
	.string	"\377"
	.string	""
	.string	""
	.string	"\377"
	.string	""
	.string	""
	.string	"\377"
	.string	""
	.string	""
	.string	"\377"
	.string	""
	.string	""
	.string	"\377\340\260"
	.string	"\377\340\260"
	.string	"\377\340\260"
	.string	"\377\340\260"
	.string	"\377"
	.string	""
	.string	""
	.string	"\377\340\260"
	.string	"\377\340\260"
	.string	"\377\340\260"
	.string	"\377\340\260"
	.string	"\377"
	.string	""
	.string	""
	.string	"\377"
	.string	""
	.string	""
	.string	"\377"
	.string	""
	.string	""
	.string	"\377"
	.string	""
	.string	""
	.string	"\377"
	.string	""
	.string	""
	.string	"\377"
	.string	""
	.string	""
	.string	"\377"
	.string	""
	.string	""
	.string	"\377\340\260"
	.string	"\377\340\260"
	.string	"\377\340\260"
	.string	"\377\340\260"
	.string	"\377"
	.string	""
	.string	""
	.string	"\377\340\260"
	.string	"\377\340\260"
	.string	"\377\340\260"
	.string	"\377\340\260"
	.string	"\377"
	.string	""
	.string	""
	.string	"\377"
	.string	""
	.string	""
	.string	"\377"
	.string	""
	.string	""
	.string	"\377"
	.string	""
	.string	""
	.string	"\377"
	.string	""
	.string	""
	.string	"\377"
	.string	""
	.string	""
	.string	"\377\340\260"
	.string	"\377\340\260"
	.string	"\377\340\260"
	.string	"\377\340\260"
	.string	"\377\340\260"
	.string	"\377"
	.string	""
	.string	""
	.string	"\377\340\260"
	.string	"\377\340\260"
	.string	"\377\340\260"
	.string	"\377\340\260"
	.string	"\377"
	.string	""
	.string	""
	.string	"\377"
	.string	""
	.string	""
	.string	"\377"
	.string	""
	.string	""
	.string	"\377"
	.string	""
	.string	""
	.string	"\377"
	.string	""
	.string	""
	.string	"\377"
	.string	""
	.string	""
	.string	"\377"
	.string	""
	.string	""
	.string	"\377\340\260"
	.string	"\377\340\260"
	.string	"\377\340\260"
	.string	"\377\340\260"
	.string	"\377"
	.string	""
	.string	""
	.string	"\377\340\260"
	.string	"\377\340\260"
	.string	"\377\340\260"
	.string	"\377\340\260"
	.string	"\377"
	.string	""
	.string	""
	.string	"\377"
	.string	""
	.string	""
	.string	"\377"
	.string	""
	.string	""
	.string	"\377"
	.string	""
	.string	""
	.string	"\377"
	.string	""
	.string	""
	.string	"\377"
	.string	""
	.string	""
	.string	"\377\340\260"
	.string	"\377\340\260"
	.string	"\377\340\260"
	.string	"\377\340\260"
	.string	"\377\340\260"
	.string	"\377"
	.string	""
	.string	""
	.string	"\377"
	.string	""
	.string	""
	.string	"\377\340\260"
	.string	"\377\340\260"
	.string	"\377\340\260"
	.string	"\377\340\260"
	.string	"\377\340\260"
	.string	"\377\340\260"
	.string	"\377\340\260"
	.string	"\377\340\260"
	.string	"\377\340\260"
	.string	"\377\340\260"
	.string	"\377\340\260"
	.string	"\377\340\260"
	.string	"\377"
	.string	""
	.string	""
	.string	"\377"
	.string	""
	.string	""
	.string	"\377"
	.string	""
	.string	""
	.string	"\377"
	.string	""
	.string	""
	.string	"\377"
	.string	""
	.string	""
	.string	"\377"
	.string	""
	.string	""
	.string	"\377"
	.string	""
	.string	""
	.string	"\377"
	.string	""
	.string	""
	.string	"\377"
	.string	""
	.string	""
	.string	"\377"
	.string	""
	.string	""
	.string	"\377"
	.string	""
	.string	""
	.string	"\377"
	.string	""
	.string	""
	.string	"\377"
	.string	""
	.string	""
	.string	"\377"
	.string	""
	.string	""
	.string	"\377\340\260"
	.string	"\377\340\260"
	.string	"\377\340\260"
	.string	"\377\340\260"
	.string	"\377"
	.string	""
	.string	""
	.string	"\377\340\260"
	.string	"\377\340\260"
	.string	"\377\340\260"
	.string	"\377\340\260"
	.string	"\377"
	.string	""
	.string	""
	.string	"\377"
	.string	""
	.string	""
	.string	"\377"
	.string	""
	.string	""
	.string	"\377"
	.string	""
	.string	""
	.string	"\377"
	.string	""
	.string	""
	.string	"\377"
	.string	""
	.string	""
	.string	"\377"
	.string	""
	.string	""
	.string	"\377\340\260"
	.string	"\377\340\260"
	.string	"\377\340\260"
	.string	"\377\340\260"
	.string	"\377"
	.string	""
	.string	""
	.string	"\377"
	.string	""
	.string	""
	.string	"\377"
	.string	""
	.string	""
	.string	"\377"
	.string	""
	.string	""
	.string	"\377\340\260"
	.string	"\377\340\260"
	.string	"\377\340\260"
	.string	"\377\340\260"
	.string	"\377"
	.string	""
	.string	""
	.string	"\377"
	.string	""
	.string	""
	.string	"\377\340\260"
	.string	"\377\340\260"
	.string	"\377\340\260"
	.string	"\377\340\260"
	.string	"\377"
	.string	""
	.string	""
	.string	"\377"
	.string	""
	.string	""
	.string	"\377"
	.string	""
	.string	""
	.string	"\377\340\260"
	.string	"\377\340\260"
	.string	"\377\340\260"
	.string	"\377\340\260"
	.string	"\377"
	.string	""
	.string	""
	.string	"\377"
	.string	""
	.string	""
	.string	"\377\340\260"
	.string	"\377\340\260"
	.string	"\377\340\260"
	.string	"\377"
	.string	""
	.string	""
	.string	"\377"
	.string	""
	.string	""
	.string	"\377\340\260"
	.string	"\377\340\260"
	.string	"\377\340\260"
	.string	"\377\340\260"
	.string	"\377"
	.string	""
	.string	""
	.string	"\377"
	.string	""
	.string	""
	.string	"\377"
	.string	""
	.string	""
	.string	"\377"
	.string	""
	.string	""
	.string	"\377"
	.string	""
	.string	""
	.string	"\377"
	.string	""
	.string	""
	.string	"\377\340\260"
	.string	"\377\340\260"
	.string	"\377\340\260"
	.string	"\377\340\260"
	.string	"\377\340\260"
	.string	"\377"
	.string	""
	.string	""
	.string	"\377"
	.string	""
	.string	""
	.string	"\377"
	.string	""
	.string	""
	.string	"\377"
	.string	""
	.string	""
	.string	"\377"
	.string	""
	.string	""
	.string	"\377"
	.string	""
	.string	""
	.string	"\377"
	.string	""
	.string	""
	.string	"\377\340\260"
	.string	"\377\340\260"
	.string	"\377\340\260"
	.string	"\377\340\260"
	.string	"\377\340\260"
	.string	"\377\340\260"
	.string	"\377\340\260"
	.string	"\377\340\260"
	.string	"\377\340\260"
	.string	"\377\340\260"
	.string	"\377\340\260"
	.string	"\377\340\260"
	.string	"\377\340\260"
	.string	"\377\340\260"
	.string	"\377"
	.string	""
	.string	""
	.string	"\377"
	.string	""
	.string	""
	.string	"\377"
	.string	""
	.string	""
	.string	"\377"
	.string	""
	.string	""
	.string	"\377"
	.string	""
	.string	""
	.string	"\377"
	.string	""
	.string	""
	.string	"\377\340\260"
	.string	"\377\340\260"
	.string	"\377\340\260"
	.string	"\377\340\260"
	.string	"\377\340\260"
	.string	"\377\340\260"
	.string	"\377"
	.string	""
	.string	""
	.string	"\377"
	.string	""
	.string	""
	.string	"\377"
	.string	""
	.string	""
	.string	"\377"
	.string	""
	.string	""
	.string	"\377"
	.string	""
	.string	""
	.string	"\377"
	.string	""
	.string	""
	.string	"\377"
	.string	""
	.string	""
	.string	"\377"
	.string	""
	.string	""
	.string	"\377"
	.string	""
	.string	""
	.string	"\377"
	.string	""
	.string	""
	.string	"\377"
	.string	""
	.string	""
	.string	"\377"
	.string	""
	.string	""
	.string	"\377"
	.string	""
	.string	""
	.string	"\377"
	.string	""
	.string	""
	.string	"\377"
	.string	""
	.string	""
	.string	"\377"
	.string	""
	.string	""
	.string	"\377"
	.string	""
	.string	""
	.string	"\377"
	.string	""
	.string	""
	.string	"\377"
	.string	""
	.string	""
	.string	"\377"
	.string	""
	.string	""
	.string	"\377"
	.string	""
	.string	""
	.string	"\377"
	.string	""
	.string	""
	.string	"\377\340\260"
	.string	"\377\340\260"
	.string	"\377\340\260"
	.string	"\377\340\260"
	.string	"\377\340\260"
	.string	"\377\340\260"
	.string	"\377\340\260"
	.string	"\377\340\260"
	.string	"\377\340\260"
	.string	"\377\340\260"
	.string	"\377\340\260"
	.string	"\377\340\260"
	.string	"\377\340\260"
	.string	"\377\340\260"
	.string	"\377\340\260"
	.string	"\377"
	.string	""
	.string	""
	.string	"\377"
	.string	""
	.string	""
	.string	"\377"
	.string	""
	.string	""
	.string	"\377"
	.string	""
	.string	""
	.string	"\377"
	.string	""
	.string	""
	.string	"\377"
	.string	""
	.string	""
	.string	"\377\340\260"
	.string	"\377\340\260"
	.string	"\377\340\260"
	.string	"\377\340\260"
	.string	"\377"
	.string	""
	.string	""
	.string	"\377"
	.string	""
	.string	""
	.string	"\377"
	.string	""
	.string	""
	.string	"\377"
	.string	""
	.string	""
	.string	"\377"
	.string	""
	.string	""
	.string	"\377"
	.string	""
	.string	""
	.string	"\377\340\260"
	.string	"\377\340\260"
	.string	"\377\340\260"
	.string	"\377\340\260"
	.string	"\377"
	.string	""
	.string	""
	.string	"\377"
	.string	""
	.string	""
	.string	"\377"
	.string	""
	.string	""
	.string	"\377"
	.string	""
	.string	""
	.string	"\377"
	.string	""
	.string	""
	.string	"\377"
	.string	""
	.string	""
	.string	"\377"
	.string	""
	.string	""
	.string	"\377\340\260"
	.string	"\377\340\260"
	.string	"\377\340\260"
	.string	"\377\340\260"
	.string	"\377"
	.string	""
	.string	""
	.string	"\377\340\260"
	.string	"\377\340\260"
	.string	"\377\340\260"
	.string	"\377\340\260"
	.string	"\377\340\260"
	.string	"\377\340\260"
	.string	"\377\340\260"
	.string	"\377\340\260"
	.string	"\377"
	.string	""
	.string	""
	.string	"\377"
	.string	""
	.string	""
	.string	"\377"
	.string	""
	.string	""
	.string	"\377"
	.string	""
	.string	""
	.string	"\377"
	.string	""
	.string	""
	.string	"\377"
	.string	""
	.string	""
	.string	"\377"
	.string	""
	.string	""
	.string	"\377"
	.string	""
	.string	""
	.string	"\377\340\260"
	.string	"\377\340\260"
	.string	"\377\340\260"
	.string	"\377\340\260"
	.string	"\377"
	.string	""
	.string	""
	.string	"\377"
	.string	""
	.string	""
	.string	"\377"
	.string	""
	.string	""
	.string	"\377"
	.string	""
	.string	""
	.string	"\377"
	.string	""
	.string	""
	.string	"\377"
	.string	""
	.string	""
	.string	"\377"
	.string	""
	.string	""
	.string	"\377"
	.string	""
	.string	""
	.string	"\377"
	.string	""
	.string	""
	.string	"\377"
	.string	""
	.string	""
	.string	"\377"
	.string	""
	.string	""
	.string	"\377"
	.string	""
	.string	""
	.string	"\377\340\260"
	.string	"\377\340\260"
	.string	"\377\340\260"
	.string	"\377\340\260"
	.string	"\377"
	.string	""
	.string	""
	.string	"\377"
	.string	""
	.string	""
	.string	"\377\340\260"
	.string	"\377\340\260"
	.string	"\377\340\260"
	.string	"\377"
	.string	""
	.string	""
	.string	"\377"
	.string	""
	.string	""
	.string	"\377\340\260"
	.string	"\377\340\260"
	.string	"\377\340\260"
	.string	"\377\340\260"
	.string	"\377"
	.string	""
	.string	""
	.string	"\377\340\260"
	.string	"\377\340\260"
	.string	"\377\340\260"
	.string	"\377\340\260"
	.string	"\377"
	.string	""
	.string	""
	.string	"\377"
	.string	""
	.string	""
	.string	"\377"
	.string	""
	.string	""
	.string	"\377"
	.string	""
	.string	""
	.string	"\377"
	.string	""
	.string	""
	.string	"\377"
	.string	""
	.string	""
	.string	"\377"
	.string	""
	.string	""
	.string	"\377\340\260"
	.string	"\377\340\260"
	.string	"\377\340\260"
	.string	"\377\340\260"
	.string	"\377"
	.string	""
	.string	""
	.string	"\377\340\260"
	.string	"\377\340\260"
	.string	"\377\340\260"
	.string	"\377\340\260"
	.string	"\377"
	.string	""
	.string	""
	.string	"\377"
	.string	""
	.string	""
	.string	"\377"
	.string	""
	.string	""
	.string	"\377"
	.string	""
	.string	""
	.string	"\377"
	.string	""
	.string	""
	.string	"\377"
	.string	""
	.string	""
	.string	"\377"
	.string	""
	.string	""
	.string	"\377\340\260"
	.string	"\377\340\260"
	.string	"\377\340\260"
	.string	"\377\340\260"
	.string	"\377"
	.string	""
	.string	""
	.string	"\377\340\260"
	.string	"\377\340\260"
	.string	"\377\340\260"
	.string	"\377\340\260"
	.string	"\377\340\260"
	.string	"\377\340\260"
	.string	"\377\340\260"
	.string	"\377\340\260"
	.string	"\377\340\260"
	.string	"\377\340\260"
	.string	"\377\340\260"
	.string	"\377\340\260"
	.string	"\377\340\260"
	.string	"\377\340\260"
	.string	"\377"
	.string	""
	.string	""
	.string	"\377"
	.string	""
	.string	""
	.string	"\377\340\260"
	.string	"\377\340\260"
	.string	"\377\340\260"
	.string	"\377\340\260"
	.string	"\377"
	.string	""
	.string	""
	.string	"\377"
	.string	""
	.string	""
	.string	"\377"
	.string	""
	.string	""
	.string	"\377"
	.string	""
	.string	""
	.string	"\377"
	.string	""
	.string	""
	.string	"\377"
	.string	""
	.string	""
	.string	"\377"
	.string	""
	.string	""
	.string	"\377\340\260"
	.string	"\377\340\260"
	.string	"\377\340\260"
	.string	"\377\340\260"
	.string	"\377"
	.string	""
	.string	""
	.string	"\377\340\260"
	.string	"\377\340\260"
	.string	"\377\340\260"
	.string	"\377\340\260"
	.string	"\377\340\260"
	.string	"\377\340\260"
	.string	"\377\340\260"
	.string	"\377\340\260"
	.string	"\377\340\260"
	.string	"\377\340\260"
	.string	"\377\340\260"
	.string	"\377\340\260"
	.string	"\377\340\260"
	.string	"\377\340\260"
	.string	"\377"
	.string	""
	.string	""
	.string	"\377"
	.string	""
	.string	""
	.string	"\377"
	.string	""
	.string	""
	.string	"\377"
	.string	""
	.string	""
	.string	"\377\340\260"
	.string	"\377\340\260"
	.string	"\377\340\260"
	.string	"\377\340\260"
	.string	"\377\340\260"
	.string	"\377\340\260"
	.string	"\377\340\260"
	.string	"\377\340\260"
	.string	"\377\340\260"
	.string	"\377\340\260"
	.string	"\377\340\260"
	.string	"\377\340\260"
	.string	"\377"
	.string	""
	.string	""
	.string	"\377"
	.string	""
	.string	""
	.string	"\377"
	.string	""
	.string	""
	.string	"\377"
	.string	""
	.string	""
	.string	"\377"
	.string	""
	.string	""
	.string	"\377"
	.string	""
	.string	""
	.string	"\377"
	.string	""
	.string	""
	.string	"\377"
	.string	""
	.string	""
	.string	"\377"
	.string	""
	.string	""
	.string	"\377"
	.string	""
	.string	""
	.ascii	"\377"
	.string	""
	.string	""
	.string	""
	.string	"\377"
	.string	""
	.string	""
	.string	"\377"
	.string	""
	.string	""
	.string	"\377\340\260"
	.string	"\377\340\260"
	.string	"\377\340\260"
	.string	"\377\340\260"
	.string	"\377"
	.string	""
	.string	""
	.string	"\377\340\260"
	.string	"\377\340\260"
	.string	"\377\340\260"
	.string	"\377\340\260"
	.string	"\377"
	.string	""
	.string	""
	.string	"\377"
	.string	""
	.string	""
	.string	"\377"
	.string	""
	.string	""
	.string	"\377"
	.string	""
	.string	""
	.string	"\377"
	.string	""
	.string	""
	.string	"\377"
	.string	""
	.string	""
	.string	"\377"
	.string	""
	.string	""
	.string	"\377\340\260"
	.string	"\377\340\260"
	.string	"\377\340\260"
	.string	"\377\340\260"
	.string	"\377"
	.string	""
	.string	""
	.string	"\377"
	.string	""
	.string	""
	.string	"\377"
	.string	""
	.string	""
	.string	"\377"
	.string	""
	.string	""
	.string	"\377\340\260"
	.string	"\377\340\260"
	.string	"\377\340\260"
	.string	"\377\340\260"
	.string	"\377"
	.string	""
	.string	""
	.string	"\377"
	.string	""
	.string	""
	.string	"\377\340\260"
	.string	"\377\340\260"
	.string	"\377\340\260"
	.string	"\377"
	.string	""
	.string	""
	.string	"\377"
	.string	""
	.string	""
	.string	"\377"
	.string	""
	.string	""
	.string	"\377"
	.string	""
	.string	""
	.string	"\377\340\260"
	.string	"\377\340\260"
	.string	"\377\340\260"
	.string	"\377\340\260"
	.string	"\377"
	.string	""
	.string	""
	.string	"\377"
	.string	""
	.string	""
	.string	"\377\340\260"
	.string	"\377\340\260"
	.string	"\377\340\260"
	.string	"\377"
	.string	""
	.string	""
	.string	"\377"
	.string	""
	.string	""
	.string	"\377\340\260"
	.string	"\377\340\260"
	.string	"\377\340\260"
	.string	"\377\340\260"
	.string	"\377"
	.string	""
	.string	""
	.string	"\377"
	.string	""
	.string	""
	.string	"\377"
	.string	""
	.string	""
	.string	"\377"
	.string	""
	.string	""
	.string	"\377"
	.string	""
	.string	""
	.string	"\377"
	.string	""
	.string	""
	.string	"\377\340\260"
	.string	"\377\340\260"
	.string	"\377\340\260"
	.string	"\377\340\260"
	.string	"\377\340\260"
	.string	"\377"
	.string	""
	.string	""
	.string	"\377"
	.string	""
	.string	""
	.string	"\377"
	.string	""
	.string	""
	.string	"\377"
	.string	""
	.string	""
	.string	"\377"
	.string	""
	.string	""
	.string	"\377"
	.string	""
	.string	""
	.string	"\377"
	.string	""
	.string	""
	.string	"\377"
	.string	""
	.string	""
	.string	"\377\340\260"
	.string	"\377\340\260"
	.string	"\377\340\260"
	.string	"\377\340\260"
	.string	"\377\340\260"
	.string	"\377\340\260"
	.string	"\377\340\260"
	.string	"\377\340\260"
	.string	"\377\340\260"
	.string	"\377\340\260"
	.string	"\377\340\260"
	.string	"\377\340\260"
	.string	"\377\340\260"
	.string	"\377"
	.string	""
	.string	""
	.string	"\377"
	.string	""
	.string	""
	.string	"\377"
	.string	""
	.string	""
	.string	"\377"
	.string	""
	.string	""
	.string	"\377"
	.string	""
	.string	""
	.string	"\377\340\260"
	.string	"\377\340\260"
	.string	"\377\340\260"
	.string	"\377\340\260"
	.string	"\377\340\260"
	.string	"\377\340\260"
	.string	"\377"
	.string	""
	.string	""
	.string	"\377"
	.string	""
	.string	""
	.string	"\377"
	.string	""
	.string	""
	.string	"\377"
	.string	""
	.string	""
	.string	"\377"
	.string	""
	.string	""
	.string	"\377"
	.string	""
	.string	""
	.string	"\377"
	.string	""
	.string	""
	.string	"\377"
	.string	""
	.string	""
	.string	"\377"
	.string	""
	.string	""
	.string	"\377"
	.string	""
	.string	""
	.string	"\377"
	.string	""
	.string	""
	.string	"\377"
	.string	""
	.string	""
	.string	"\377"
	.string	""
	.string	""
	.string	"\377"
	.string	""
	.string	""
	.string	"\377"
	.string	""
	.string	""
	.string	"\377"
	.string	""
	.string	""
	.string	"\377"
	.string	""
	.string	""
	.string	"\377"
	.string	""
	.string	""
	.string	"\377"
	.string	""
	.string	""
	.string	"\377"
	.string	""
	.string	""
	.string	"\377"
	.string	""
	.string	""
	.string	"\377"
	.string	""
	.string	""
	.string	"\377"
	.string	""
	.string	""
	.string	"\377\340\260"
	.string	"\377\340\260"
	.string	"\377\340\260"
	.string	"\377\340\260"
	.string	"\377\340\260"
	.string	"\377\340\260"
	.string	"\377\340\260"
	.string	"\377\340\260"
	.string	"\377\340\260"
	.string	"\377\340\260"
	.string	"\377\340\260"
	.string	"\377\340\260"
	.string	"\377\340\260"
	.string	"\377\340\260"
	.string	"\377\340\260"
	.string	"\377"
	.string	""
	.string	""
	.string	"\377"
	.string	""
	.string	""
	.string	"\377"
	.string	""
	.string	""
	.string	"\377"
	.string	""
	.string	""
	.string	"\377"
	.string	""
	.string	""
	.string	"\377"
	.string	""
	.string	""
	.string	"\377\340\260"
	.string	"\377\340\260"
	.string	"\377\340\260"
	.string	"\377\340\260"
	.string	"\377"
	.string	""
	.string	""
	.string	"\377"
	.string	""
	.string	""
	.string	"\377"
	.string	""
	.string	""
	.string	"\377"
	.string	""
	.string	""
	.string	"\377"
	.string	""
	.string	""
	.string	"\377"
	.string	""
	.string	""
	.string	"\377\340\260"
	.string	"\377\340\260"
	.string	"\377\340\260"
	.string	"\377\340\260"
	.string	"\377"
	.string	""
	.string	""
	.string	"\377"
	.string	""
	.string	""
	.string	"\377"
	.string	""
	.string	""
	.string	"\377"
	.string	""
	.string	""
	.string	"\377"
	.string	""
	.string	""
	.string	"\377"
	.string	""
	.string	""
	.string	"\377"
	.string	""
	.string	""
	.string	"\377\340\260"
	.string	"\377\340\260"
	.string	"\377\340\260"
	.string	"\377\340\260"
	.string	"\377"
	.string	""
	.string	""
	.string	"\377\340\260"
	.string	"\377\340\260"
	.string	"\377\340\260"
	.string	"\377\340\260"
	.string	"\377\340\260"
	.string	"\377\340\260"
	.string	"\377\340\260"
	.string	"\377\340\260"
	.string	"\377\340\260"
	.string	"\377"
	.string	""
	.string	""
	.string	"\377"
	.string	""
	.string	""
	.string	"\377"
	.string	""
	.string	""
	.string	"\377"
	.string	""
	.string	""
	.string	"\377"
	.string	""
	.string	""
	.string	"\377"
	.string	""
	.string	""
	.string	"\377"
	.string	""
	.string	""
	.string	"\377\340\260"
	.string	"\377\340\260"
	.string	"\377\340\260"
	.string	"\377\340\260"
	.string	"\377"
	.string	""
	.string	""
	.string	"\377"
	.string	""
	.string	""
	.string	"\377"
	.string	""
	.string	""
	.string	"\377"
	.string	""
	.string	""
	.string	"\377"
	.string	""
	.string	""
	.string	"\377"
	.string	""
	.string	""
	.string	"\377"
	.string	""
	.string	""
	.string	"\377"
	.string	""
	.string	""
	.string	"\377"
	.string	""
	.string	""
	.string	"\377"
	.string	""
	.string	""
	.string	"\377"
	.string	""
	.string	""
	.string	"\377"
	.string	""
	.string	""
	.string	"\377\340\260"
	.string	"\377\340\260"
	.string	"\377\340\260"
	.string	"\377\340\260"
	.string	"\377"
	.string	""
	.string	""
	.string	"\377"
	.string	""
	.string	""
	.string	"\377"
	.string	""
	.string	""
	.string	"\377"
	.string	""
	.string	""
	.string	"\377"
	.string	""
	.string	""
	.string	"\377"
	.string	""
	.string	""
	.string	"\377"
	.string	""
	.string	""
	.string	"\377\340\260"
	.string	"\377\340\260"
	.string	"\377\340\260"
	.string	"\377\340\260"
	.string	"\377"
	.string	""
	.string	""
	.string	"\377\340\260"
	.string	"\377\340\260"
	.string	"\377\340\260"
	.string	"\377\340\260"
	.string	"\377"
	.string	""
	.string	""
	.string	"\377"
	.string	""
	.string	""
	.string	"\377"
	.string	""
	.string	""
	.string	"\377"
	.string	""
	.string	""
	.string	"\377"
	.string	""
	.string	""
	.string	"\377"
	.string	""
	.string	""
	.string	"\377"
	.string	""
	.string	""
	.string	"\377\340\260"
	.string	"\377\340\260"
	.string	"\377\340\260"
	.string	"\377\340\260"
	.string	"\377"
	.string	""
	.string	""
	.string	"\377\340\260"
	.string	"\377\340\260"
	.string	"\377\340\260"
	.string	"\377\340\260"
	.string	"\377"
	.string	""
	.string	""
	.string	"\377"
	.string	""
	.string	""
	.string	"\377"
	.string	""
	.string	""
	.string	"\377"
	.string	""
	.string	""
	.string	"\377"
	.string	""
	.string	""
	.string	"\377"
	.string	""
	.string	""
	.string	"\377"
	.string	""
	.string	""
	.string	"\377\340\260"
	.string	"\377\340\260"
	.string	"\377\340\260"
	.string	"\377\340\260"
	.string	"\377"
	.string	""
	.string	""
	.string	"\377\340\260"
	.string	"\377\340\260"
	.string	"\377\340\260"
	.string	"\377\340\260"
	.string	"\377\340\260"
	.string	"\377\340\260"
	.string	"\377\340\260"
	.string	"\377\340\260"
	.string	"\377\340\260"
	.string	"\377\340\260"
	.string	"\377\340\260"
	.string	"\377\340\260"
	.string	"\377\340\260"
	.string	"\377\340\260"
	.string	"\377"
	.string	""
	.string	""
	.string	"\377"
	.string	""
	.string	""
	.string	"\377\340\260"
	.string	"\377\340\260"
	.string	"\377\340\260"
	.string	"\377\340\260"
	.string	"\377"
	.string	""
	.string	""
	.string	"\377"
	.string	""
	.string	""
	.string	"\377"
	.string	""
	.string	""
	.string	"\377"
	.string	""
	.string	""
	.string	"\377\340\260"
	.string	"\377\340\260"
	.string	"\377"
	.string	""
	.string	""
	.string	"\377\340\260"
	.string	"\377\340\260"
	.string	"\377\340\260"
	.string	"\377\340\260"
	.string	"\377"
	.string	""
	.string	""
	.string	"\377\340\260"
	.string	"\377\340\260"
	.string	"\377\340\260"
	.string	"\377\340\260"
	.string	"\377\340\260"
	.string	"\377\340\260"
	.string	"\377\340\260"
	.string	"\377\340\260"
	.string	"\377\340\260"
	.string	"\377\340\260"
	.string	"\377\340\260"
	.string	"\377\340\260"
	.string	"\377\340\260"
	.string	"\377\340\260"
	.string	"\377"
	.string	""
	.string	""
	.string	"\377"
	.string	""
	.string	""
	.string	"\377"
	.string	""
	.string	""
	.string	"\377"
	.string	""
	.string	""
	.string	"\377"
	.string	""
	.string	""
	.string	"\377"
	.string	""
	.string	""
	.string	"\377\340\260"
	.string	"\377\340\260"
	.string	"\377\340\260"
	.string	"\377\340\260"
	.string	"\377\340\260"
	.string	"\377\340\260"
	.string	"\377\340\260"
	.string	"\377\340\260"
	.string	"\377\340\260"
	.string	"\377\340\260"
	.string	"\377"
	.string	""
	.string	""
	.string	"\377"
	.string	""
	.string	""
	.string	"\377"
	.string	""
	.string	""
	.string	"\377"
	.string	""
	.string	""
	.string	"\377"
	.string	""
	.string	""
	.string	"\377"
	.string	""
	.string	""
	.string	"\377"
	.string	""
	.string	""
	.string	"\377"
	.string	""
	.string	""
	.string	"\377"
	.string	""
	.string	""
	.string	"\377"
	.string	""
	.string	""
	.string	"\377"
	.string	""
	.string	""
	.string	"\377"
	.string	""
	.string	""
	.string	"\377"
	.string	""
	.string	""
	.string	"\377\340\260"
	.string	"\377\340\260"
	.string	"\377\340\260"
	.string	"\377\340\260"
	.string	"\377"
	.string	""
	.string	""
	.string	"\377\340\260"
	.string	"\377\340\260"
	.string	"\377\340\260"
	.string	"\377\340\260"
	.string	"\377"
	.string	""
	.string	""
	.string	"\377"
	.string	""
	.string	""
	.string	"\377"
	.string	""
	.string	""
	.string	"\377"
	.string	""
	.string	""
	.string	"\377"
	.string	""
	.string	""
	.string	"\377"
	.string	""
	.string	""
	.string	"\377"
	.string	""
	.string	""
	.string	"\377\340\260"
	.string	"\377\340\260"
	.string	"\377\340\260"
	.string	"\377\340\260"
	.string	"\377"
	.string	""
	.string	""
	.string	"\377"
	.string	""
	.string	""
	.string	"\377"
	.string	""
	.string	""
	.string	"\377"
	.string	""
	.string	""
	.string	"\377"
	.string	""
	.string	""
	.string	"\377\340\260"
	.string	"\377\340\260"
	.string	"\377\340\260"
	.string	"\377"
	.string	""
	.string	""
	.string	"\377"
	.string	""
	.string	""
	.string	"\377\340\260"
	.string	"\377\340\260"
	.string	"\377\340\260"
	.string	"\377"
	.string	""
	.string	""
	.string	"\377"
	.string	""
	.string	""
	.string	"\377"
	.string	""
	.string	""
	.string	"\377"
	.string	""
	.string	""
	.string	"\377\340\260"
	.string	"\377\340\260"
	.string	"\377\340\260"
	.string	"\377\340\260"
	.string	"\377"
	.string	""
	.string	""
	.string	"\377"
	.string	""
	.string	""
	.string	"\377\340\260"
	.string	"\377\340\260"
	.string	"\377\340\260"
	.string	"\377"
	.string	""
	.string	""
	.string	"\377"
	.string	""
	.string	""
	.string	"\377\340\260"
	.string	"\377\340\260"
	.string	"\377\340\260"
	.string	"\377\340\260"
	.string	"\377"
	.string	""
	.string	""
	.string	"\377"
	.string	""
	.string	""
	.string	"\377"
	.string	""
	.string	""
	.string	"\377"
	.string	""
	.string	""
	.string	"\377"
	.string	""
	.string	""
	.string	"\377\340\260"
	.string	"\377\340\260"
	.string	"\377\340\260"
	.string	"\377\340\260"
	.string	"\377\340\260"
	.string	"\377\340\260"
	.string	"\377\340\260"
	.string	"\377"
	.string	""
	.string	""
	.string	"\377"
	.string	""
	.string	""
	.string	"\377"
	.string	""
	.string	""
	.string	"\377"
	.string	""
	.string	""
	.string	"\377"
	.string	""
	.string	""
	.string	"\377"
	.string	""
	.string	""
	.string	"\377"
	.string	""
	.string	""
	.string	"\377"
	.string	""
	.string	""
	.string	"\377"
	.string	""
	.string	""
	.string	"\377\340\260"
	.string	"\377\340\260"
	.string	"\377\340\260"
	.string	"\377\340\260"
	.string	"\377\340\260"
	.string	"\377\340\260"
	.string	"\377\340\260"
	.string	"\377\340\260"
	.string	"\377\340\260"
	.string	"\377\340\260"
	.string	"\377\340\260"
	.string	"\377"
	.string	""
	.string	""
	.string	"\377"
	.string	""
	.string	""
	.string	"\377"
	.string	""
	.string	""
	.string	"\377"
	.string	""
	.string	""
	.string	"\377\340\260"
	.string	"\377\340\260"
	.string	"\377\340\260"
	.string	"\377\340\260"
	.string	"\377\340\260"
	.string	"\377\340\260"
	.string	"\377"
	.string	""
	.string	""
	.string	"\377"
	.string	""
	.string	""
	.string	"\377"
	.string	""
	.string	""
	.string	"\377"
	.string	""
	.string	""
	.string	"\377"
	.string	""
	.string	""
	.string	"\377"
	.string	""
	.string	""
	.string	"\377"
	.string	""
	.string	""
	.string	"\377"
	.string	""
	.string	""
	.string	"\377"
	.string	""
	.string	""
	.string	"\377"
	.string	""
	.string	""
	.string	"\377"
	.string	""
	.string	""
	.string	"\377"
	.string	""
	.string	""
	.string	"\377"
	.string	""
	.string	""
	.string	"\377"
	.string	""
	.string	""
	.string	"\377"
	.string	""
	.string	""
	.string	"\377"
	.string	""
	.string	""
	.string	"\377"
	.string	""
	.string	""
	.string	"\377"
	.string	""
	.string	""
	.string	"\377"
	.string	""
	.string	""
	.string	"\377"
	.string	""
	.string	""
	.string	"\377"
	.string	""
	.string	""
	.string	"\377"
	.string	""
	.string	""
	.string	"\377"
	.string	""
	.string	""
	.string	"\377"
	.string	""
	.string	""
	.string	"\377\340\260"
	.string	"\377\340\260"
	.string	"\377\340\260"
	.string	"\377\340\260"
	.string	"\377"
	.string	""
	.string	""
	.string	"\377"
	.string	""
	.string	""
	.string	"\377"
	.string	""
	.string	""
	.string	"\377"
	.string	""
	.string	""
	.string	"\377"
	.string	""
	.string	""
	.string	"\377"
	.string	""
	.string	""
	.string	"\377"
	.string	""
	.string	""
	.string	"\377\340\260"
	.string	"\377\340\260"
	.string	"\377\340\260"
	.string	"\377\340\260"
	.string	"\377"
	.string	""
	.string	""
	.string	"\377"
	.string	""
	.string	""
	.string	"\377"
	.string	""
	.string	""
	.string	"\377"
	.string	""
	.string	""
	.string	"\377"
	.string	""
	.string	""
	.string	"\377"
	.string	""
	.string	""
	.string	"\377\340\260"
	.string	"\377\340\260"
	.string	"\377\340\260"
	.string	"\377\340\260"
	.string	"\377"
	.string	""
	.string	""
	.string	"\377"
	.string	""
	.string	""
	.string	"\377"
	.string	""
	.string	""
	.string	"\377"
	.string	""
	.string	""
	.string	"\377"
	.string	""
	.string	""
	.string	"\377"
	.string	""
	.string	""
	.string	"\377\340\260"
	.string	"\377\340\260"
	.string	"\377\340\260"
	.string	"\377\340\260"
	.string	"\377"
	.string	""
	.string	""
	.string	"\377"
	.string	""
	.string	""
	.string	"\377"
	.string	""
	.string	""
	.string	"\377"
	.string	""
	.string	""
	.string	"\377"
	.string	""
	.string	""
	.string	"\377"
	.string	""
	.string	""
	.string	"\377"
	.string	""
	.string	""
	.string	"\377\340\260"
	.string	"\377\340\260"
	.string	"\377\340\260"
	.string	"\377\340\260"
	.string	"\377"
	.string	""
	.string	""
	.string	"\377\340\260"
	.string	"\377\340\260"
	.string	"\377\340\260"
	.string	"\377\340\260"
	.string	"\377"
	.string	""
	.string	""
	.string	"\377\340\260"
	.string	"\377\340\260"
	.string	"\377\340\260"
	.string	"\377\340\260"
	.string	"\377\340\260"
	.string	"\377"
	.string	""
	.string	""
	.string	"\377"
	.string	""
	.string	""
	.ascii	"\377"
	.string	""
	.string	""
	.string	""
	.string	"\377"
	.string	""
	.string	""
	.string	"\377"
	.string	""
	.string	""
	.string	"\377"
	.string	""
	.string	""
	.string	"\377\340\260"
	.string	"\377\340\260"
	.string	"\377\340\260"
	.string	"\377\340\260"
	.string	"\377"
	.string	""
	.string	""
	.string	"\377"
	.string	""
	.string	""
	.string	"\377"
	.string	""
	.string	""
	.string	"\377"
	.string	""
	.string	""
	.string	"\377"
	.string	""
	.string	""
	.string	"\377"
	.string	""
	.string	""
	.string	"\377"
	.string	""
	.string	""
	.string	"\377"
	.string	""
	.string	""
	.string	"\377"
	.string	""
	.string	""
	.string	"\377"
	.string	""
	.string	""
	.string	"\377"
	.string	""
	.string	""
	.string	"\377"
	.string	""
	.string	""
	.string	"\377\340\260"
	.string	"\377\340\260"
	.string	"\377\340\260"
	.string	"\377\340\260"
	.string	"\377"
	.string	""
	.string	""
	.string	"\377"
	.string	""
	.string	""
	.string	"\377"
	.string	""
	.string	""
	.string	"\377"
	.string	""
	.string	""
	.string	"\377"
	.string	""
	.string	""
	.string	"\377"
	.string	""
	.string	""
	.string	"\377"
	.string	""
	.string	""
	.string	"\377\340\260"
	.string	"\377\340\260"
	.string	"\377\340\260"
	.string	"\377\340\260"
	.string	"\377"
	.string	""
	.string	""
	.string	"\377\340\260"
	.string	"\377\340\260"
	.string	"\377\340\260"
	.string	"\377\340\260"
	.string	"\377"
	.string	""
	.string	""
	.string	"\377"
	.string	""
	.string	""
	.string	"\377"
	.string	""
	.string	""
	.string	"\377"
	.string	""
	.string	""
	.string	"\377"
	.string	""
	.string	""
	.string	"\377"
	.string	""
	.string	""
	.string	"\377"
	.string	""
	.string	""
	.string	"\377\340\260"
	.string	"\377\340\260"
	.string	"\377\340\260"
	.string	"\377\340\260"
	.string	"\377"
	.string	""
	.string	""
	.string	"\377\340\260"
	.string	"\377\340\260"
	.string	"\377\340\260"
	.string	"\377\340\260"
	.string	"\377"
	.string	""
	.string	""
	.string	"\377"
	.string	""
	.string	""
	.string	"\377"
	.string	""
	.string	""
	.string	"\377"
	.string	""
	.string	""
	.string	"\377"
	.string	""
	.string	""
	.string	"\377"
	.string	""
	.string	""
	.string	"\377"
	.string	""
	.string	""
	.string	"\377\340\260"
	.string	"\377\340\260"
	.string	"\377\340\260"
	.string	"\377\340\260"
	.string	"\377"
	.string	""
	.string	""
	.string	"\377\340\260"
	.string	"\377\340\260"
	.string	"\377\340\260"
	.string	"\377\340\260"
	.string	"\377\340\260"
	.string	"\377\340\260"
	.string	"\377\340\260"
	.string	"\377\340\260"
	.string	"\377\340\260"
	.string	"\377\340\260"
	.string	"\377\340\260"
	.string	"\377\340\260"
	.string	"\377\340\260"
	.string	"\377"
	.string	""
	.string	""
	.string	"\377"
	.string	""
	.string	""
	.string	"\377"
	.string	""
	.string	""
	.string	"\377\340\260"
	.string	"\377\340\260"
	.string	"\377\340\260"
	.string	"\377\340\260"
	.string	"\377"
	.string	""
	.string	""
	.string	"\377"
	.string	""
	.string	""
	.string	"\377"
	.string	""
	.string	""
	.string	"\377"
	.string	""
	.string	""
	.string	"\377\340\260"
	.string	"\377\340\260"
	.string	"\377\340\260"
	.string	"\377\340\260"
	.string	"\377\340\260"
	.string	"\377\340\260"
	.string	"\377\340\260"
	.string	"\377"
	.string	""
	.string	""
	.string	"\377\340\260"
	.string	"\377\340\260"
	.string	"\377\340\260"
	.string	"\377\340\260"
	.string	"\377\340\260"
	.string	"\377\340\260"
	.string	"\377\340\260"
	.string	"\377\340\260"
	.string	"\377\340\260"
	.string	"\377\340\260"
	.string	"\377\340\260"
	.string	"\377\340\260"
	.string	"\377\340\260"
	.string	"\377"
	.string	""
	.string	""
	.string	"\377"
	.string	""
	.string	""
	.string	"\377"
	.string	""
	.string	""
	.string	"\377"
	.string	""
	.string	""
	.string	"\377"
	.string	""
	.string	""
	.string	"\377"
	.string	""
	.string	""
	.string	"\377"
	.string	""
	.string	""
	.string	"\377"
	.string	""
	.string	""
	.string	"\377"
	.string	""
	.string	""
	.string	"\377"
	.string	""
	.string	""
	.string	"\377"
	.string	""
	.string	""
	.string	"\377"
	.string	""
	.string	""
	.string	"\377"
	.string	""
	.string	""
	.string	"\377"
	.string	""
	.string	""
	.string	"\377\340\260"
	.string	"\377\340\260"
	.string	"\377\340\260"
	.string	"\377\340\260"
	.string	"\377"
	.string	""
	.string	""
	.string	"\377"
	.string	""
	.string	""
	.string	"\377"
	.string	""
	.string	""
	.string	"\377"
	.string	""
	.string	""
	.string	"\377"
	.string	""
	.string	""
	.string	"\377"
	.string	""
	.string	""
	.string	"\377"
	.string	""
	.string	""
	.string	"\377"
	.string	""
	.string	""
	.string	"\377"
	.string	""
	.string	""
	.string	"\377"
	.string	""
	.string	""
	.string	"\377"
	.string	""
	.string	""
	.string	"\377"
	.string	""
	.string	""
	.string	"\377\340\260"
	.string	"\377\340\260"
	.string	"\377\340\260"
	.string	"\377\340\260"
	.string	"\377"
	.string	""
	.string	""
	.string	"\377\340\260"
	.string	"\377\340\260"
	.string	"\377\340\260"
	.string	"\377\340\260"
	.string	"\377"
	.string	""
	.string	""
	.string	"\377"
	.string	""
	.string	""
	.string	"\377"
	.string	""
	.string	""
	.string	"\377"
	.string	""
	.string	""
	.string	"\377"
	.string	""
	.string	""
	.string	"\377"
	.string	""
	.string	""
	.string	"\377"
	.string	""
	.string	""
	.string	"\377\340\260"
	.string	"\377\340\260"
	.string	"\377\340\260"
	.string	"\377\340\260"
	.string	"\377"
	.string	""
	.string	""
	.string	"\377"
	.string	""
	.string	""
	.string	"\377"
	.string	""
	.string	""
	.string	"\377"
	.string	""
	.string	""
	.string	"\377"
	.string	""
	.string	""
	.string	"\377\340\260"
	.string	"\377\340\260"
	.string	"\377\340\260"
	.string	"\377\340\260"
	.string	"\377\340\260"
	.string	"\377\340\260"
	.string	"\377\340\260"
	.string	"\377\340\260"
	.string	"\377"
	.string	""
	.string	""
	.string	"\377"
	.string	""
	.string	""
	.string	"\377"
	.string	""
	.string	""
	.string	"\377"
	.string	""
	.string	""
	.string	"\377\340\260"
	.string	"\377\340\260"
	.string	"\377\340\260"
	.string	"\377\340\260"
	.string	"\377"
	.string	""
	.string	""
	.string	"\377"
	.string	""
	.string	""
	.string	"\377\340\260"
	.string	"\377\340\260"
	.string	"\377\340\260"
	.string	"\377"
	.string	""
	.string	""
	.string	"\377"
	.string	""
	.string	""
	.string	"\377\340\260"
	.string	"\377\340\260"
	.string	"\377\340\260"
	.string	"\377\340\260"
	.string	"\377"
	.string	""
	.string	""
	.string	"\377"
	.string	""
	.string	""
	.string	"\377"
	.string	""
	.string	""
	.string	"\377"
	.string	""
	.string	""
	.string	"\377"
	.string	""
	.string	""
	.string	"\377\340\260"
	.string	"\377\340\260"
	.string	"\377\340\260"
	.string	"\377\340\260"
	.string	"\377\340\260"
	.string	"\377\340\260"
	.string	"\377\340\260"
	.string	"\377"
	.string	""
	.string	""
	.string	"\377"
	.string	""
	.string	""
	.string	"\377"
	.string	""
	.string	""
	.string	"\377"
	.string	""
	.string	""
	.string	"\377"
	.string	""
	.string	""
	.string	"\377"
	.string	""
	.string	""
	.string	"\377"
	.string	""
	.string	""
	.string	"\377"
	.string	""
	.string	""
	.string	"\377"
	.string	""
	.string	""
	.string	"\377"
	.string	""
	.string	""
	.string	"\377"
	.string	""
	.string	""
	.string	"\377"
	.string	""
	.string	""
	.string	"\377"
	.string	""
	.string	""
	.string	"\377"
	.string	""
	.string	""
	.string	"\377"
	.string	""
	.string	""
	.string	"\377"
	.string	""
	.string	""
	.string	"\377\340\260"
	.string	"\377\340\260"
	.string	"\377\340\260"
	.string	"\377\340\260"
	.string	"\377"
	.string	""
	.string	""
	.string	"\377"
	.string	""
	.string	""
	.string	"\377"
	.string	""
	.string	""
	.string	"\377\340\260"
	.string	"\377\340\260"
	.string	"\377\340\260"
	.string	"\377\340\260"
	.string	"\377\340\260"
	.string	"\377\340\260"
	.string	"\377"
	.string	""
	.string	""
	.string	"\377"
	.string	""
	.string	""
	.string	"\377"
	.string	""
	.string	""
	.string	"\377"
	.string	""
	.string	""
	.string	"\377"
	.string	""
	.string	""
	.string	"\377"
	.string	""
	.string	""
	.string	"\377"
	.string	""
	.string	""
	.string	"\377"
	.string	""
	.string	""
	.string	"\377"
	.string	""
	.string	""
	.string	"\377"
	.string	""
	.string	""
	.string	"\377"
	.string	""
	.string	""
	.string	"\377"
	.string	""
	.string	""
	.string	"\377"
	.string	""
	.string	""
	.string	"\377"
	.string	""
	.string	""
	.string	"\377"
	.string	""
	.string	""
	.string	"\377"
	.string	""
	.string	""
	.string	"\377"
	.string	""
	.string	""
	.string	"\377"
	.string	""
	.string	""
	.string	"\377"
	.string	""
	.string	""
	.string	"\377"
	.string	""
	.string	""
	.string	"\377"
	.string	""
	.string	""
	.string	"\377"
	.string	""
	.string	""
	.string	"\377"
	.string	""
	.string	""
	.string	"\377"
	.string	""
	.string	""
	.string	"\377"
	.string	""
	.string	""
	.string	"\377\340\260"
	.string	"\377\340\260"
	.string	"\377\340\260"
	.string	"\377\340\260"
	.string	"\377"
	.string	""
	.string	""
	.string	"\377"
	.string	""
	.string	""
	.string	"\377"
	.string	""
	.string	""
	.string	"\377"
	.string	""
	.string	""
	.string	"\377"
	.string	""
	.string	""
	.string	"\377"
	.string	""
	.string	""
	.string	"\377"
	.string	""
	.string	""
	.string	"\377\340\260"
	.string	"\377\340\260"
	.string	"\377\340\260"
	.string	"\377\340\260"
	.string	"\377"
	.string	""
	.string	""
	.string	"\377"
	.string	""
	.string	""
	.string	"\377"
	.string	""
	.string	""
	.string	"\377"
	.string	""
	.string	""
	.string	"\377"
	.string	""
	.string	""
	.string	"\377"
	.string	""
	.string	""
	.string	"\377\340\260"
	.string	"\377\340\260"
	.string	"\377\340\260"
	.string	"\377\340\260"
	.string	"\377"
	.string	""
	.string	""
	.string	"\377"
	.string	""
	.string	""
	.string	"\377"
	.string	""
	.string	""
	.string	"\377"
	.string	""
	.string	""
	.string	"\377"
	.string	""
	.string	""
	.string	"\377"
	.string	""
	.string	""
	.string	"\377\340\260"
	.string	"\377\340\260"
	.string	"\377\340\260"
	.string	"\377\340\260"
	.string	"\377\340\260"
	.string	"\377"
	.string	""
	.string	""
	.string	"\377"
	.string	""
	.string	""
	.string	"\377"
	.string	""
	.string	""
	.string	"\377"
	.string	""
	.string	""
	.string	"\377"
	.string	""
	.string	""
	.string	"\377\340\260"
	.string	"\377\340\260"
	.string	"\377\340\260"
	.string	"\377\340\260"
	.string	"\377\340\260"
	.string	"\377"
	.string	""
	.string	""
	.string	"\377\340\260"
	.string	"\377\340\260"
	.string	"\377\340\260"
	.string	"\377\340\260"
	.string	"\377"
	.string	""
	.string	""
	.string	"\377"
	.string	""
	.string	""
	.string	"\377\340\260"
	.string	"\377\340\260"
	.string	"\377\340\260"
	.string	"\377\340\260"
	.string	"\377\340\260"
	.string	"\377"
	.string	""
	.string	""
	.string	"\377"
	.string	""
	.string	""
	.string	"\377"
	.string	""
	.string	""
	.string	"\377"
	.string	""
	.string	""
	.string	"\377"
	.string	""
	.string	""
	.string	"\377\340\260"
	.string	"\377\340\260"
	.string	"\377\340\260"
	.string	"\377\340\260"
	.string	"\377\340\260"
	.string	"\377"
	.string	""
	.string	""
	.string	"\377"
	.string	""
	.string	""
	.string	"\377"
	.string	""
	.string	""
	.string	"\377"
	.string	""
	.string	""
	.string	"\377"
	.string	""
	.string	""
	.string	"\377"
	.string	""
	.string	""
	.string	"\377"
	.string	""
	.string	""
	.string	"\377"
	.string	""
	.string	""
	.string	"\377"
	.string	""
	.string	""
	.string	"\377"
	.string	""
	.string	""
	.string	"\377"
	.string	""
	.string	""
	.string	"\377\340\260"
	.string	"\377\340\260"
	.string	"\377\340\260"
	.string	"\377\340\260"
	.string	"\377"
	.string	""
	.string	""
	.string	"\377"
	.string	""
	.string	""
	.string	"\377"
	.string	""
	.string	""
	.string	"\377"
	.string	""
	.string	""
	.string	"\377"
	.string	""
	.string	""
	.string	"\377"
	.string	""
	.string	""
	.string	"\377"
	.string	""
	.string	""
	.string	"\377\340\260"
	.string	"\377\340\260"
	.string	"\377\340\260"
	.string	"\377\340\260"
	.string	"\377"
	.string	""
	.string	""
	.string	"\377\340\260"
	.string	"\377\340\260"
	.string	"\377\340\260"
	.string	"\377\340\260"
	.string	"\377"
	.string	""
	.string	""
	.string	"\377"
	.string	""
	.string	""
	.string	"\377"
	.string	""
	.string	""
	.string	"\377"
	.string	""
	.string	""
	.string	"\377"
	.string	""
	.string	""
	.string	"\377"
	.string	""
	.string	""
	.string	"\377"
	.string	""
	.string	""
	.string	"\377\340\260"
	.string	"\377\340\260"
	.string	"\377\340\260"
	.string	"\377\340\260"
	.string	"\377"
	.string	""
	.string	""
	.string	"\377\340\260"
	.string	"\377\340\260"
	.string	"\377\340\260"
	.string	"\377\340\260"
	.string	"\377\340\260"
	.string	"\377"
	.string	""
	.string	""
	.string	"\377"
	.string	""
	.string	""
	.string	"\377"
	.string	""
	.string	""
	.string	"\377"
	.string	""
	.string	""
	.string	"\377"
	.string	""
	.string	""
	.string	"\377\340\260"
	.string	"\377\340\260"
	.string	"\377\340\260"
	.string	"\377\340\260"
	.string	"\377\340\260"
	.string	"\377"
	.string	""
	.string	""
	.string	"\377\340\260"
	.string	"\377\340\260"
	.string	"\377\340\260"
	.string	"\377\340\260"
	.string	"\377\340\260"
	.string	"\377\340\260"
	.string	"\377\340\260"
	.string	"\377\340\260"
	.string	"\377\340\260"
	.string	"\377\340\260"
	.string	"\377\340\260"
	.string	"\377"
	.string	""
	.string	""
	.string	"\377"
	.string	""
	.string	""
	.string	"\377"
	.string	""
	.string	""
	.string	"\377"
	.string	""
	.string	""
	.string	"\377"
	.string	""
	.string	""
	.string	"\377\340\260"
	.string	"\377\340\260"
	.string	"\377\340\260"
	.string	"\377\340\260"
	.string	"\377\340\260"
	.string	"\377"
	.string	""
	.string	""
	.string	"\377"
	.string	""
	.string	""
	.string	"\377"
	.string	""
	.string	""
	.string	"\377"
	.string	""
	.string	""
	.string	"\377\340\260"
	.string	"\377\340\260"
	.string	"\377\340\260"
	.string	"\377\340\260"
	.string	"\377\340\260"
	.string	"\377\340\260"
	.string	"\377"
	.string	""
	.string	""
	.string	"\377\340\260"
	.string	"\377\340\260"
	.string	"\377\340\260"
	.string	"\377\340\260"
	.string	"\377\340\260"
	.string	"\377\340\260"
	.string	"\377\340\260"
	.string	"\377\340\260"
	.string	"\377\340\260"
	.string	"\377\340\260"
	.string	"\377\340\260"
	.string	"\377\340\260"
	.string	"\377\340\260"
	.string	"\377"
	.string	""
	.string	""
	.string	"\377"
	.string	""
	.string	""
	.string	"\377"
	.string	""
	.string	""
	.string	"\377\340\260"
	.string	"\377\340\260"
	.string	"\377\340\260"
	.string	"\377\340\260"
	.string	"\377"
	.string	""
	.string	""
	.string	"\377"
	.string	""
	.string	""
	.string	"\377"
	.string	""
	.string	""
	.string	"\377"
	.string	""
	.string	""
	.string	"\377"
	.string	""
	.string	""
	.string	"\377"
	.string	""
	.string	""
	.string	"\377"
	.string	""
	.string	""
	.string	"\377\340\260"
	.string	"\377\340\260"
	.string	"\377\340\260"
	.string	"\377\340\260"
	.string	"\377"
	.string	""
	.string	""
	.string	"\377"
	.string	""
	.string	""
	.string	"\377"
	.string	""
	.string	""
	.string	"\377"
	.string	""
	.string	""
	.string	"\377"
	.string	""
	.string	""
	.string	"\377"
	.string	""
	.string	""
	.string	"\377"
	.string	""
	.string	""
	.string	"\377"
	.string	""
	.string	""
	.string	"\377"
	.string	""
	.string	""
	.string	"\377"
	.string	""
	.string	""
	.string	"\377"
	.string	""
	.string	""
	.string	"\377"
	.string	""
	.string	""
	.string	"\377\340\260"
	.string	"\377\340\260"
	.string	"\377\340\260"
	.string	"\377\340\260"
	.string	"\377"
	.string	""
	.string	""
	.string	"\377\340\260"
	.string	"\377\340\260"
	.string	"\377\340\260"
	.string	"\377\340\260"
	.string	"\377\340\260"
	.string	"\377"
	.string	""
	.string	""
	.string	"\377"
	.string	""
	.string	""
	.string	"\377"
	.string	""
	.string	""
	.string	"\377"
	.string	""
	.string	""
	.string	"\377"
	.string	""
	.string	""
	.string	"\377\340\260"
	.string	"\377\340\260"
	.string	"\377\340\260"
	.string	"\377\340\260"
	.string	"\377\340\260"
	.string	"\377"
	.string	""
	.string	""
	.string	"\377"
	.string	""
	.string	""
	.string	"\377"
	.string	""
	.string	""
	.string	"\377"
	.string	""
	.string	""
	.string	"\377"
	.string	""
	.string	""
	.string	"\377\340\260"
	.string	"\377\340\260"
	.string	"\377\340\260"
	.string	"\377\340\260"
	.string	"\377\340\260"
	.string	"\377\340\260"
	.string	"\377\340\260"
	.string	"\377"
	.string	""
	.string	""
	.string	"\377"
	.string	""
	.string	""
	.string	"\377"
	.string	""
	.string	""
	.string	"\377"
	.string	""
	.string	""
	.string	"\377"
	.string	""
	.string	""
	.ascii	"\377"
	.string	"\340\260"
	.string	"\377\340\260"
	.string	"\377\340\260"
	.string	"\377\340\260"
	.string	"\377\340\260"
	.string	"\377"
	.string	""
	.string	""
	.string	"\377\340\260"
	.string	"\377\340\260"
	.string	"\377\340\260"
	.string	"\377"
	.string	""
	.string	""
	.string	"\377\340\260"
	.string	"\377\340\260"
	.string	"\377\340\260"
	.string	"\377\340\260"
	.string	"\377\340\260"
	.string	"\377"
	.string	""
	.string	""
	.string	"\377"
	.string	""
	.string	""
	.string	"\377"
	.string	""
	.string	""
	.string	"\377"
	.string	""
	.string	""
	.string	"\377\340\260"
	.string	"\377\340\260"
	.string	"\377\340\260"
	.string	"\377\340\260"
	.string	"\377"
	.string	""
	.string	""
	.string	"\377\340\260"
	.string	"\377\340\260"
	.string	"\377\340\260"
	.string	"\377\340\260"
	.string	"\377"
	.string	""
	.string	""
	.string	"\377"
	.string	""
	.string	""
	.string	"\377"
	.string	""
	.string	""
	.string	"\377"
	.string	""
	.string	""
	.string	"\377\340\260"
	.string	"\377\340\260"
	.string	"\377\340\260"
	.string	"\377\340\260"
	.string	"\377"
	.string	""
	.string	""
	.string	"\377"
	.string	""
	.string	""
	.string	"\377"
	.string	""
	.string	""
	.string	"\377"
	.string	""
	.string	""
	.string	"\377"
	.string	""
	.string	""
	.string	"\377"
	.string	""
	.string	""
	.string	"\377\340\260"
	.string	"\377\340\260"
	.string	"\377\340\260"
	.string	"\377\340\260"
	.string	"\377\340\260"
	.string	"\377"
	.string	""
	.string	""
	.string	"\377"
	.string	""
	.string	""
	.string	"\377\340\260"
	.string	"\377\340\260"
	.string	"\377\340\260"
	.string	"\377\340\260"
	.string	"\377\340\260"
	.string	"\377\340\260"
	.string	"\377"
	.string	""
	.string	""
	.string	"\377"
	.string	""
	.string	""
	.string	"\377"
	.string	""
	.string	""
	.string	"\377"
	.string	""
	.string	""
	.string	"\377"
	.string	""
	.string	""
	.string	"\377"
	.string	""
	.string	""
	.string	"\377"
	.string	""
	.string	""
	.string	"\377"
	.string	""
	.string	""
	.string	"\377"
	.string	""
	.string	""
	.string	"\377"
	.string	""
	.string	""
	.string	"\377"
	.string	""
	.string	""
	.string	"\377"
	.string	""
	.string	""
	.string	"\377"
	.string	""
	.string	""
	.string	"\377"
	.string	""
	.string	""
	.string	"\377"
	.string	""
	.string	""
	.string	"\377"
	.string	""
	.string	""
	.string	"\377"
	.string	""
	.string	""
	.string	"\377"
	.string	""
	.string	""
	.string	"\377"
	.string	""
	.string	""
	.string	"\377"
	.string	""
	.string	""
	.string	"\377"
	.string	""
	.string	""
	.string	"\377"
	.string	""
	.string	""
	.string	"\377"
	.string	""
	.string	""
	.string	"\377"
	.string	""
	.string	""
	.string	"\377"
	.string	""
	.string	""
	.string	"\377"
	.string	""
	.string	""
	.string	"\377\340\260"
	.string	"\377\340\260"
	.string	"\377\340\260"
	.string	"\377\340\260"
	.string	"\377"
	.string	""
	.string	""
	.string	"\377"
	.string	""
	.string	""
	.string	"\377"
	.string	""
	.string	""
	.string	"\377"
	.string	""
	.string	""
	.string	"\377"
	.string	""
	.string	""
	.string	"\377"
	.string	""
	.string	""
	.string	"\377"
	.string	""
	.string	""
	.string	"\377\340\260"
	.string	"\377\340\260"
	.string	"\377\340\260"
	.string	"\377\340\260"
	.string	"\377"
	.string	""
	.string	""
	.string	"\377\340\260"
	.string	"\377\340\260"
	.string	"\377\340\260"
	.string	"\377\340\260"
	.string	"\377\340\260"
	.string	"\377\340\260"
	.string	"\377\340\260"
	.string	"\377\340\260"
	.string	"\377\340\260"
	.string	"\377\340\260"
	.string	"\377\340\260"
	.string	"\377\340\260"
	.string	"\377\340\260"
	.string	"\377\340\260"
	.string	"\377"
	.string	""
	.string	""
	.string	"\377"
	.string	""
	.string	""
	.string	"\377\340\260"
	.string	"\377\340\260"
	.string	"\377\340\260"
	.string	"\377\340\260"
	.string	"\377\340\260"
	.string	"\377\340\260"
	.string	"\377\340\260"
	.string	"\377\340\260"
	.string	"\377\340\260"
	.string	"\377\340\260"
	.string	"\377\340\260"
	.string	"\377\340\260"
	.string	"\377\340\260"
	.string	"\377"
	.string	""
	.string	""
	.string	"\377"
	.string	""
	.string	""
	.string	"\377\340\260"
	.string	"\377\340\260"
	.string	"\377\340\260"
	.string	"\377\340\260"
	.string	"\377"
	.string	""
	.string	""
	.string	"\377"
	.string	""
	.string	""
	.string	"\377"
	.string	""
	.string	""
	.string	"\377\340\260"
	.string	"\377\340\260"
	.string	"\377\340\260"
	.string	"\377\340\260"
	.string	"\377\340\260"
	.string	"\377"
	.string	""
	.string	""
	.string	"\377"
	.string	""
	.string	""
	.string	"\377"
	.string	""
	.string	""
	.string	"\377"
	.string	""
	.string	""
	.string	"\377"
	.string	""
	.string	""
	.string	"\377\340\260"
	.string	"\377\340\260"
	.string	"\377\340\260"
	.string	"\377\340\260"
	.string	"\377\340\260"
	.string	"\377\340\260"
	.string	"\377\340\260"
	.string	"\377\340\260"
	.string	"\377\340\260"
	.string	"\377\340\260"
	.string	"\377\340\260"
	.string	"\377\340\260"
	.string	"\377\340\260"
	.string	"\377\340\260"
	.string	"\377"
	.string	""
	.string	""
	.string	"\377\340\260"
	.string	"\377\340\260"
	.string	"\377\340\260"
	.string	"\377\340\260"
	.string	"\377"
	.string	""
	.string	""
	.string	"\377"
	.string	""
	.string	""
	.string	"\377"
	.string	""
	.string	""
	.string	"\377"
	.string	""
	.string	""
	.string	"\377"
	.string	""
	.string	""
	.string	"\377"
	.string	""
	.string	""
	.string	"\377"
	.string	""
	.string	""
	.string	"\377\340\260"
	.string	"\377\340\260"
	.string	"\377\340\260"
	.string	"\377\340\260"
	.string	"\377"
	.string	""
	.string	""
	.string	"\377\340\260"
	.string	"\377\340\260"
	.string	"\377\340\260"
	.string	"\377\340\260"
	.string	"\377"
	.string	""
	.string	""
	.string	"\377"
	.string	""
	.string	""
	.string	"\377"
	.string	""
	.string	""
	.string	"\377"
	.string	""
	.string	""
	.string	"\377"
	.string	""
	.string	""
	.string	"\377"
	.string	""
	.string	""
	.string	"\377"
	.string	""
	.string	""
	.string	"\377\340\260"
	.string	"\377\340\260"
	.string	"\377\340\260"
	.string	"\377\340\260"
	.string	"\377"
	.string	""
	.string	""
	.string	"\377"
	.string	""
	.string	""
	.string	"\377\340\260"
	.string	"\377\340\260"
	.string	"\377\340\260"
	.string	"\377\340\260"
	.string	"\377\340\260"
	.string	"\377\340\260"
	.string	"\377\340\260"
	.string	"\377\340\260"
	.string	"\377\340\260"
	.string	"\377\340\260"
	.string	"\377\340\260"
	.string	"\377\340\260"
	.string	"\377\340\260"
	.string	"\377"
	.string	""
	.string	""
	.string	"\377"
	.string	""
	.string	""
	.string	"\377\340\260"
	.string	"\377\340\260"
	.string	"\377\340\260"
	.string	"\377\340\260"
	.string	"\377"
	.string	""
	.string	""
	.string	"\377"
	.string	""
	.string	""
	.string	"\377"
	.string	""
	.string	""
	.string	"\377"
	.string	""
	.string	""
	.string	"\377"
	.string	""
	.string	""
	.string	"\377"
	.string	""
	.string	""
	.string	"\377"
	.string	""
	.string	""
	.string	"\377"
	.string	""
	.string	""
	.string	"\377"
	.string	""
	.string	""
	.string	"\377"
	.string	""
	.string	""
	.string	"\377"
	.string	""
	.string	""
	.string	"\377"
	.string	""
	.string	""
	.string	"\377"
	.string	""
	.string	""
	.string	"\377\340\260"
	.string	"\377\340\260"
	.string	"\377\340\260"
	.string	"\377\340\260"
	.string	"\377\340\260"
	.string	"\377\340\260"
	.string	"\377\340\260"
	.string	"\377\340\260"
	.string	"\377\340\260"
	.string	"\377\340\260"
	.string	"\377\340\260"
	.string	"\377\340\260"
	.string	"\377\340\260"
	.string	"\377"
	.string	""
	.string	""
	.string	"\377"
	.string	""
	.string	""
	.string	"\377\340\260"
	.string	"\377\340\260"
	.string	"\377\340\260"
	.string	"\377\340\260"
	.string	"\377"
	.string	""
	.string	""
	.string	"\377"
	.string	""
	.string	""
	.string	"\377"
	.string	""
	.string	""
	.string	"\377"
	.string	""
	.string	""
	.string	"\377"
	.string	""
	.string	""
	.string	"\377\340\260"
	.string	"\377\340\260"
	.string	"\377\340\260"
	.string	"\377\340\260"
	.string	"\377\340\260"
	.string	"\377"
	.string	""
	.string	""
	.string	"\377"
	.string	""
	.string	""
	.string	"\377\340\260"
	.string	"\377\340\260"
	.string	"\377\340\260"
	.string	"\377\340\260"
	.string	"\377\340\260"
	.string	"\377\340\260"
	.string	"\377\340\260"
	.string	"\377\340\260"
	.string	"\377\340\260"
	.string	"\377\340\260"
	.string	"\377\340\260"
	.string	"\377\340\260"
	.string	"\377\340\260"
	.string	"\377\340\260"
	.string	"\377"
	.string	""
	.string	""
	.string	"\377"
	.string	""
	.string	""
	.string	"\377"
	.string	""
	.string	""
	.string	"\377"
	.string	""
	.string	""
	.string	"\377"
	.string	""
	.string	""
	.string	"\377"
	.string	""
	.string	""
	.string	"\377"
	.string	""
	.string	""
	.string	"\377"
	.string	""
	.string	""
	.string	"\377"
	.string	""
	.string	""
	.string	"\377"
	.string	""
	.string	""
	.string	"\377"
	.string	""
	.string	""
	.string	"\377"
	.string	""
	.string	""
	.string	"\377"
	.string	""
	.string	""
	.string	"\377\340\260"
	.string	"\377\340\260"
	.string	"\377\340\260"
	.string	"\377\340\260"
	.string	"\377"
	.string	""
	.string	""
	.string	"\377"
	.string	""
	.string	""
	.string	"\377\340\260"
	.string	"\377\340\260"
	.string	"\377\340\260"
	.string	"\377\340\260"
	.string	"\377\340\260"
	.string	"\377\340\260"
	.string	"\377\340\260"
	.string	"\377\340\260"
	.string	"\377\340\260"
	.string	"\377\340\260"
	.string	"\377\340\260"
	.string	"\377\340\260"
	.string	"\377\340\260"
	.string	"\377"
	.string	""
	.string	""
	.string	"\377"
	.string	""
	.string	""
	.string	"\377"
	.string	""
	.string	""
	.string	"\377"
	.string	""
	.string	""
	.string	"\377"
	.string	""
	.string	""
	.string	"\377"
	.string	""
	.string	""
	.string	"\377"
	.string	""
	.string	""
	.string	"\377\340\260"
	.string	"\377\340\260"
	.string	"\377\340\260"
	.string	"\377\340\260"
	.string	"\377\340\260"
	.string	"\377\340\260"
	.string	"\377"
	.string	""
	.string	""
	.string	"\377"
	.string	""
	.string	""
	.string	"\377"
	.string	""
	.string	""
	.string	"\377"
	.string	""
	.string	""
	.string	"\377"
	.string	""
	.string	""
	.string	"\377"
	.string	""
	.string	""
	.string	"\377\340\260"
	.string	"\377\340\260"
	.string	"\377\340\260"
	.string	"\377\340\260"
	.string	"\377\340\260"
	.string	"\377\340\260"
	.string	"\377\340\260"
	.string	"\377\340\260"
	.string	"\377\340\260"
	.string	"\377\340\260"
	.string	"\377\340\260"
	.string	"\377\340\260"
	.string	"\377\340\260"
	.string	"\377"
	.string	""
	.string	""
	.string	"\377"
	.string	""
	.string	""
	.string	"\377"
	.string	""
	.string	""
	.string	"\377"
	.string	""
	.string	""
	.string	"\377\340\260"
	.string	"\377\340\260"
	.string	"\377\340\260"
	.string	"\377\340\260"
	.string	"\377"
	.string	""
	.string	""
	.string	"\377"
	.string	""
	.string	""
	.string	"\377"
	.string	""
	.string	""
	.string	"\377\340\260"
	.string	"\377\340\260"
	.string	"\377\340\260"
	.string	"\377\340\260"
	.string	"\377"
	.string	""
	.string	""
	.string	"\377"
	.string	""
	.string	""
	.string	"\377"
	.string	""
	.string	""
	.string	"\377\340\260"
	.string	"\377\340\260"
	.string	"\377\340\260"
	.string	"\377\340\260"
	.string	"\377\340\260"
	.string	"\377\340\260"
	.string	"\377\340\260"
	.string	"\377\340\260"
	.string	"\377\340\260"
	.string	"\377\340\260"
	.string	"\377\340\260"
	.string	"\377\340\260"
	.string	"\377\340\260"
	.string	"\377\340\260"
	.string	"\377"
	.string	""
	.string	""
	.string	"\377"
	.string	""
	.string	""
	.string	"\377\340\260"
	.string	"\377\340\260"
	.string	"\377\340\260"
	.string	"\377\340\260"
	.string	"\377\340\260"
	.string	"\377\340\260"
	.string	"\377\340\260"
	.string	"\377\340\260"
	.string	"\377\340\260"
	.string	"\377\340\260"
	.string	"\377\340\260"
	.string	"\377\340\260"
	.string	"\377\340\260"
	.string	"\377\340\260"
	.string	"\377\340\260"
	.string	"\377"
	.string	""
	.string	""
	.string	"\377"
	.string	""
	.string	""
	.string	"\377"
	.string	""
	.string	""
	.string	"\377"
	.string	""
	.string	""
	.string	"\377"
	.string	""
	.string	""
	.string	"\377"
	.string	""
	.string	""
	.string	"\377"
	.string	""
	.string	""
	.string	"\377"
	.string	""
	.string	""
	.string	"\377"
	.string	""
	.string	""
	.string	"\377"
	.string	""
	.string	""
	.string	"\377"
	.string	""
	.string	""
	.string	"\377"
	.string	""
	.string	""
	.string	"\377"
	.string	""
	.string	""
	.string	"\377"
	.string	""
	.string	""
	.string	"\377"
	.string	""
	.string	""
	.string	"\377"
	.string	""
	.string	""
	.string	"\377"
	.string	""
	.string	""
	.string	"\377"
	.string	""
	.string	""
	.string	"\377\340\260"
	.string	"\377\340\260"
	.string	"\377\340\260"
	.string	"\377\340\260"
	.string	"\377"
	.string	""
	.string	""
	.string	"\377"
	.string	""
	.string	""
	.string	"\377"
	.string	""
	.string	""
	.string	"\377"
	.string	""
	.string	""
	.string	"\377"
	.string	""
	.string	""
	.string	"\377"
	.string	""
	.string	""
	.string	"\377"
	.string	""
	.string	""
	.string	"\377\340\260"
	.string	"\377\340\260"
	.string	"\377\340\260"
	.string	"\377\340\260"
	.string	"\377"
	.string	""
	.string	""
	.string	"\377\340\260"
	.string	"\377\340\260"
	.string	"\377\340\260"
	.string	"\377\340\260"
	.string	"\377\340\260"
	.string	"\377\340\260"
	.string	"\377\340\260"
	.string	"\377\340\260"
	.string	"\377\340\260"
	.string	"\377\340\260"
	.string	"\377\340\260"
	.string	"\377\340\260"
	.string	"\377\340\260"
	.string	"\377\340\260"
	.string	"\377"
	.string	""
	.string	""
	.string	"\377"
	.string	""
	.string	""
	.string	"\377\340\260"
	.string	"\377\340\260"
	.string	"\377\340\260"
	.string	"\377\340\260"
	.string	"\377\340\260"
	.string	"\377\340\260"
	.string	"\377\340\260"
	.string	"\377\340\260"
	.string	"\377\340\260"
	.string	"\377\340\260"
	.string	"\377\340\260"
	.string	"\377\340\260"
	.string	"\377\340\260"
	.string	"\377"
	.string	""
	.string	""
	.string	"\377"
	.string	""
	.string	""
	.string	"\377\340\260"
	.string	"\377\340\260"
	.string	"\377\340\260"
	.string	"\377\340\260"
	.string	"\377"
	.string	""
	.string	""
	.string	"\377"
	.string	""
	.string	""
	.string	"\377"
	.string	""
	.string	""
	.string	"\377"
	.string	""
	.string	""
	.string	"\377\340\260"
	.string	"\377\340\260"
	.string	"\377\340\260"
	.string	"\377\340\260"
	.string	"\377\340\260"
	.string	"\377"
	.string	""
	.string	""
	.string	"\377"
	.string	""
	.string	""
	.string	"\377"
	.string	""
	.string	""
	.string	"\377"
	.string	""
	.string	""
	.string	"\377\340\260"
	.string	"\377\340\260"
	.string	"\377\340\260"
	.string	"\377\340\260"
	.string	"\377\340\260"
	.string	"\377\340\260"
	.string	"\377\340\260"
	.string	"\377\340\260"
	.string	"\377\340\260"
	.string	"\377\340\260"
	.string	"\377\340\260"
	.string	"\377\340\260"
	.string	"\377\340\260"
	.string	"\377\340\260"
	.string	"\377"
	.string	""
	.string	""
	.string	"\377\340\260"
	.string	"\377\340\260"
	.string	"\377\340\260"
	.string	"\377\340\260"
	.string	"\377"
	.string	""
	.string	""
	.string	"\377"
	.string	""
	.string	""
	.string	"\377"
	.string	""
	.string	""
	.string	"\377"
	.string	""
	.string	""
	.string	"\377"
	.string	""
	.string	""
	.string	"\377"
	.string	""
	.string	""
	.string	"\377"
	.string	""
	.string	""
	.string	"\377\340\260"
	.string	"\377\340\260"
	.string	"\377\340\260"
	.string	"\377\340\260"
	.string	"\377"
	.string	""
	.string	""
	.string	"\377\340\260"
	.string	"\377\340\260"
	.string	"\377\340\260"
	.string	"\377\340\260"
	.ascii	"\377"
	.string	""
	.string	""
	.string	""
	.string	"\377"
	.string	""
	.string	""
	.string	"\377"
	.string	""
	.string	""
	.string	"\377"
	.string	""
	.string	""
	.string	"\377"
	.string	""
	.string	""
	.string	"\377"
	.string	""
	.string	""
	.string	"\377"
	.string	""
	.string	""
	.string	"\377\340\260"
	.string	"\377\340\260"
	.string	"\377\340\260"
	.string	"\377\340\260"
	.string	"\377"
	.string	""
	.string	""
	.string	"\377"
	.string	""
	.string	""
	.string	"\377\340\260"
	.string	"\377\340\260"
	.string	"\377\340\260"
	.string	"\377\340\260"
	.string	"\377\340\260"
	.string	"\377\340\260"
	.string	"\377\340\260"
	.string	"\377\340\260"
	.string	"\377\340\260"
	.string	"\377\340\260"
	.string	"\377\340\260"
	.string	"\377\340\260"
	.string	"\377\340\260"
	.string	"\377"
	.string	""
	.string	""
	.string	"\377"
	.string	""
	.string	""
	.string	"\377\340\260"
	.string	"\377\340\260"
	.string	"\377\340\260"
	.string	"\377\340\260"
	.string	"\377"
	.string	""
	.string	""
	.string	"\377"
	.string	""
	.string	""
	.string	"\377"
	.string	""
	.string	""
	.string	"\377"
	.string	""
	.string	""
	.string	"\377"
	.string	""
	.string	""
	.string	"\377"
	.string	""
	.string	""
	.string	"\377"
	.string	""
	.string	""
	.string	"\377"
	.string	""
	.string	""
	.string	"\377"
	.string	""
	.string	""
	.string	"\377"
	.string	""
	.string	""
	.string	"\377"
	.string	""
	.string	""
	.string	"\377"
	.string	""
	.string	""
	.string	"\377"
	.string	""
	.string	""
	.string	"\377\340\260"
	.string	"\377\340\260"
	.string	"\377\340\260"
	.string	"\377\340\260"
	.string	"\377\340\260"
	.string	"\377\340\260"
	.string	"\377\340\260"
	.string	"\377\340\260"
	.string	"\377\340\260"
	.string	"\377\340\260"
	.string	"\377\340\260"
	.string	"\377\340\260"
	.string	"\377\340\260"
	.string	"\377"
	.string	""
	.string	""
	.string	"\377"
	.string	""
	.string	""
	.string	"\377\340\260"
	.string	"\377\340\260"
	.string	"\377\340\260"
	.string	"\377\340\260"
	.string	"\377"
	.string	""
	.string	""
	.string	"\377"
	.string	""
	.string	""
	.string	"\377"
	.string	""
	.string	""
	.string	"\377"
	.string	""
	.string	""
	.string	"\377"
	.string	""
	.string	""
	.string	"\377"
	.string	""
	.string	""
	.string	"\377\340\260"
	.string	"\377\340\260"
	.string	"\377\340\260"
	.string	"\377\340\260"
	.string	"\377"
	.string	""
	.string	""
	.string	"\377"
	.string	""
	.string	""
	.string	"\377"
	.string	""
	.string	""
	.string	"\377\340\260"
	.string	"\377\340\260"
	.string	"\377\340\260"
	.string	"\377\340\260"
	.string	"\377\340\260"
	.string	"\377\340\260"
	.string	"\377\340\260"
	.string	"\377\340\260"
	.string	"\377\340\260"
	.string	"\377\340\260"
	.string	"\377\340\260"
	.string	"\377\340\260"
	.string	"\377\340\260"
	.string	"\377"
	.string	""
	.string	""
	.string	"\377"
	.string	""
	.string	""
	.string	"\377"
	.string	""
	.string	""
	.string	"\377"
	.string	""
	.string	""
	.string	"\377"
	.string	""
	.string	""
	.string	"\377"
	.string	""
	.string	""
	.string	"\377"
	.string	""
	.string	""
	.string	"\377"
	.string	""
	.string	""
	.string	"\377"
	.string	""
	.string	""
	.string	"\377"
	.string	""
	.string	""
	.string	"\377"
	.string	""
	.string	""
	.string	"\377"
	.string	""
	.string	""
	.string	"\377"
	.string	""
	.string	""
	.string	"\377\340\260"
	.string	"\377\340\260"
	.string	"\377\340\260"
	.string	"\377\340\260"
	.string	"\377"
	.string	""
	.string	""
	.string	"\377"
	.string	""
	.string	""
	.string	"\377\340\260"
	.string	"\377\340\260"
	.string	"\377\340\260"
	.string	"\377\340\260"
	.string	"\377\340\260"
	.string	"\377\340\260"
	.string	"\377\340\260"
	.string	"\377\340\260"
	.string	"\377\340\260"
	.string	"\377\340\260"
	.string	"\377\340\260"
	.string	"\377\340\260"
	.string	"\377\340\260"
	.string	"\377"
	.string	""
	.string	""
	.string	"\377"
	.string	""
	.string	""
	.string	"\377"
	.string	""
	.string	""
	.string	"\377"
	.string	""
	.string	""
	.string	"\377"
	.string	""
	.string	""
	.string	"\377"
	.string	""
	.string	""
	.string	"\377"
	.string	""
	.string	""
	.string	"\377\340\260"
	.string	"\377\340\260"
	.string	"\377\340\260"
	.string	"\377\340\260"
	.string	"\377\340\260"
	.string	"\377\340\260"
	.string	"\377"
	.string	""
	.string	""
	.string	"\377"
	.string	""
	.string	""
	.string	"\377"
	.string	""
	.string	""
	.string	"\377"
	.string	""
	.string	""
	.string	"\377"
	.string	""
	.string	""
	.string	"\377"
	.string	""
	.string	""
	.string	"\377\340\260"
	.string	"\377\340\260"
	.string	"\377\340\260"
	.string	"\377\340\260"
	.string	"\377\340\260"
	.string	"\377\340\260"
	.string	"\377\340\260"
	.string	"\377\340\260"
	.string	"\377\340\260"
	.string	"\377\340\260"
	.string	"\377\340\260"
	.string	"\377\340\260"
	.string	"\377\340\260"
	.string	"\377"
	.string	""
	.string	""
	.string	"\377"
	.string	""
	.string	""
	.string	"\377"
	.string	""
	.string	""
	.string	"\377\340\260"
	.string	"\377\340\260"
	.string	"\377\340\260"
	.string	"\377\340\260"
	.string	"\377"
	.string	""
	.string	""
	.string	"\377"
	.string	""
	.string	""
	.string	"\377"
	.string	""
	.string	""
	.string	"\377"
	.string	""
	.string	""
	.string	"\377"
	.string	""
	.string	""
	.string	"\377\340\260"
	.string	"\377\340\260"
	.string	"\377\340\260"
	.string	"\377\340\260"
	.string	"\377"
	.string	""
	.string	""
	.string	"\377"
	.string	""
	.string	""
	.string	"\377"
	.string	""
	.string	""
	.string	"\377\340\260"
	.string	"\377\340\260"
	.string	"\377\340\260"
	.string	"\377\340\260"
	.string	"\377\340\260"
	.string	"\377\340\260"
	.string	"\377\340\260"
	.string	"\377\340\260"
	.string	"\377\340\260"
	.string	"\377\340\260"
	.string	"\377\340\260"
	.string	"\377\340\260"
	.string	"\377\340\260"
	.string	"\377"
	.string	""
	.string	""
	.string	"\377"
	.string	""
	.string	""
	.string	"\377\340\260"
	.string	"\377\340\260"
	.string	"\377\340\260"
	.string	"\377\340\260"
	.string	"\377\340\260"
	.string	"\377\340\260"
	.string	"\377\340\260"
	.string	"\377\340\260"
	.string	"\377\340\260"
	.string	"\377\340\260"
	.string	"\377\340\260"
	.string	"\377\340\260"
	.string	"\377\340\260"
	.string	"\377\340\260"
	.string	"\377\340\260"
	.string	"\377"
	.string	""
	.string	""
	.string	"\377"
	.string	""
	.string	""
	.string	"\377"
	.string	""
	.string	""
	.string	"\377"
	.string	""
	.string	""
	.string	"\377"
	.string	""
	.string	""
	.string	"\377"
	.string	""
	.string	""
	.string	"\377"
	.string	""
	.string	""
	.string	"\377"
	.string	""
	.string	""
	.string	"\377"
	.string	""
	.string	""
	.string	"\377"
	.string	""
	.string	""
	.string	"\377"
	.string	""
	.string	""
	.string	"\377"
	.string	""
	.string	""
	.string	"\377"
	.string	""
	.string	""
	.string	"\377"
	.string	""
	.string	""
	.string	"\377"
	.string	""
	.string	""
	.string	"\377"
	.string	""
	.string	""
	.string	"\377"
	.string	""
	.string	""
	.string	"\377"
	.string	""
	.string	""
	.string	"\377\340\260"
	.string	"\377\340\260"
	.string	"\377\340\260"
	.string	"\377\340\260"
	.string	"\377"
	.string	""
	.string	""
	.string	"\377"
	.string	""
	.string	""
	.string	"\377"
	.string	""
	.string	""
	.string	"\377"
	.string	""
	.string	""
	.string	"\377"
	.string	""
	.string	""
	.string	"\377"
	.string	""
	.string	""
	.string	"\377"
	.string	""
	.string	""
	.string	"\377\340\260"
	.string	"\377\340\260"
	.string	"\377\340\260"
	.string	"\377\340\260"
	.string	"\377"
	.string	""
	.string	""
	.string	"\377\340\260"
	.string	"\377\340\260"
	.string	"\377\340\260"
	.string	"\377\340\260"
	.string	"\377\340\260"
	.string	"\377\340\260"
	.string	"\377\340\260"
	.string	"\377\340\260"
	.string	"\377\340\260"
	.string	"\377\340\260"
	.string	"\377\340\260"
	.string	"\377\340\260"
	.string	"\377\340\260"
	.string	"\377\340\260"
	.string	"\377"
	.string	""
	.string	""
	.string	"\377"
	.string	""
	.string	""
	.string	"\377"
	.string	""
	.string	""
	.string	"\377\340\260"
	.string	"\377\340\260"
	.string	"\377\340\260"
	.string	"\377\340\260"
	.string	"\377\340\260"
	.string	"\377\340\260"
	.string	"\377\340\260"
	.string	"\377\340\260"
	.string	"\377\340\260"
	.string	"\377\340\260"
	.string	"\377\340\260"
	.string	"\377"
	.string	""
	.string	""
	.string	"\377"
	.string	""
	.string	""
	.string	"\377"
	.string	""
	.string	""
	.string	"\377\340\260"
	.string	"\377\340\260"
	.string	"\377\340\260"
	.string	"\377\340\260"
	.string	"\377"
	.string	""
	.string	""
	.string	"\377"
	.string	""
	.string	""
	.string	"\377"
	.string	""
	.string	""
	.string	"\377"
	.string	""
	.string	""
	.string	"\377"
	.string	""
	.string	""
	.string	"\377\340\260"
	.string	"\377\340\260"
	.string	"\377\340\260"
	.string	"\377\340\260"
	.string	"\377\340\260"
	.string	"\377"
	.string	""
	.string	""
	.string	"\377"
	.string	""
	.string	""
	.string	"\377"
	.string	""
	.string	""
	.string	"\377"
	.string	""
	.string	""
	.string	"\377\340\260"
	.string	"\377\340\260"
	.string	"\377\340\260"
	.string	"\377\340\260"
	.string	"\377\340\260"
	.string	"\377\340\260"
	.string	"\377\340\260"
	.string	"\377\340\260"
	.string	"\377\340\260"
	.string	"\377\340\260"
	.string	"\377\340\260"
	.string	"\377\340\260"
	.string	"\377\340\260"
	.string	"\377"
	.string	""
	.string	""
	.string	"\377\340\260"
	.string	"\377\340\260"
	.string	"\377\340\260"
	.string	"\377\340\260"
	.string	"\377"
	.string	""
	.string	""
	.string	"\377"
	.string	""
	.string	""
	.string	"\377"
	.string	""
	.string	""
	.string	"\377"
	.string	""
	.string	""
	.string	"\377"
	.string	""
	.string	""
	.string	"\377"
	.string	""
	.string	""
	.string	"\377"
	.string	""
	.string	""
	.string	"\377\340\260"
	.string	"\377\340\260"
	.string	"\377\340\260"
	.string	"\377\340\260"
	.string	"\377"
	.string	""
	.string	""
	.string	"\377\340\260"
	.string	"\377\340\260"
	.string	"\377\340\260"
	.string	"\377\340\260"
	.string	"\377"
	.string	""
	.string	""
	.string	"\377"
	.string	""
	.string	""
	.string	"\377"
	.string	""
	.string	""
	.string	"\377"
	.string	""
	.string	""
	.string	"\377"
	.string	""
	.string	""
	.string	"\377"
	.string	""
	.string	""
	.string	"\377"
	.string	""
	.string	""
	.string	"\377\340\260"
	.string	"\377\340\260"
	.string	"\377\340\260"
	.string	"\377\340\260"
	.string	"\377"
	.string	""
	.string	""
	.string	"\377"
	.string	""
	.string	""
	.string	"\377"
	.string	""
	.string	""
	.string	"\377\340\260"
	.string	"\377\340\260"
	.string	"\377\340\260"
	.string	"\377\340\260"
	.string	"\377\340\260"
	.string	"\377\340\260"
	.string	"\377\340\260"
	.string	"\377\340\260"
	.string	"\377\340\260"
	.string	"\377\340\260"
	.string	"\377\340\260"
	.string	"\377"
	.string	""
	.string	""
	.string	"\377"
	.string	""
	.string	""
	.string	"\377"
	.string	""
	.string	""
	.string	"\377\340\260"
	.string	"\377\340\260"
	.string	"\377\340\260"
	.string	"\377\340\260"
	.string	"\377"
	.string	""
	.string	""
	.string	"\377"
	.string	""
	.string	""
	.string	"\377"
	.string	""
	.string	""
	.string	"\377"
	.string	""
	.string	""
	.string	"\377"
	.string	""
	.string	""
	.string	"\377"
	.string	""
	.string	""
	.string	"\377"
	.string	""
	.string	""
	.string	"\377"
	.string	""
	.string	""
	.string	"\377"
	.string	""
	.string	""
	.string	"\377"
	.string	""
	.string	""
	.string	"\377"
	.string	""
	.string	""
	.string	"\377"
	.string	""
	.string	""
	.string	"\377"
	.string	""
	.string	""
	.string	"\377"
	.string	""
	.string	""
	.string	"\377\340\260"
	.string	"\377\340\260"
	.string	"\377\340\260"
	.string	"\377\340\260"
	.string	"\377\340\260"
	.string	"\377\340\260"
	.string	"\377\340\260"
	.string	"\377\340\260"
	.string	"\377\340\260"
	.string	"\377\340\260"
	.string	"\377\340\260"
	.string	"\377\340\260"
	.string	"\377\340\260"
	.string	"\377"
	.string	""
	.string	""
	.string	"\377\340\260"
	.string	"\377\340\260"
	.string	"\377\340\260"
	.string	"\377\340\260"
	.string	"\377"
	.string	""
	.string	""
	.string	"\377"
	.string	""
	.string	""
	.string	"\377"
	.string	""
	.string	""
	.string	"\377"
	.string	""
	.string	""
	.string	"\377"
	.string	""
	.string	""
	.string	"\377"
	.string	""
	.string	""
	.string	"\377\340\260"
	.string	"\377\340\260"
	.string	"\377\340\260"
	.string	"\377\340\260"
	.string	"\377\340\260"
	.string	"\377"
	.string	""
	.string	""
	.string	"\377"
	.string	""
	.string	""
	.string	"\377\340\260"
	.string	"\377\340\260"
	.string	"\377\340\260"
	.string	"\377\340\260"
	.string	"\377\340\260"
	.string	"\377\340\260"
	.string	"\377\340\260"
	.string	"\377\340\260"
	.string	"\377\340\260"
	.string	"\377\340\260"
	.string	"\377\340\260"
	.string	"\377\340\260"
	.string	"\377"
	.string	""
	.string	""
	.string	"\377"
	.string	""
	.string	""
	.string	"\377"
	.string	""
	.string	""
	.string	"\377"
	.string	""
	.string	""
	.string	"\377"
	.string	""
	.string	""
	.string	"\377"
	.string	""
	.string	""
	.string	"\377"
	.string	""
	.string	""
	.string	"\377"
	.string	""
	.string	""
	.string	"\377"
	.string	""
	.string	""
	.string	"\377"
	.string	""
	.string	""
	.string	"\377"
	.string	""
	.string	""
	.string	"\377"
	.string	""
	.string	""
	.string	"\377"
	.string	""
	.string	""
	.string	"\377"
	.string	""
	.string	""
	.string	"\377\340\260"
	.string	"\377\340\260"
	.string	"\377\340\260"
	.string	"\377\340\260"
	.string	"\377"
	.string	""
	.string	""
	.string	"\377"
	.string	""
	.string	""
	.string	"\377"
	.string	""
	.string	""
	.string	"\377\340\260"
	.string	"\377\340\260"
	.string	"\377\340\260"
	.string	"\377\340\260"
	.string	"\377\340\260"
	.string	"\377\340\260"
	.string	"\377\340\260"
	.string	"\377\340\260"
	.string	"\377\340\260"
	.string	"\377\340\260"
	.string	"\377\340\260"
	.string	"\377"
	.string	""
	.string	""
	.string	"\377"
	.string	""
	.string	""
	.string	"\377"
	.string	""
	.string	""
	.string	"\377"
	.string	""
	.string	""
	.string	"\377"
	.string	""
	.string	""
	.string	"\377"
	.string	""
	.string	""
	.string	"\377"
	.string	""
	.string	""
	.string	"\377"
	.string	""
	.string	""
	.string	"\377"
	.string	""
	.string	""
	.string	"\377\340\260"
	.string	"\377\340\260"
	.string	"\377\340\260"
	.string	"\377\340\260"
	.string	"\377"
	.string	""
	.string	""
	.string	"\377"
	.string	""
	.string	""
	.string	"\377"
	.string	""
	.string	""
	.string	"\377"
	.string	""
	.string	""
	.string	"\377"
	.string	""
	.string	""
	.string	"\377"
	.string	""
	.string	""
	.string	"\377"
	.string	""
	.string	""
	.string	"\377"
	.string	""
	.string	""
	.string	"\377\340\260"
	.string	"\377\340\260"
	.string	"\377\340\260"
	.string	"\377\340\260"
	.string	"\377\340\260"
	.string	"\377\340\260"
	.string	"\377\340\260"
	.string	"\377\340\260"
	.string	"\377\340\260"
	.string	"\377\340\260"
	.string	"\377\340\260"
	.string	"\377"
	.string	""
	.string	""
	.string	"\377"
	.string	""
	.string	""
	.string	"\377"
	.string	""
	.string	""
	.string	"\377"
	.string	""
	.string	""
	.string	"\377\340\260"
	.string	"\377\340\260"
	.string	"\377\340\260"
	.string	"\377\340\260"
	.string	"\377"
	.string	""
	.string	""
	.string	"\377"
	.string	""
	.string	""
	.string	"\377"
	.string	""
	.string	""
	.string	"\377"
	.string	""
	.string	""
	.string	"\377"
	.string	""
	.string	""
	.string	"\377\340\260"
	.string	"\377\340\260"
	.string	"\377\340\260"
	.string	"\377\340\260"
	.string	"\377"
	.string	""
	.string	""
	.string	"\377"
	.string	""
	.string	""
	.string	"\377"
	.string	""
	.string	""
	.string	"\377\340\260"
	.string	"\377\340\260"
	.string	"\377\340\260"
	.string	"\377\340\260"
	.string	"\377\340\260"
	.string	"\377\340\260"
	.string	"\377\340\260"
	.ascii	"\377"
	.string	"\340\260"
	.string	"\377\340\260"
	.string	"\377\340\260"
	.string	"\377\340\260"
	.string	"\377\340\260"
	.string	"\377"
	.string	""
	.string	""
	.string	"\377"
	.string	""
	.string	""
	.string	"\377"
	.string	""
	.string	""
	.string	"\377\340\260"
	.string	"\377\340\260"
	.string	"\377\340\260"
	.string	"\377\340\260"
	.string	"\377\340\260"
	.string	"\377\340\260"
	.string	"\377\340\260"
	.string	"\377\340\260"
	.string	"\377\340\260"
	.string	"\377\340\260"
	.string	"\377\340\260"
	.string	"\377\340\260"
	.string	"\377\340\260"
	.string	"\377\340\260"
	.string	"\377\340\260"
	.string	"\377"
	.string	""
	.string	""
	.string	"\377"
	.string	""
	.string	""
	.string	"\377"
	.string	""
	.string	""
	.string	"\377"
	.string	""
	.string	""
	.string	"\377"
	.string	""
	.string	""
	.string	"\377"
	.string	""
	.string	""
	.string	"\377"
	.string	""
	.string	""
	.string	"\377"
	.string	""
	.string	""
	.string	"\377"
	.string	""
	.string	""
	.string	"\377"
	.string	""
	.string	""
	.string	"\377"
	.string	""
	.string	""
	.string	"\377"
	.string	""
	.string	""
	.string	"\377"
	.string	""
	.string	""
	.string	"\377"
	.string	""
	.string	""
	.string	"\377"
	.string	""
	.string	""
	.string	"\377"
	.string	""
	.string	""
	.string	"\377"
	.string	""
	.string	""
	.string	"\377"
	.string	""
	.string	""
	.string	"\377\340\260"
	.string	"\377\340\260"
	.string	"\377\340\260"
	.string	"\377\340\260"
	.string	"\377"
	.string	""
	.string	""
	.string	"\377"
	.string	""
	.string	""
	.string	"\377"
	.string	""
	.string	""
	.string	"\377"
	.string	""
	.string	""
	.string	"\377"
	.string	""
	.string	""
	.string	"\377"
	.string	""
	.string	""
	.string	"\377"
	.string	""
	.string	""
	.string	"\377\340\260"
	.string	"\377\340\260"
	.string	"\377\340\260"
	.string	"\377\340\260"
	.string	"\377"
	.string	""
	.string	""
	.string	"\377\340\260"
	.string	"\377\340\260"
	.string	"\377\340\260"
	.string	"\377\340\260"
	.string	"\377\340\260"
	.string	"\377\340\260"
	.string	"\377\340\260"
	.string	"\377\340\260"
	.string	"\377\340\260"
	.string	"\377\340\260"
	.string	"\377\340\260"
	.string	"\377\340\260"
	.string	"\377\340\260"
	.string	"\377\340\260"
	.string	"\377"
	.string	""
	.string	""
	.string	"\377"
	.string	""
	.string	""
	.string	"\377"
	.string	""
	.string	""
	.string	"\377"
	.string	""
	.string	""
	.string	"\377"
	.string	""
	.string	""
	.string	"\377\340\260"
	.string	"\377\340\260"
	.string	"\377\340\260"
	.string	"\377\340\260"
	.string	"\377\340\260"
	.string	"\377\340\260"
	.string	"\377\340\260"
	.string	"\377"
	.string	""
	.string	""
	.string	"\377"
	.string	""
	.string	""
	.string	"\377"
	.string	""
	.string	""
	.string	"\377"
	.string	""
	.string	""
	.string	"\377"
	.string	""
	.string	""
	.string	"\377\340\260"
	.string	"\377\340\260"
	.string	"\377\340\260"
	.string	"\377\340\260"
	.string	"\377"
	.string	""
	.string	""
	.string	"\377"
	.string	""
	.string	""
	.string	"\377"
	.string	""
	.string	""
	.string	"\377"
	.string	""
	.string	""
	.string	"\377"
	.string	""
	.string	""
	.string	"\377"
	.string	""
	.string	""
	.string	"\377\340\260"
	.string	"\377\340\260"
	.string	"\377\340\260"
	.string	"\377\340\260"
	.string	"\377\340\260"
	.string	"\377"
	.string	""
	.string	""
	.string	"\377"
	.string	""
	.string	""
	.string	"\377"
	.string	""
	.string	""
	.string	"\377"
	.string	""
	.string	""
	.string	"\377"
	.string	""
	.string	""
	.string	"\377\340\260"
	.string	"\377\340\260"
	.string	"\377\340\260"
	.string	"\377\340\260"
	.string	"\377\340\260"
	.string	"\377\340\260"
	.string	"\377\340\260"
	.string	"\377\340\260"
	.string	"\377\340\260"
	.string	"\377\340\260"
	.string	"\377\340\260"
	.string	"\377"
	.string	""
	.string	""
	.string	"\377\340\260"
	.string	"\377\340\260"
	.string	"\377\340\260"
	.string	"\377\340\260"
	.string	"\377"
	.string	""
	.string	""
	.string	"\377"
	.string	""
	.string	""
	.string	"\377"
	.string	""
	.string	""
	.string	"\377"
	.string	""
	.string	""
	.string	"\377"
	.string	""
	.string	""
	.string	"\377"
	.string	""
	.string	""
	.string	"\377"
	.string	""
	.string	""
	.string	"\377\340\260"
	.string	"\377\340\260"
	.string	"\377\340\260"
	.string	"\377\340\260"
	.string	"\377"
	.string	""
	.string	""
	.string	"\377\340\260"
	.string	"\377\340\260"
	.string	"\377\340\260"
	.string	"\377\340\260"
	.string	"\377"
	.string	""
	.string	""
	.string	"\377"
	.string	""
	.string	""
	.string	"\377"
	.string	""
	.string	""
	.string	"\377"
	.string	""
	.string	""
	.string	"\377"
	.string	""
	.string	""
	.string	"\377"
	.string	""
	.string	""
	.string	"\377"
	.string	""
	.string	""
	.string	"\377\340\260"
	.string	"\377\340\260"
	.string	"\377\340\260"
	.string	"\377\340\260"
	.string	"\377"
	.string	""
	.string	""
	.string	"\377"
	.string	""
	.string	""
	.string	"\377"
	.string	""
	.string	""
	.string	"\377"
	.string	""
	.string	""
	.string	"\377"
	.string	""
	.string	""
	.string	"\377\340\260"
	.string	"\377\340\260"
	.string	"\377\340\260"
	.string	"\377\340\260"
	.string	"\377\340\260"
	.string	"\377\340\260"
	.string	"\377\340\260"
	.string	"\377"
	.string	""
	.string	""
	.string	"\377"
	.string	""
	.string	""
	.string	"\377"
	.string	""
	.string	""
	.string	"\377"
	.string	""
	.string	""
	.string	"\377"
	.string	""
	.string	""
	.string	"\377\340\260"
	.string	"\377\340\260"
	.string	"\377\340\260"
	.string	"\377\340\260"
	.string	"\377"
	.string	""
	.string	""
	.string	"\377"
	.string	""
	.string	""
	.string	"\377"
	.string	""
	.string	""
	.string	"\377"
	.string	""
	.string	""
	.string	"\377"
	.string	""
	.string	""
	.string	"\377"
	.string	""
	.string	""
	.string	"\377"
	.string	""
	.string	""
	.string	"\377"
	.string	""
	.string	""
	.string	"\377"
	.string	""
	.string	""
	.string	"\377"
	.string	""
	.string	""
	.string	"\377"
	.string	""
	.string	""
	.string	"\377"
	.string	""
	.string	""
	.string	"\377"
	.string	""
	.string	""
	.string	"\377"
	.string	""
	.string	""
	.string	"\377"
	.string	""
	.string	""
	.string	"\377"
	.string	""
	.string	""
	.string	"\377\340\260"
	.string	"\377\340\260"
	.string	"\377\340\260"
	.string	"\377\340\260"
	.string	"\377\340\260"
	.string	"\377\340\260"
	.string	"\377\340\260"
	.string	"\377"
	.string	""
	.string	""
	.string	"\377"
	.string	""
	.string	""
	.string	"\377\340\260"
	.string	"\377\340\260"
	.string	"\377"
	.string	""
	.string	""
	.string	"\377\340\260"
	.string	"\377\340\260"
	.string	"\377\340\260"
	.string	"\377\340\260"
	.string	"\377"
	.string	""
	.string	""
	.string	"\377"
	.string	""
	.string	""
	.string	"\377"
	.string	""
	.string	""
	.string	"\377"
	.string	""
	.string	""
	.string	"\377"
	.string	""
	.string	""
	.string	"\377"
	.string	""
	.string	""
	.string	"\377\340\260"
	.string	"\377\340\260"
	.string	"\377\340\260"
	.string	"\377\340\260"
	.string	"\377\340\260"
	.string	"\377"
	.string	""
	.string	""
	.string	"\377"
	.string	""
	.string	""
	.string	"\377"
	.string	""
	.string	""
	.string	"\377"
	.string	""
	.string	""
	.string	"\377\340\260"
	.string	"\377\340\260"
	.string	"\377\340\260"
	.string	"\377\340\260"
	.string	"\377\340\260"
	.string	"\377\340\260"
	.string	"\377\340\260"
	.string	"\377\340\260"
	.string	"\377"
	.string	""
	.string	""
	.string	"\377"
	.string	""
	.string	""
	.string	"\377"
	.string	""
	.string	""
	.string	"\377"
	.string	""
	.string	""
	.string	"\377"
	.string	""
	.string	""
	.string	"\377"
	.string	""
	.string	""
	.string	"\377"
	.string	""
	.string	""
	.string	"\377"
	.string	""
	.string	""
	.string	"\377"
	.string	""
	.string	""
	.string	"\377"
	.string	""
	.string	""
	.string	"\377"
	.string	""
	.string	""
	.string	"\377"
	.string	""
	.string	""
	.string	"\377"
	.string	""
	.string	""
	.string	"\377"
	.string	""
	.string	""
	.string	"\377"
	.string	""
	.string	""
	.string	"\377"
	.string	""
	.string	""
	.string	"\377\340\260"
	.string	"\377\340\260"
	.string	"\377\340\260"
	.string	"\377\340\260"
	.string	"\377"
	.string	""
	.string	""
	.string	"\377"
	.string	""
	.string	""
	.string	"\377"
	.string	""
	.string	""
	.string	"\377"
	.string	""
	.string	""
	.string	"\377"
	.string	""
	.string	""
	.string	"\377\340\260"
	.string	"\377\340\260"
	.string	"\377\340\260"
	.string	"\377\340\260"
	.string	"\377\340\260"
	.string	"\377\340\260"
	.string	"\377\340\260"
	.string	"\377"
	.string	""
	.string	""
	.string	"\377"
	.string	""
	.string	""
	.string	"\377"
	.string	""
	.string	""
	.string	"\377"
	.string	""
	.string	""
	.string	"\377"
	.string	""
	.string	""
	.string	"\377"
	.string	""
	.string	""
	.string	"\377"
	.string	""
	.string	""
	.string	"\377"
	.string	""
	.string	""
	.string	"\377"
	.string	""
	.string	""
	.string	"\377"
	.string	""
	.string	""
	.string	"\377"
	.string	""
	.string	""
	.string	"\377\340\260"
	.string	"\377\340\260"
	.string	"\377\340\260"
	.string	"\377\340\260"
	.string	"\377"
	.string	""
	.string	""
	.string	"\377"
	.string	""
	.string	""
	.string	"\377"
	.string	""
	.string	""
	.string	"\377"
	.string	""
	.string	""
	.string	"\377"
	.string	""
	.string	""
	.string	"\377"
	.string	""
	.string	""
	.string	"\377"
	.string	""
	.string	""
	.string	"\377"
	.string	""
	.string	""
	.string	"\377"
	.string	""
	.string	""
	.string	"\377"
	.string	""
	.string	""
	.string	"\377\340\260"
	.string	"\377\340\260"
	.string	"\377\340\260"
	.string	"\377\340\260"
	.string	"\377\340\260"
	.string	"\377\340\260"
	.string	"\377\340\260"
	.string	"\377"
	.string	""
	.string	""
	.string	"\377"
	.string	""
	.string	""
	.string	"\377"
	.string	""
	.string	""
	.string	"\377"
	.string	""
	.string	""
	.string	"\377"
	.string	""
	.string	""
	.string	"\377\340\260"
	.string	"\377\340\260"
	.string	"\377\340\260"
	.string	"\377\340\260"
	.string	"\377"
	.string	""
	.string	""
	.string	"\377"
	.string	""
	.string	""
	.string	"\377"
	.string	""
	.string	""
	.string	"\377"
	.string	""
	.string	""
	.string	"\377"
	.string	""
	.string	""
	.string	"\377"
	.string	""
	.string	""
	.string	"\377"
	.string	""
	.string	""
	.string	"\377\340\260"
	.string	"\377\340\260"
	.string	"\377\340\260"
	.string	"\377\340\260"
	.string	"\377"
	.string	""
	.string	""
	.string	"\377"
	.string	""
	.string	""
	.string	"\377"
	.string	""
	.string	""
	.string	"\377"
	.string	""
	.string	""
	.string	"\377\340\260"
	.string	"\377\340\260"
	.string	"\377\340\260"
	.string	"\377\340\260"
	.string	"\377\340\260"
	.string	"\377\340\260"
	.string	"\377\340\260"
	.string	"\377\340\260"
	.string	"\377"
	.string	""
	.string	""
	.string	"\377"
	.string	""
	.string	""
	.string	"\377"
	.string	""
	.string	""
	.string	"\377"
	.string	""
	.string	""
	.string	"\377"
	.string	""
	.string	""
	.string	"\377"
	.string	""
	.string	""
	.string	"\377\340\260"
	.string	"\377\340\260"
	.string	"\377\340\260"
	.string	"\377\340\260"
	.string	"\377\340\260"
	.string	"\377\340\260"
	.string	"\377\340\260"
	.string	"\377\340\260"
	.string	"\377\340\260"
	.string	"\377\340\260"
	.string	"\377\340\260"
	.string	"\377\340\260"
	.string	"\377\340\260"
	.string	"\377\340\260"
	.string	"\377"
	.string	""
	.string	""
	.string	"\377"
	.string	""
	.string	""
	.string	"\377"
	.string	""
	.string	""
	.string	"\377"
	.string	""
	.string	""
	.string	"\377"
	.string	""
	.string	""
	.string	"\377"
	.string	""
	.string	""
	.string	"\377"
	.string	""
	.string	""
	.string	"\377"
	.string	""
	.string	""
	.string	"\377"
	.string	""
	.string	""
	.string	"\377"
	.string	""
	.string	""
	.string	"\377"
	.string	""
	.string	""
	.string	"\377"
	.string	""
	.string	""
	.string	"\377"
	.string	""
	.string	""
	.string	"\377"
	.string	""
	.string	""
	.string	"\377"
	.string	""
	.string	""
	.string	"\377"
	.string	""
	.string	""
	.string	"\377"
	.string	""
	.string	""
	.string	"\377"
	.zero	3
	.data
	.align	2
	.set	.LANCHOR1,. + 0
	.type	msg, @object
	.size	msg, 101
msg:
	.string	"KIANV RISC-V RV32IM HDMI MULTICYCLE SOC: DMA, HDMI, VIDEO DOUBLE-BUFFER, GPIO, FLASH SPI, PSRAM, ..."
	.zero	3
	.type	sin_offset, @object
	.size	sin_offset, 316
sin_offset:
	.word	2240
	.word	2240
	.word	2240
	.word	2240
	.word	2240
	.word	2240
	.word	2240
	.word	2240
	.word	2160
	.word	2160
	.word	2160
	.word	2080
	.word	2080
	.word	2000
	.word	2000
	.word	1920
	.word	1920
	.word	1840
	.word	1840
	.word	1760
	.word	1760
	.word	1680
	.word	1680
	.word	1600
	.word	1600
	.word	1520
	.word	1520
	.word	1440
	.word	1440
	.word	1360
	.word	1360
	.word	1280
	.word	1280
	.word	1200
	.word	1200
	.word	1120
	.word	1120
	.word	1120
	.word	1040
	.word	1040
	.word	1040
	.word	1040
	.word	1040
	.word	1040
	.word	1040
	.word	1040
	.word	1040
	.word	1040
	.word	1040
	.word	1040
	.word	1040
	.word	1040
	.word	1040
	.word	1120
	.word	1120
	.word	1120
	.word	1200
	.word	1200
	.word	1280
	.word	1280
	.word	1360
	.word	1360
	.word	1440
	.word	1440
	.word	1520
	.word	1520
	.word	1600
	.word	1600
	.word	1680
	.word	1680
	.word	1760
	.word	1760
	.word	1840
	.word	1840
	.word	1920
	.word	1920
	.word	2000
	.word	2000
	.word	2080
	.bss
	.align	2
	.set	.LANCHOR0,. + 0
	.type	heap_memory, @object
	.size	heap_memory, 1024
heap_memory:
	.zero	1024
	.type	scroll_buf, @object
	.size	scroll_buf, 5120
scroll_buf:
	.zero	5120
	.section	.sbss,"aw",@nobits
	.align	2
	.type	heap_memory_used, @object
	.size	heap_memory_used, 4
heap_memory_used:
	.zero	4
	.ident	"GCC: (GNU) 11.1.0"
